	.text
	.syntax unified
	.eabi_attribute	67, "2.09"	@ Tag_conformance
	.cpu	cortex-m0plus
	.eabi_attribute	6, 12	@ Tag_CPU_arch
	.eabi_attribute	7, 77	@ Tag_CPU_arch_profile
	.eabi_attribute	8, 0	@ Tag_ARM_ISA_use
	.eabi_attribute	9, 1	@ Tag_THUMB_ISA_use
	.eabi_attribute	34, 0	@ Tag_CPU_unaligned_access
	.eabi_attribute	17, 1	@ Tag_ABI_PCS_GOT_use
	.eabi_attribute	20, 2	@ Tag_ABI_FP_denormal
	.eabi_attribute	21, 0	@ Tag_ABI_FP_exceptions
	.eabi_attribute	23, 1	@ Tag_ABI_FP_number_model
	.eabi_attribute	24, 1	@ Tag_ABI_align_needed
	.eabi_attribute	25, 1	@ Tag_ABI_align_preserved
	.eabi_attribute	38, 1	@ Tag_ABI_FP_16bit_format
	.eabi_attribute	18, 2	@ Tag_ABI_PCS_wchar_t
	.eabi_attribute	26, 1	@ Tag_ABI_enum_size
	.eabi_attribute	14, 0	@ Tag_ABI_PCS_R9_use
	.file	"event_groups.c"
	.file	1 "I:\\Keil5\\keil5_mdk\\ARM\\ARMCLANG\\Bin\\..\\include" "stdint.h"
	.file	2 "D:\\TI_M0G3507\\mspm0_sdk_2_05_00_05\\kernel\\freertos\\builds\\LP_MSPM0G3507\\release\\keil" "../../../../../../kernel/freertos/Source/portable/GCC/ARM_CM0\\portmacro.h"
	.file	3 "D:\\TI_M0G3507\\mspm0_sdk_2_05_00_05\\kernel\\freertos\\builds\\LP_MSPM0G3507\\release\\keil" "../../../../../../kernel/freertos/Source/include\\event_groups.h"
	.file	4 "D:\\TI_M0G3507\\mspm0_sdk_2_05_00_05\\kernel\\freertos\\builds\\LP_MSPM0G3507\\release\\keil" "../../../../../../kernel/freertos/Source/event_groups.c"
	.file	5 "D:\\TI_M0G3507\\mspm0_sdk_2_05_00_05\\kernel\\freertos\\builds\\LP_MSPM0G3507\\release\\keil" "../../../../../../kernel/freertos/Source/include/list.h"
	.section	.text.xEventGroupCreateStatic,"ax",%progbits
	.hidden	xEventGroupCreateStatic         @ -- Begin function xEventGroupCreateStatic
	.globl	xEventGroupCreateStatic
	.p2align	1
	.type	xEventGroupCreateStatic,%function
	.code	16                              @ @xEventGroupCreateStatic
	.thumb_func
xEventGroupCreateStatic:
.Lfunc_begin0:
	.loc	4 95 0                          @ ../../../../../../kernel/freertos/Source/event_groups.c:95:0
	.fnstart
	.cfi_sections .debug_frame
	.cfi_startproc
@ %bb.0:
	@DEBUG_VALUE: xEventGroupCreateStatic:pxEventGroupBuffer <- $r0
	@DEBUG_VALUE: xEventGroupCreateStatic:pxEventGroupBuffer <- $r0
	.save	{r4, lr}
	push	{r4, lr}
	.cfi_def_cfa_offset 8
	.cfi_offset lr, -4
	.cfi_offset r4, -8
	.pad	#8
	sub	sp, #8
	.cfi_def_cfa_offset 16
.Ltmp0:
	.loc	4 99 9 prologue_end             @ ../../../../../../kernel/freertos/Source/event_groups.c:99:9
	cmp	r0, #0
	beq	.LBB0_3
.Ltmp1:
@ %bb.1:
	@DEBUG_VALUE: xEventGroupCreateStatic:pxEventGroupBuffer <- $r0
	.loc	4 0 9 is_stmt 0                 @ ../../../../../../kernel/freertos/Source/event_groups.c:0:9
	mov	r4, r0
.Ltmp2:
	@DEBUG_VALUE: xEventGroupCreateStatic:pxEventGroupBuffer <- $r4
	movs	r0, #32
.Ltmp3:
	.loc	4 106 33 is_stmt 1              @ ../../../../../../kernel/freertos/Source/event_groups.c:106:33
	str	r0, [sp, #4]
.Ltmp4:
	.loc	4 107 17                        @ ../../../../../../kernel/freertos/Source/event_groups.c:107:17
	ldr	r0, [sp, #4]
.Ltmp5:
	.loc	4 107 17 is_stmt 0              @ ../../../../../../kernel/freertos/Source/event_groups.c:107:17
	cmp	r0, #32
	bne	.LBB0_5
.Ltmp6:
@ %bb.2:
	@DEBUG_VALUE: xEventGroupCreateStatic:pxEventGroupBuffer <- $r4
	.loc	4 0 17                          @ ../../../../../../kernel/freertos/Source/event_groups.c:0:17
	movs	r0, #0
.Ltmp7:
	@DEBUG_VALUE: xEventGroupCreateStatic:pxEventBits <- $r4
	.loc	4 116 38 is_stmt 1              @ ../../../../../../kernel/freertos/Source/event_groups.c:116:38
	str	r0, [r4]
	.loc	4 117 46                        @ ../../../../../../kernel/freertos/Source/event_groups.c:117:46
	adds	r0, r4, #4
	.loc	4 117 13 is_stmt 0              @ ../../../../../../kernel/freertos/Source/event_groups.c:117:13
	bl	vListInitialise
.Ltmp8:
	.loc	4 0 13                          @ ../../../../../../kernel/freertos/Source/event_groups.c:0:13
	movs	r0, #1
.Ltmp9:
	.loc	4 124 56 is_stmt 1              @ ../../../../../../kernel/freertos/Source/event_groups.c:124:56
	strb	r0, [r4, #28]
.Ltmp10:
	.loc	4 138 9                         @ ../../../../../../kernel/freertos/Source/event_groups.c:138:9
	mov	r0, r4
.Ltmp11:
	@DEBUG_VALUE: xEventGroupCreateStatic:pxEventGroupBuffer <- $r0
	.loc	4 138 9 epilogue_begin is_stmt 0 @ ../../../../../../kernel/freertos/Source/event_groups.c:138:9
	add	sp, #8
	pop	{r4, pc}
.Ltmp12:
.LBB0_3:
	@DEBUG_VALUE: xEventGroupCreateStatic:pxEventGroupBuffer <- $r0
	.loc	4 99 9 is_stmt 1                @ ../../../../../../kernel/freertos/Source/event_groups.c:99:9
	@APP
	cpsid i
	@NO_APP
.Ltmp13:
.LBB0_4:                                @ =>This Inner Loop Header: Depth=1
	@DEBUG_VALUE: xEventGroupCreateStatic:pxEventGroupBuffer <- $r0
	.loc	4 99 9 is_stmt 0                @ ../../../../../../kernel/freertos/Source/event_groups.c:99:9
	b	.LBB0_4
.Ltmp14:
.LBB0_5:
	@DEBUG_VALUE: xEventGroupCreateStatic:pxEventGroupBuffer <- $r4
	.loc	4 107 17 is_stmt 1              @ ../../../../../../kernel/freertos/Source/event_groups.c:107:17
	@APP
	cpsid i
	@NO_APP
.Ltmp15:
.LBB0_6:                                @ =>This Inner Loop Header: Depth=1
	@DEBUG_VALUE: xEventGroupCreateStatic:pxEventGroupBuffer <- $r4
	.loc	4 107 17 is_stmt 0              @ ../../../../../../kernel/freertos/Source/event_groups.c:107:17
	b	.LBB0_6
.Ltmp16:
.Lfunc_end0:
	.size	xEventGroupCreateStatic, .Lfunc_end0-xEventGroupCreateStatic
	.cfi_endproc
	.cantunwind
	.fnend
                                        @ -- End function
	.section	.text.xEventGroupCreate,"ax",%progbits
	.hidden	xEventGroupCreate               @ -- Begin function xEventGroupCreate
	.globl	xEventGroupCreate
	.p2align	1
	.type	xEventGroupCreate,%function
	.code	16                              @ @xEventGroupCreate
	.thumb_func
xEventGroupCreate:
.Lfunc_begin1:
	.loc	4 147 0 is_stmt 1               @ ../../../../../../kernel/freertos/Source/event_groups.c:147:0
	.fnstart
	.cfi_startproc
@ %bb.0:
	.save	{r4, r5, r7, lr}
	push	{r4, r5, r7, lr}
	.cfi_def_cfa_offset 16
	.cfi_offset lr, -4
	.cfi_offset r7, -8
	.cfi_offset r5, -12
	.cfi_offset r4, -16
	movs	r0, #32
.Ltmp17:
	.loc	4 163 42 prologue_end           @ ../../../../../../kernel/freertos/Source/event_groups.c:163:42
	bl	pvPortMalloc
.Ltmp18:
	mov	r4, r0
.Ltmp19:
	@DEBUG_VALUE: xEventGroupCreate:pxEventBits <- $r4
	.loc	4 165 13                        @ ../../../../../../kernel/freertos/Source/event_groups.c:165:13
	cmp	r0, #0
	beq	.LBB1_2
.Ltmp20:
@ %bb.1:
	@DEBUG_VALUE: xEventGroupCreate:pxEventBits <- $r4
	.loc	4 0 13 is_stmt 0                @ ../../../../../../kernel/freertos/Source/event_groups.c:0:13
	movs	r5, #0
.Ltmp21:
	.loc	4 167 38 is_stmt 1              @ ../../../../../../kernel/freertos/Source/event_groups.c:167:38
	str	r5, [r4]
	.loc	4 168 46                        @ ../../../../../../kernel/freertos/Source/event_groups.c:168:46
	adds	r0, r4, #4
	.loc	4 168 13 is_stmt 0              @ ../../../../../../kernel/freertos/Source/event_groups.c:168:13
	bl	vListInitialise
.Ltmp22:
	.loc	4 175 56 is_stmt 1              @ ../../../../../../kernel/freertos/Source/event_groups.c:175:56
	strb	r5, [r4, #28]
.Ltmp23:
.LBB1_2:
	@DEBUG_VALUE: xEventGroupCreate:pxEventBits <- $r4
	.loc	4 186 9                         @ ../../../../../../kernel/freertos/Source/event_groups.c:186:9
	mov	r0, r4
.Ltmp24:
	@DEBUG_VALUE: xEventGroupCreate:pxEventBits <- $r0
	.loc	4 186 9 epilogue_begin is_stmt 0 @ ../../../../../../kernel/freertos/Source/event_groups.c:186:9
	pop	{r4, r5, r7, pc}
.Ltmp25:
.Lfunc_end1:
	.size	xEventGroupCreate, .Lfunc_end1-xEventGroupCreate
	.cfi_endproc
	.cantunwind
	.fnend
                                        @ -- End function
	.section	.text.xEventGroupSync,"ax",%progbits
	.hidden	xEventGroupSync                 @ -- Begin function xEventGroupSync
	.globl	xEventGroupSync
	.p2align	2
	.type	xEventGroupSync,%function
	.code	16                              @ @xEventGroupSync
	.thumb_func
xEventGroupSync:
.Lfunc_begin2:
	.loc	4 196 0 is_stmt 1               @ ../../../../../../kernel/freertos/Source/event_groups.c:196:0
	.fnstart
	.cfi_startproc
@ %bb.0:
	@DEBUG_VALUE: xEventGroupSync:xEventGroup <- $r0
	@DEBUG_VALUE: xEventGroupSync:uxBitsToSet <- $r1
	@DEBUG_VALUE: xEventGroupSync:uxBitsToWaitFor <- $r2
	@DEBUG_VALUE: xEventGroupSync:xTicksToWait <- $r3
	@DEBUG_VALUE: xEventGroupSync:xTicksToWait <- $r3
	@DEBUG_VALUE: xEventGroupSync:uxBitsToWaitFor <- $r2
	@DEBUG_VALUE: xEventGroupSync:uxBitsToSet <- $r1
	.save	{r4, r5, r6, r7, lr}
	push	{r4, r5, r6, r7, lr}
	.cfi_def_cfa_offset 20
	.cfi_offset lr, -4
	.cfi_offset r7, -8
	.cfi_offset r6, -12
	.cfi_offset r5, -16
	.cfi_offset r4, -20
	.pad	#4
	sub	sp, #4
	.cfi_def_cfa_offset 24
	mov	r4, r0
.Ltmp26:
	@DEBUG_VALUE: xEventGroupSync:xTimeoutOccurred <- 0
	@DEBUG_VALUE: xEventGroupSync:pxEventBits <- undef
	@DEBUG_VALUE: xEventGroupSync:xEventGroup <- $r4
	.loc	4 202 5 prologue_end            @ ../../../../../../kernel/freertos/Source/event_groups.c:202:5
	lsrs	r0, r2, #24
	beq	.LBB2_3
.Ltmp27:
@ %bb.1:
	@DEBUG_VALUE: xEventGroupSync:xEventGroup <- $r4
	@DEBUG_VALUE: xEventGroupSync:xTimeoutOccurred <- 0
	@DEBUG_VALUE: xEventGroupSync:xTicksToWait <- $r3
	@DEBUG_VALUE: xEventGroupSync:uxBitsToWaitFor <- $r2
	@DEBUG_VALUE: xEventGroupSync:uxBitsToSet <- $r1
	.loc	4 202 5 is_stmt 0               @ ../../../../../../kernel/freertos/Source/event_groups.c:202:5
	@APP
	cpsid i
	@NO_APP
.Ltmp28:
.LBB2_2:                                @ =>This Inner Loop Header: Depth=1
	@DEBUG_VALUE: xEventGroupSync:xEventGroup <- $r4
	@DEBUG_VALUE: xEventGroupSync:xTimeoutOccurred <- 0
	@DEBUG_VALUE: xEventGroupSync:xTicksToWait <- $r3
	@DEBUG_VALUE: xEventGroupSync:uxBitsToWaitFor <- $r2
	@DEBUG_VALUE: xEventGroupSync:uxBitsToSet <- $r1
	.loc	4 202 5                         @ ../../../../../../kernel/freertos/Source/event_groups.c:202:5
	b	.LBB2_2
.Ltmp29:
.LBB2_3:
	@DEBUG_VALUE: xEventGroupSync:xEventGroup <- $r4
	@DEBUG_VALUE: xEventGroupSync:xTimeoutOccurred <- 0
	@DEBUG_VALUE: xEventGroupSync:xTicksToWait <- $r3
	@DEBUG_VALUE: xEventGroupSync:uxBitsToWaitFor <- $r2
	@DEBUG_VALUE: xEventGroupSync:uxBitsToSet <- $r1
	@DEBUG_VALUE: xEventGroupSync:xTicksToWait <- $r3
	.loc	4 0 5                           @ ../../../../../../kernel/freertos/Source/event_groups.c:0:5
	mov	r5, r2
.Ltmp30:
	@DEBUG_VALUE: xEventGroupSync:uxBitsToWaitFor <- $r5
	@DEBUG_VALUE: xEventGroupSync:uxBitsToSet <- $r1
	.loc	4 203 5 is_stmt 1               @ ../../../../../../kernel/freertos/Source/event_groups.c:203:5
	cmp	r2, #0
	beq	.LBB2_8
.Ltmp31:
@ %bb.4:
	@DEBUG_VALUE: xEventGroupSync:uxBitsToWaitFor <- $r5
	@DEBUG_VALUE: xEventGroupSync:xEventGroup <- $r4
	@DEBUG_VALUE: xEventGroupSync:xTimeoutOccurred <- 0
	@DEBUG_VALUE: xEventGroupSync:xTicksToWait <- $r3
	@DEBUG_VALUE: xEventGroupSync:uxBitsToSet <- $r1
	.loc	4 0 5 is_stmt 0                 @ ../../../../../../kernel/freertos/Source/event_groups.c:0:5
	mov	r7, r3
.Ltmp32:
	@DEBUG_VALUE: xEventGroupSync:xTicksToWait <- $r7
	mov	r6, r1
.Ltmp33:
	@DEBUG_VALUE: xEventGroupSync:uxBitsToSet <- $r6
	.loc	4 206 13 is_stmt 1              @ ../../../../../../kernel/freertos/Source/event_groups.c:206:13
	bl	xTaskGetSchedulerState
.Ltmp34:
	.loc	4 206 13 is_stmt 0              @ ../../../../../../kernel/freertos/Source/event_groups.c:206:13
	cmp	r7, #0
	beq	.LBB2_10
.Ltmp35:
@ %bb.5:
	@DEBUG_VALUE: xEventGroupSync:uxBitsToSet <- $r6
	@DEBUG_VALUE: xEventGroupSync:xTicksToWait <- $r7
	@DEBUG_VALUE: xEventGroupSync:uxBitsToWaitFor <- $r5
	@DEBUG_VALUE: xEventGroupSync:xEventGroup <- $r4
	@DEBUG_VALUE: xEventGroupSync:xTimeoutOccurred <- 0
	cmp	r0, #0
	bne	.LBB2_10
.Ltmp36:
@ %bb.6:
	@DEBUG_VALUE: xEventGroupSync:uxBitsToSet <- $r6
	@DEBUG_VALUE: xEventGroupSync:xTicksToWait <- $r7
	@DEBUG_VALUE: xEventGroupSync:uxBitsToWaitFor <- $r5
	@DEBUG_VALUE: xEventGroupSync:xEventGroup <- $r4
	@DEBUG_VALUE: xEventGroupSync:xTimeoutOccurred <- 0
	.loc	4 206 13                        @ ../../../../../../kernel/freertos/Source/event_groups.c:206:13
	@APP
	cpsid i
	@NO_APP
.Ltmp37:
.LBB2_7:                                @ =>This Inner Loop Header: Depth=1
	@DEBUG_VALUE: xEventGroupSync:uxBitsToSet <- $r6
	@DEBUG_VALUE: xEventGroupSync:xTicksToWait <- $r7
	@DEBUG_VALUE: xEventGroupSync:uxBitsToWaitFor <- $r5
	@DEBUG_VALUE: xEventGroupSync:xEventGroup <- $r4
	@DEBUG_VALUE: xEventGroupSync:xTimeoutOccurred <- 0
	.loc	4 206 13                        @ ../../../../../../kernel/freertos/Source/event_groups.c:206:13
	b	.LBB2_7
.Ltmp38:
.LBB2_8:
	@DEBUG_VALUE: xEventGroupSync:uxBitsToWaitFor <- $r5
	@DEBUG_VALUE: xEventGroupSync:xEventGroup <- $r4
	@DEBUG_VALUE: xEventGroupSync:xTimeoutOccurred <- 0
	@DEBUG_VALUE: xEventGroupSync:xTicksToWait <- $r3
	@DEBUG_VALUE: xEventGroupSync:uxBitsToSet <- $r1
	.loc	4 203 5 is_stmt 1               @ ../../../../../../kernel/freertos/Source/event_groups.c:203:5
	@APP
	cpsid i
	@NO_APP
.Ltmp39:
.LBB2_9:                                @ =>This Inner Loop Header: Depth=1
	@DEBUG_VALUE: xEventGroupSync:uxBitsToWaitFor <- $r5
	@DEBUG_VALUE: xEventGroupSync:xEventGroup <- $r4
	@DEBUG_VALUE: xEventGroupSync:xTimeoutOccurred <- 0
	@DEBUG_VALUE: xEventGroupSync:xTicksToWait <- $r3
	@DEBUG_VALUE: xEventGroupSync:uxBitsToSet <- $r1
	.loc	4 203 5 is_stmt 0               @ ../../../../../../kernel/freertos/Source/event_groups.c:203:5
	b	.LBB2_9
.Ltmp40:
.LBB2_10:
	@DEBUG_VALUE: xEventGroupSync:uxBitsToSet <- $r6
	@DEBUG_VALUE: xEventGroupSync:xTicksToWait <- $r7
	@DEBUG_VALUE: xEventGroupSync:uxBitsToWaitFor <- $r5
	@DEBUG_VALUE: xEventGroupSync:xEventGroup <- $r4
	@DEBUG_VALUE: xEventGroupSync:xTimeoutOccurred <- 0
	.loc	4 210 5 is_stmt 1               @ ../../../../../../kernel/freertos/Source/event_groups.c:210:5
	bl	vTaskSuspendAll
.Ltmp41:
	.loc	4 0 5 is_stmt 0                 @ ../../../../../../kernel/freertos/Source/event_groups.c:0:5
	mov	r0, r4
.Ltmp42:
	.loc	4 212 43 is_stmt 1              @ ../../../../../../kernel/freertos/Source/event_groups.c:212:43
	ldr	r4, [r4]
.Ltmp43:
	@DEBUG_VALUE: xEventGroupSync:xEventGroup <- [DW_OP_LLVM_entry_value 1] $r0
	@DEBUG_VALUE: xEventGroupSync:uxOriginalBitValue <- $r4
	.loc	4 0 43 is_stmt 0                @ ../../../../../../kernel/freertos/Source/event_groups.c:0:43
	str	r0, [sp]                        @ 4-byte Spill
	.loc	4 214 18 is_stmt 1              @ ../../../../../../kernel/freertos/Source/event_groups.c:214:18
	mov	r1, r6
	bl	xEventGroupSetBits
.Ltmp44:
	.loc	4 216 36                        @ ../../../../../../kernel/freertos/Source/event_groups.c:216:36
	orrs	r4, r6
.Ltmp45:
	.loc	4 0 36 is_stmt 0                @ ../../../../../../kernel/freertos/Source/event_groups.c:0:36
	mov	r1, r4
	.loc	4 216 52                        @ ../../../../../../kernel/freertos/Source/event_groups.c:216:52
	ands	r4, r5
.Ltmp46:
	.loc	4 216 13                        @ ../../../../../../kernel/freertos/Source/event_groups.c:216:13
	cmp	r4, r5
	bne	.LBB2_12
.Ltmp47:
@ %bb.11:
	@DEBUG_VALUE: xEventGroupSync:xEventGroup <- [DW_OP_LLVM_entry_value 1] $r0
	@DEBUG_VALUE: xEventGroupSync:uxBitsToSet <- $r6
	@DEBUG_VALUE: xEventGroupSync:xTicksToWait <- $r7
	@DEBUG_VALUE: xEventGroupSync:uxBitsToWaitFor <- $r5
	@DEBUG_VALUE: xEventGroupSync:xTimeoutOccurred <- 0
	@DEBUG_VALUE: xEventGroupSync:uxReturn <- $r1
	.loc	4 0 13                          @ ../../../../../../kernel/freertos/Source/event_groups.c:0:13
	ldr	r2, [sp]                        @ 4-byte Reload
.Ltmp48:
	.loc	4 223 38 is_stmt 1              @ ../../../../../../kernel/freertos/Source/event_groups.c:223:38
	ldr	r0, [r2]
	bics	r0, r5
	str	r0, [r2]
.Ltmp49:
	@DEBUG_VALUE: xEventGroupSync:xTicksToWait <- 0
	.loc	4 0 38 is_stmt 0                @ ../../../../../../kernel/freertos/Source/event_groups.c:0:38
	mov	r7, r1
.Ltmp50:
	@DEBUG_VALUE: xEventGroupSync:uxReturn <- $r7
	@DEBUG_VALUE: xEventGroupSync:uxReturn <- $r7
	@DEBUG_VALUE: xEventGroupSync:xTicksToWait <- undef
	@DEBUG_VALUE: xEventGroupSync:xTimeoutOccurred <- undef
	@DEBUG_VALUE: xEventGroupSync:uxReturn <- $r7
	b	.LBB2_21
.Ltmp51:
.LBB2_12:
	@DEBUG_VALUE: xEventGroupSync:xEventGroup <- [DW_OP_LLVM_entry_value 1] $r0
	@DEBUG_VALUE: xEventGroupSync:uxBitsToSet <- $r6
	@DEBUG_VALUE: xEventGroupSync:xTicksToWait <- $r7
	@DEBUG_VALUE: xEventGroupSync:uxBitsToWaitFor <- $r5
	@DEBUG_VALUE: xEventGroupSync:xTimeoutOccurred <- 0
	ldr	r4, [sp]                        @ 4-byte Reload
.Ltmp52:
	.loc	4 229 17 is_stmt 1              @ ../../../../../../kernel/freertos/Source/event_groups.c:229:17
	cmp	r7, #0
	beq	.LBB2_20
.Ltmp53:
@ %bb.13:
	@DEBUG_VALUE: xEventGroupSync:xEventGroup <- [DW_OP_LLVM_entry_value 1] $r0
	@DEBUG_VALUE: xEventGroupSync:uxBitsToSet <- $r6
	@DEBUG_VALUE: xEventGroupSync:xTicksToWait <- $r7
	@DEBUG_VALUE: xEventGroupSync:uxBitsToWaitFor <- $r5
	@DEBUG_VALUE: xEventGroupSync:xTimeoutOccurred <- 0
	.loc	4 0 17 is_stmt 0                @ ../../../../../../kernel/freertos/Source/event_groups.c:0:17
	movs	r0, #5
	lsls	r1, r0, #24
.Ltmp54:
	.loc	4 236 139 is_stmt 1             @ ../../../../../../kernel/freertos/Source/event_groups.c:236:139
	orrs	r1, r5
	.loc	4 236 65 is_stmt 0              @ ../../../../../../kernel/freertos/Source/event_groups.c:236:65
	adds	r0, r4, #4
	.loc	4 236 17                        @ ../../../../../../kernel/freertos/Source/event_groups.c:236:17
	mov	r2, r7
	bl	vTaskPlaceOnUnorderedEventList
.Ltmp55:
	@DEBUG_VALUE: xEventGroupSync:uxReturn <- 0
	@DEBUG_VALUE: xEventGroupSync:xTimeoutOccurred <- undef
	@DEBUG_VALUE: xEventGroupSync:xTicksToWait <- undef
	.loc	4 253 23 is_stmt 1              @ ../../../../../../kernel/freertos/Source/event_groups.c:253:23
	bl	xTaskResumeAll
.Ltmp56:
	@DEBUG_VALUE: xEventGroupSync:xAlreadyYielded <- $r0
	.loc	4 257 13                        @ ../../../../../../kernel/freertos/Source/event_groups.c:257:13
	cmp	r0, #0
	bne	.LBB2_15
.Ltmp57:
@ %bb.14:
	@DEBUG_VALUE: xEventGroupSync:xAlreadyYielded <- $r0
	@DEBUG_VALUE: xEventGroupSync:uxReturn <- 0
	@DEBUG_VALUE: xEventGroupSync:xEventGroup <- [DW_OP_LLVM_entry_value 1] $r0
	@DEBUG_VALUE: xEventGroupSync:uxBitsToSet <- $r6
	@DEBUG_VALUE: xEventGroupSync:uxBitsToWaitFor <- $r5
	.loc	4 259 13                        @ ../../../../../../kernel/freertos/Source/event_groups.c:259:13
	bl	vPortYield
.Ltmp58:
.LBB2_15:
	@DEBUG_VALUE: xEventGroupSync:uxReturn <- 0
	@DEBUG_VALUE: xEventGroupSync:xEventGroup <- [DW_OP_LLVM_entry_value 1] $r0
	@DEBUG_VALUE: xEventGroupSync:uxBitsToSet <- $r6
	@DEBUG_VALUE: xEventGroupSync:uxBitsToWaitFor <- $r5
	.loc	4 0 13 is_stmt 0                @ ../../../../../../kernel/freertos/Source/event_groups.c:0:13
	ldr	r6, __arm_cp.2_0
.Ltmp59:
	.loc	4 270 20 is_stmt 1              @ ../../../../../../kernel/freertos/Source/event_groups.c:270:20
	bl	uxTaskResetEventItemValue
.Ltmp60:
	mov	r7, r0
.Ltmp61:
	@DEBUG_VALUE: xEventGroupSync:uxReturn <- $r7
	.loc	4 272 13                        @ ../../../../../../kernel/freertos/Source/event_groups.c:272:13
	lsls	r0, r0, #6
	bmi	.LBB2_19
.Ltmp62:
@ %bb.16:
	@DEBUG_VALUE: xEventGroupSync:uxReturn <- $r7
	@DEBUG_VALUE: xEventGroupSync:xEventGroup <- [DW_OP_LLVM_entry_value 1] $r0
	@DEBUG_VALUE: xEventGroupSync:uxBitsToWaitFor <- $r5
	.loc	4 275 13                        @ ../../../../../../kernel/freertos/Source/event_groups.c:275:13
	bl	vPortEnterCritical
.Ltmp63:
	.loc	4 277 41                        @ ../../../../../../kernel/freertos/Source/event_groups.c:277:41
	ldr	r7, [r4]
.Ltmp64:
	@DEBUG_VALUE: xEventGroupSync:uxReturn <- $r7
	.loc	4 283 32                        @ ../../../../../../kernel/freertos/Source/event_groups.c:283:32
	mov	r0, r7
	ands	r0, r5
.Ltmp65:
	.loc	4 283 21 is_stmt 0              @ ../../../../../../kernel/freertos/Source/event_groups.c:283:21
	cmp	r0, r5
	bne	.LBB2_18
.Ltmp66:
@ %bb.17:
	@DEBUG_VALUE: xEventGroupSync:uxReturn <- $r7
	@DEBUG_VALUE: xEventGroupSync:xEventGroup <- [DW_OP_LLVM_entry_value 1] $r0
	@DEBUG_VALUE: xEventGroupSync:uxBitsToWaitFor <- $r5
	.loc	4 285 46 is_stmt 1              @ ../../../../../../kernel/freertos/Source/event_groups.c:285:46
	mov	r0, r7
	bics	r0, r5
	str	r0, [r4]
.Ltmp67:
.LBB2_18:
	@DEBUG_VALUE: xEventGroupSync:uxReturn <- $r7
	@DEBUG_VALUE: xEventGroupSync:xEventGroup <- [DW_OP_LLVM_entry_value 1] $r0
	@DEBUG_VALUE: xEventGroupSync:uxBitsToWaitFor <- $r5
	.loc	4 292 13                        @ ../../../../../../kernel/freertos/Source/event_groups.c:292:13
	bl	vPortExitCritical
.Ltmp68:
	@DEBUG_VALUE: xEventGroupSync:xTimeoutOccurred <- 1
.LBB2_19:
	@DEBUG_VALUE: xEventGroupSync:uxReturn <- $r7
	@DEBUG_VALUE: xEventGroupSync:xEventGroup <- [DW_OP_LLVM_entry_value 1] $r0
	@DEBUG_VALUE: xEventGroupSync:uxBitsToWaitFor <- $r5
	@DEBUG_VALUE: xEventGroupSync:xTimeoutOccurred <- undef
	@DEBUG_VALUE: xEventGroupSync:uxReturn <- $r7
	.loc	4 303 18                        @ ../../../../../../kernel/freertos/Source/event_groups.c:303:18
	ands	r7, r6
.Ltmp69:
	.loc	4 0 18 is_stmt 0                @ ../../../../../../kernel/freertos/Source/event_groups.c:0:18
	b	.LBB2_22
.Ltmp70:
.LBB2_20:
	@DEBUG_VALUE: xEventGroupSync:xEventGroup <- [DW_OP_LLVM_entry_value 1] $r0
	@DEBUG_VALUE: xEventGroupSync:uxBitsToSet <- $r6
	@DEBUG_VALUE: xEventGroupSync:xTicksToWait <- $r7
	@DEBUG_VALUE: xEventGroupSync:uxBitsToWaitFor <- $r5
	@DEBUG_VALUE: xEventGroupSync:xTimeoutOccurred <- 0
	.loc	4 248 41 is_stmt 1              @ ../../../../../../kernel/freertos/Source/event_groups.c:248:41
	ldr	r7, [r4]
.Ltmp71:
	@DEBUG_VALUE: xEventGroupSync:uxReturn <- $r7
	@DEBUG_VALUE: xEventGroupSync:xTimeoutOccurred <- 1
	@DEBUG_VALUE: xEventGroupSync:xTicksToWait <- undef
	@DEBUG_VALUE: xEventGroupSync:xTimeoutOccurred <- undef
	@DEBUG_VALUE: xEventGroupSync:uxReturn <- $r7
.LBB2_21:
	@DEBUG_VALUE: xEventGroupSync:uxReturn <- $r7
	@DEBUG_VALUE: xEventGroupSync:xEventGroup <- [DW_OP_LLVM_entry_value 1] $r0
	@DEBUG_VALUE: xEventGroupSync:uxBitsToSet <- $r6
	@DEBUG_VALUE: xEventGroupSync:uxBitsToWaitFor <- $r5
	.loc	4 253 23                        @ ../../../../../../kernel/freertos/Source/event_groups.c:253:23
	bl	xTaskResumeAll
.Ltmp72:
	@DEBUG_VALUE: xEventGroupSync:xAlreadyYielded <- undef
.LBB2_22:
	@DEBUG_VALUE: xEventGroupSync:xEventGroup <- [DW_OP_LLVM_entry_value 1] $r0
	@DEBUG_VALUE: xEventGroupSync:uxBitsToWaitFor <- $r5
	@DEBUG_VALUE: xEventGroupSync:xTimeoutOccurred <- undef
	@DEBUG_VALUE: xEventGroupSync:uxReturn <- $r7
	.loc	4 311 5                         @ ../../../../../../kernel/freertos/Source/event_groups.c:311:5
	mov	r0, r7
.Ltmp73:
	@DEBUG_VALUE: xEventGroupSync:uxReturn <- $r0
	.loc	4 311 5 epilogue_begin is_stmt 0 @ ../../../../../../kernel/freertos/Source/event_groups.c:311:5
	add	sp, #4
	pop	{r4, r5, r6, r7, pc}
.Ltmp74:
	.p2align	2
@ %bb.23:
	.loc	4 0 5                           @ ../../../../../../kernel/freertos/Source/event_groups.c:0:5
__arm_cp.2_0:
	.long	16777215                        @ 0xffffff
.Lcpi_end0:
	.size	__arm_cp.2_0, .Lcpi_end0-__arm_cp.2_0
.Lfunc_end2:
	.size	xEventGroupSync, .Lfunc_end2-xEventGroupSync
	.cfi_endproc
	.cantunwind
	.fnend
                                        @ -- End function
	.section	.text.xEventGroupSetBits,"ax",%progbits
	.hidden	xEventGroupSetBits              @ -- Begin function xEventGroupSetBits
	.globl	xEventGroupSetBits
	.p2align	2
	.type	xEventGroupSetBits,%function
	.code	16                              @ @xEventGroupSetBits
	.thumb_func
xEventGroupSetBits:
.Lfunc_begin3:
	.loc	4 533 0 is_stmt 1               @ ../../../../../../kernel/freertos/Source/event_groups.c:533:0
	.fnstart
	.cfi_startproc
@ %bb.0:
	@DEBUG_VALUE: xEventGroupSetBits:xEventGroup <- $r0
	@DEBUG_VALUE: xEventGroupSetBits:uxBitsToSet <- $r1
	@DEBUG_VALUE: xEventGroupSetBits:uxBitsToSet <- $r1
	@DEBUG_VALUE: xEventGroupSetBits:xEventGroup <- $r0
	.save	{r4, r5, r6, r7, lr}
	push	{r4, r5, r6, r7, lr}
	.cfi_def_cfa_offset 20
	.cfi_offset lr, -4
	.cfi_offset r7, -8
	.cfi_offset r6, -12
	.cfi_offset r5, -16
	.cfi_offset r4, -20
	.pad	#12
	sub	sp, #12
	.cfi_def_cfa_offset 32
.Ltmp75:
	@DEBUG_VALUE: xEventGroupSetBits:pxEventBits <- $r0
	@DEBUG_VALUE: xEventGroupSetBits:xMatchFound <- 0
	@DEBUG_VALUE: xEventGroupSetBits:uxBitsToClear <- 0
	@DEBUG_VALUE: xEventGroupSetBits:pxEventBits <- $r0
	.loc	4 543 5 prologue_end            @ ../../../../../../kernel/freertos/Source/event_groups.c:543:5
	cmp	r0, #0
	beq	.LBB3_4
.Ltmp76:
@ %bb.1:
	@DEBUG_VALUE: xEventGroupSetBits:uxBitsToClear <- 0
	@DEBUG_VALUE: xEventGroupSetBits:xMatchFound <- 0
	@DEBUG_VALUE: xEventGroupSetBits:pxEventBits <- $r0
	@DEBUG_VALUE: xEventGroupSetBits:uxBitsToSet <- $r1
	@DEBUG_VALUE: xEventGroupSetBits:xEventGroup <- $r0
	.loc	4 0 5 is_stmt 0                 @ ../../../../../../kernel/freertos/Source/event_groups.c:0:5
	mov	r5, r1
.Ltmp77:
	@DEBUG_VALUE: xEventGroupSetBits:uxBitsToSet <- $r5
	mov	r4, r0
.Ltmp78:
	@DEBUG_VALUE: xEventGroupSetBits:xEventGroup <- $r4
	@DEBUG_VALUE: xEventGroupSetBits:pxEventBits <- $r4
	.loc	4 544 5 is_stmt 1               @ ../../../../../../kernel/freertos/Source/event_groups.c:544:5
	lsrs	r0, r1, #24
	beq	.LBB3_6
.Ltmp79:
@ %bb.2:
	@DEBUG_VALUE: xEventGroupSetBits:pxEventBits <- $r4
	@DEBUG_VALUE: xEventGroupSetBits:xEventGroup <- $r4
	@DEBUG_VALUE: xEventGroupSetBits:uxBitsToSet <- $r5
	@DEBUG_VALUE: xEventGroupSetBits:uxBitsToClear <- 0
	@DEBUG_VALUE: xEventGroupSetBits:xMatchFound <- 0
	.loc	4 544 5 is_stmt 0               @ ../../../../../../kernel/freertos/Source/event_groups.c:544:5
	@APP
	cpsid i
	@NO_APP
.Ltmp80:
.LBB3_3:                                @ =>This Inner Loop Header: Depth=1
	@DEBUG_VALUE: xEventGroupSetBits:pxEventBits <- $r4
	@DEBUG_VALUE: xEventGroupSetBits:xEventGroup <- $r4
	@DEBUG_VALUE: xEventGroupSetBits:uxBitsToSet <- $r5
	@DEBUG_VALUE: xEventGroupSetBits:uxBitsToClear <- 0
	@DEBUG_VALUE: xEventGroupSetBits:xMatchFound <- 0
	.loc	4 544 5                         @ ../../../../../../kernel/freertos/Source/event_groups.c:544:5
	b	.LBB3_3
.Ltmp81:
.LBB3_4:
	@DEBUG_VALUE: xEventGroupSetBits:uxBitsToClear <- 0
	@DEBUG_VALUE: xEventGroupSetBits:xMatchFound <- 0
	@DEBUG_VALUE: xEventGroupSetBits:pxEventBits <- $r0
	@DEBUG_VALUE: xEventGroupSetBits:uxBitsToSet <- $r1
	@DEBUG_VALUE: xEventGroupSetBits:xEventGroup <- $r0
	.loc	4 543 5 is_stmt 1               @ ../../../../../../kernel/freertos/Source/event_groups.c:543:5
	@APP
	cpsid i
	@NO_APP
.Ltmp82:
.LBB3_5:                                @ =>This Inner Loop Header: Depth=1
	@DEBUG_VALUE: xEventGroupSetBits:uxBitsToClear <- 0
	@DEBUG_VALUE: xEventGroupSetBits:xMatchFound <- 0
	@DEBUG_VALUE: xEventGroupSetBits:pxEventBits <- $r0
	@DEBUG_VALUE: xEventGroupSetBits:uxBitsToSet <- $r1
	@DEBUG_VALUE: xEventGroupSetBits:xEventGroup <- $r0
	.loc	4 543 5 is_stmt 0               @ ../../../../../../kernel/freertos/Source/event_groups.c:543:5
	b	.LBB3_5
.Ltmp83:
.LBB3_6:
	@DEBUG_VALUE: xEventGroupSetBits:pxEventBits <- $r4
	@DEBUG_VALUE: xEventGroupSetBits:xEventGroup <- $r4
	@DEBUG_VALUE: xEventGroupSetBits:uxBitsToSet <- $r5
	@DEBUG_VALUE: xEventGroupSetBits:uxBitsToClear <- 0
	@DEBUG_VALUE: xEventGroupSetBits:xMatchFound <- 0
	@DEBUG_VALUE: xEventGroupSetBits:pxList <- [DW_OP_plus_uconst 4, DW_OP_stack_value] $r4
	.loc	4 548 5 is_stmt 1               @ ../../../../../../kernel/freertos/Source/event_groups.c:548:5
	bl	vTaskSuspendAll
.Ltmp84:
	.loc	4 555 34                        @ ../../../../../../kernel/freertos/Source/event_groups.c:555:34
	ldr	r0, [r4]
	orrs	r0, r5
	str	r0, [r4]
	movs	r6, #0
.Ltmp85:
	.loc	4 547 17                        @ ../../../../../../kernel/freertos/Source/event_groups.c:547:17
	mov	r1, r4
	adds	r1, #12
.Ltmp86:
	@DEBUG_VALUE: xEventGroupSetBits:pxListEnd <- $r1
	.loc	4 552 22                        @ ../../../../../../kernel/freertos/Source/event_groups.c:552:22
	ldr	r7, [r4, #16]
.Ltmp87:
	@DEBUG_VALUE: xEventGroupSetBits:pxListItem <- $r7
	@DEBUG_VALUE: xEventGroupSetBits:uxBitsToClear <- 0
	.loc	4 0 22 is_stmt 0                @ ../../../../../../kernel/freertos/Source/event_groups.c:0:22
	str	r1, [sp, #4]                    @ 4-byte Spill
.Ltmp88:
	@DEBUG_VALUE: xEventGroupSetBits:pxListEnd <- [DW_OP_plus_uconst 4] [$sp+0]
	.loc	4 558 9 is_stmt 1               @ ../../../../../../kernel/freertos/Source/event_groups.c:558:9
	cmp	r7, r1
	beq	.LBB3_16
.Ltmp89:
@ %bb.7:
	@DEBUG_VALUE: xEventGroupSetBits:pxListEnd <- [DW_OP_plus_uconst 4] [$sp+0]
	@DEBUG_VALUE: xEventGroupSetBits:pxListItem <- $r7
	@DEBUG_VALUE: xEventGroupSetBits:pxList <- [DW_OP_plus_uconst 4, DW_OP_stack_value] $r4
	@DEBUG_VALUE: xEventGroupSetBits:pxEventBits <- $r4
	@DEBUG_VALUE: xEventGroupSetBits:xEventGroup <- $r4
	@DEBUG_VALUE: xEventGroupSetBits:uxBitsToSet <- $r5
	@DEBUG_VALUE: xEventGroupSetBits:uxBitsToClear <- 0
	@DEBUG_VALUE: xEventGroupSetBits:xMatchFound <- 0
	.loc	4 0 9 is_stmt 0                 @ ../../../../../../kernel/freertos/Source/event_groups.c:0:9
	str	r4, [sp, #8]                    @ 4-byte Spill
.Ltmp90:
	@DEBUG_VALUE: xEventGroupSetBits:xEventGroup <- [DW_OP_plus_uconst 8] [$sp+0]
	b	.LBB3_10
.Ltmp91:
.LBB3_8:                                @   in Loop: Header=BB3_10 Depth=1
	@DEBUG_VALUE: xEventGroupSetBits:pxNext <- $r7
	@DEBUG_VALUE: xEventGroupSetBits:uxBitsWaitedFor <- $r6
	@DEBUG_VALUE: xEventGroupSetBits:uxBitsToClear <- $r6
	@DEBUG_VALUE: xEventGroupSetBits:pxListEnd <- [DW_OP_plus_uconst 4] [$sp+0]
	.loc	4 593 21 is_stmt 1              @ ../../../../../../kernel/freertos/Source/event_groups.c:593:21
	orrs	r6, r5
.Ltmp92:
	@DEBUG_VALUE: xEventGroupSetBits:uxBitsToClear <- $r6
.LBB3_9:                                @   in Loop: Header=BB3_10 Depth=1
	@DEBUG_VALUE: xEventGroupSetBits:pxNext <- $r7
	@DEBUG_VALUE: xEventGroupSetBits:uxBitsToClear <- $r6
	@DEBUG_VALUE: xEventGroupSetBits:pxListEnd <- [DW_OP_plus_uconst 4] [$sp+0]
	@DEBUG_VALUE: xEventGroupSetBits:uxBitsToClear <- $r6
	@DEBUG_VALUE: xEventGroupSetBits:pxListItem <- $r7
	.loc	4 558 9                         @ ../../../../../../kernel/freertos/Source/event_groups.c:558:9
	ldr	r0, [sp, #4]                    @ 4-byte Reload
	cmp	r7, r0
	beq	.LBB3_15
.Ltmp93:
.LBB3_10:                               @ =>This Inner Loop Header: Depth=1
	@DEBUG_VALUE: xEventGroupSetBits:pxListEnd <- [DW_OP_plus_uconst 4] [$sp+0]
	@DEBUG_VALUE: xEventGroupSetBits:pxListItem <- $r7
	.loc	4 0 9 is_stmt 0                 @ ../../../../../../kernel/freertos/Source/event_groups.c:0:9
	mov	r0, r7
.Ltmp94:
	@DEBUG_VALUE: xEventGroupSetBits:uxControlBits <- [DW_OP_constu 18446744073692774400, DW_OP_and, DW_OP_stack_value] undef
	@DEBUG_VALUE: xEventGroupSetBits:uxBitsWaitedFor <- undef
	@DEBUG_VALUE: xEventGroupSetBits:pxListItem <- $r0
	@DEBUG_VALUE: xEventGroupSetBits:xMatchFound <- 0
	@DEBUG_VALUE: xEventGroupSetBits:uxBitsToClear <- $r6
	@DEBUG_VALUE: xEventGroupSetBits:uxControlBits <- [DW_OP_constu 18446744073692774400, DW_OP_and, DW_OP_stack_value] $r4
	@DEBUG_VALUE: xEventGroupSetBits:uxBitsWaitedFor <- $r4
	.loc	4 561 31 is_stmt 1              @ ../../../../../../kernel/freertos/Source/event_groups.c:561:31
	ldm	r7, {r4, r7}
.Ltmp95:
	.loc	4 566 29                        @ ../../../../../../kernel/freertos/Source/event_groups.c:566:29
	mov	r5, r4
.Ltmp96:
	@DEBUG_VALUE: xEventGroupSetBits:uxBitsToSet <- [DW_OP_LLVM_entry_value 1] $r1
	ldr	r1, __arm_cp.3_0
	ands	r5, r1
.Ltmp97:
	@DEBUG_VALUE: xEventGroupSetBits:uxBitsWaitedFor <- $r6
	.loc	4 0 0 is_stmt 0                 @ ../../../../../../kernel/freertos/Source/event_groups.c:0:0
	ldr	r1, [sp, #8]                    @ 4-byte Reload
.Ltmp98:
	@DEBUG_VALUE: xEventGroupSetBits:xEventGroup <- $r1
	ldr	r1, [r1]
.Ltmp99:
	@DEBUG_VALUE: xEventGroupSetBits:xEventGroup <- [DW_OP_LLVM_entry_value 1] $r0
	mov	r2, r1
	ands	r2, r5
.Ltmp100:
	@DEBUG_VALUE: xEventGroupSetBits:pxNext <- $r7
	@DEBUG_VALUE: xEventGroupSetBits:xMatchFound <- undef
	.loc	4 568 17 is_stmt 1              @ ../../../../../../kernel/freertos/Source/event_groups.c:568:17
	lsls	r3, r4, #5
	bmi	.LBB3_12
.Ltmp101:
@ %bb.11:                               @   in Loop: Header=BB3_10 Depth=1
	@DEBUG_VALUE: xEventGroupSetBits:pxNext <- $r7
	@DEBUG_VALUE: xEventGroupSetBits:uxBitsWaitedFor <- $r6
	@DEBUG_VALUE: xEventGroupSetBits:uxBitsToClear <- $r6
	@DEBUG_VALUE: xEventGroupSetBits:pxListItem <- $r0
	@DEBUG_VALUE: xEventGroupSetBits:pxListEnd <- [DW_OP_plus_uconst 4] [$sp+0]
	.loc	4 590 17                        @ ../../../../../../kernel/freertos/Source/event_groups.c:590:17
	cmp	r2, #0
	bne	.LBB3_13
	b	.LBB3_9
.Ltmp102:
.LBB3_12:                               @   in Loop: Header=BB3_10 Depth=1
	@DEBUG_VALUE: xEventGroupSetBits:pxNext <- $r7
	@DEBUG_VALUE: xEventGroupSetBits:uxBitsWaitedFor <- $r6
	@DEBUG_VALUE: xEventGroupSetBits:uxBitsToClear <- $r6
	@DEBUG_VALUE: xEventGroupSetBits:pxListItem <- $r0
	@DEBUG_VALUE: xEventGroupSetBits:pxListEnd <- [DW_OP_plus_uconst 4] [$sp+0]
	cmp	r2, r5
	bne	.LBB3_9
.Ltmp103:
.LBB3_13:                               @   in Loop: Header=BB3_10 Depth=1
	@DEBUG_VALUE: xEventGroupSetBits:pxNext <- $r7
	@DEBUG_VALUE: xEventGroupSetBits:uxBitsWaitedFor <- $r6
	@DEBUG_VALUE: xEventGroupSetBits:uxBitsToClear <- $r6
	@DEBUG_VALUE: xEventGroupSetBits:pxListItem <- $r0
	@DEBUG_VALUE: xEventGroupSetBits:pxListEnd <- [DW_OP_plus_uconst 4] [$sp+0]
	.loc	4 0 17 is_stmt 0                @ ../../../../../../kernel/freertos/Source/event_groups.c:0:17
	movs	r2, #1
	lsls	r2, r2, #25
.Ltmp104:
	.loc	4 607 89 is_stmt 1              @ ../../../../../../kernel/freertos/Source/event_groups.c:607:89
	orrs	r1, r2
	.loc	4 607 17 is_stmt 0              @ ../../../../../../kernel/freertos/Source/event_groups.c:607:17
	bl	vTaskRemoveFromUnorderedEventList
.Ltmp105:
	.loc	4 593 37 is_stmt 1              @ ../../../../../../kernel/freertos/Source/event_groups.c:593:37
	ldr	r0, __arm_cp.3_0
	adds	r0, r0, #1
	ands	r4, r0
.Ltmp106:
	.loc	4 593 21 is_stmt 0              @ ../../../../../../kernel/freertos/Source/event_groups.c:593:21
	bne	.LBB3_8
.Ltmp107:
@ %bb.14:                               @   in Loop: Header=BB3_10 Depth=1
	@DEBUG_VALUE: xEventGroupSetBits:pxNext <- $r7
	@DEBUG_VALUE: xEventGroupSetBits:uxBitsWaitedFor <- $r6
	@DEBUG_VALUE: xEventGroupSetBits:uxBitsToClear <- $r6
	@DEBUG_VALUE: xEventGroupSetBits:pxListEnd <- [DW_OP_plus_uconst 4] [$sp+0]
	.loc	4 0 21                          @ ../../../../../../kernel/freertos/Source/event_groups.c:0:21
	mov	r5, r4
	b	.LBB3_8
.Ltmp108:
.LBB3_15:
	@DEBUG_VALUE: xEventGroupSetBits:pxNext <- $r7
	@DEBUG_VALUE: xEventGroupSetBits:uxBitsToClear <- $r6
	@DEBUG_VALUE: xEventGroupSetBits:pxListEnd <- [DW_OP_plus_uconst 4] [$sp+0]
	@DEBUG_VALUE: xEventGroupSetBits:pxListItem <- $r7
	.loc	4 618 37 is_stmt 1              @ ../../../../../../kernel/freertos/Source/event_groups.c:618:37
	mvns	r1, r6
	ldr	r4, [sp, #8]                    @ 4-byte Reload
	.loc	4 618 34 is_stmt 0              @ ../../../../../../kernel/freertos/Source/event_groups.c:618:34
	ldr	r0, [r4]
	b	.LBB3_17
.Ltmp109:
.LBB3_16:
	@DEBUG_VALUE: xEventGroupSetBits:pxListEnd <- [DW_OP_plus_uconst 4] [$sp+0]
	@DEBUG_VALUE: xEventGroupSetBits:pxListItem <- $r7
	@DEBUG_VALUE: xEventGroupSetBits:pxList <- [DW_OP_plus_uconst 4, DW_OP_stack_value] $r4
	@DEBUG_VALUE: xEventGroupSetBits:pxEventBits <- $r4
	@DEBUG_VALUE: xEventGroupSetBits:xEventGroup <- $r4
	@DEBUG_VALUE: xEventGroupSetBits:uxBitsToSet <- $r5
	@DEBUG_VALUE: xEventGroupSetBits:uxBitsToClear <- 0
	@DEBUG_VALUE: xEventGroupSetBits:xMatchFound <- 0
	.loc	4 0 34                          @ ../../../../../../kernel/freertos/Source/event_groups.c:0:34
	mvns	r1, r6
.Ltmp110:
.LBB3_17:
	@DEBUG_VALUE: xEventGroupSetBits:pxListEnd <- [DW_OP_plus_uconst 4] [$sp+0]
	@DEBUG_VALUE: xEventGroupSetBits:pxListItem <- $r7
	.loc	4 618 34                        @ ../../../../../../kernel/freertos/Source/event_groups.c:618:34
	ands	r0, r1
	str	r0, [r4]
.Ltmp111:
	.loc	4 620 14 is_stmt 1              @ ../../../../../../kernel/freertos/Source/event_groups.c:620:14
	bl	xTaskResumeAll
.Ltmp112:
	.loc	4 622 25                        @ ../../../../../../kernel/freertos/Source/event_groups.c:622:25
	ldr	r0, [r4]
	.loc	4 622 5 epilogue_begin is_stmt 0 @ ../../../../../../kernel/freertos/Source/event_groups.c:622:5
	add	sp, #12
	pop	{r4, r5, r6, r7, pc}
.Ltmp113:
	.p2align	2
@ %bb.18:
	.loc	4 0 5                           @ ../../../../../../kernel/freertos/Source/event_groups.c:0:5
__arm_cp.3_0:
	.long	16777215                        @ 0xffffff
.Lcpi_end1:
	.size	__arm_cp.3_0, .Lcpi_end1-__arm_cp.3_0
.Lfunc_end3:
	.size	xEventGroupSetBits, .Lfunc_end3-xEventGroupSetBits
	.cfi_endproc
	.cantunwind
	.fnend
                                        @ -- End function
	.section	.text.xEventGroupWaitBits,"ax",%progbits
	.hidden	xEventGroupWaitBits             @ -- Begin function xEventGroupWaitBits
	.globl	xEventGroupWaitBits
	.p2align	2
	.type	xEventGroupWaitBits,%function
	.code	16                              @ @xEventGroupWaitBits
	.thumb_func
xEventGroupWaitBits:
.Lfunc_begin4:
	.loc	4 320 0 is_stmt 1               @ ../../../../../../kernel/freertos/Source/event_groups.c:320:0
	.fnstart
	.cfi_startproc
@ %bb.0:
	@DEBUG_VALUE: xEventGroupWaitBits:xEventGroup <- $r0
	@DEBUG_VALUE: xEventGroupWaitBits:uxBitsToWaitFor <- $r1
	@DEBUG_VALUE: xEventGroupWaitBits:xClearOnExit <- $r2
	@DEBUG_VALUE: xEventGroupWaitBits:xWaitForAllBits <- $r3
	@DEBUG_VALUE: xEventGroupWaitBits:xWaitForAllBits <- $r3
	@DEBUG_VALUE: xEventGroupWaitBits:uxBitsToWaitFor <- $r1
	@DEBUG_VALUE: xEventGroupWaitBits:xEventGroup <- $r0
	.save	{r4, r5, r6, r7, lr}
	push	{r4, r5, r6, r7, lr}
	.cfi_def_cfa_offset 20
	.cfi_offset lr, -4
	.cfi_offset r7, -8
	.cfi_offset r6, -12
	.cfi_offset r5, -16
	.cfi_offset r4, -20
	.pad	#12
	sub	sp, #12
	.cfi_def_cfa_offset 32
.Ltmp114:
	@DEBUG_VALUE: xEventGroupWaitBits:xTicksToWait <- [DW_OP_plus_uconst 32] [$sp+0]
	@DEBUG_VALUE: xEventGroupWaitBits:pxEventBits <- $r0
	@DEBUG_VALUE: xEventGroupWaitBits:xTimeoutOccurred <- 0
	@DEBUG_VALUE: xEventGroupWaitBits:uxControlBits <- 0
	@DEBUG_VALUE: xEventGroupWaitBits:pxEventBits <- $r0
	.loc	4 328 5 prologue_end            @ ../../../../../../kernel/freertos/Source/event_groups.c:328:5
	cmp	r0, #0
	beq	.LBB4_4
.Ltmp115:
@ %bb.1:
	@DEBUG_VALUE: xEventGroupWaitBits:uxControlBits <- 0
	@DEBUG_VALUE: xEventGroupWaitBits:xTimeoutOccurred <- 0
	@DEBUG_VALUE: xEventGroupWaitBits:pxEventBits <- $r0
	@DEBUG_VALUE: xEventGroupWaitBits:xTicksToWait <- [DW_OP_plus_uconst 32] [$sp+0]
	@DEBUG_VALUE: xEventGroupWaitBits:xWaitForAllBits <- $r3
	@DEBUG_VALUE: xEventGroupWaitBits:xClearOnExit <- $r2
	@DEBUG_VALUE: xEventGroupWaitBits:uxBitsToWaitFor <- $r1
	@DEBUG_VALUE: xEventGroupWaitBits:xEventGroup <- $r0
	@DEBUG_VALUE: xEventGroupWaitBits:xWaitForAllBits <- $r3
	.loc	4 0 5 is_stmt 0                 @ ../../../../../../kernel/freertos/Source/event_groups.c:0:5
	mov	r5, r1
.Ltmp116:
	@DEBUG_VALUE: xEventGroupWaitBits:uxBitsToWaitFor <- $r5
	mov	r4, r0
.Ltmp117:
	@DEBUG_VALUE: xEventGroupWaitBits:xEventGroup <- $r4
	@DEBUG_VALUE: xEventGroupWaitBits:pxEventBits <- $r4
	.loc	4 329 5 is_stmt 1               @ ../../../../../../kernel/freertos/Source/event_groups.c:329:5
	lsrs	r0, r1, #24
	beq	.LBB4_6
.Ltmp118:
@ %bb.2:
	@DEBUG_VALUE: xEventGroupWaitBits:pxEventBits <- $r4
	@DEBUG_VALUE: xEventGroupWaitBits:xEventGroup <- $r4
	@DEBUG_VALUE: xEventGroupWaitBits:uxBitsToWaitFor <- $r5
	@DEBUG_VALUE: xEventGroupWaitBits:uxControlBits <- 0
	@DEBUG_VALUE: xEventGroupWaitBits:xTimeoutOccurred <- 0
	@DEBUG_VALUE: xEventGroupWaitBits:xTicksToWait <- [DW_OP_plus_uconst 32] [$sp+0]
	@DEBUG_VALUE: xEventGroupWaitBits:xWaitForAllBits <- $r3
	@DEBUG_VALUE: xEventGroupWaitBits:xClearOnExit <- $r2
	.loc	4 329 5 is_stmt 0               @ ../../../../../../kernel/freertos/Source/event_groups.c:329:5
	@APP
	cpsid i
	@NO_APP
.Ltmp119:
.LBB4_3:                                @ =>This Inner Loop Header: Depth=1
	@DEBUG_VALUE: xEventGroupWaitBits:pxEventBits <- $r4
	@DEBUG_VALUE: xEventGroupWaitBits:xEventGroup <- $r4
	@DEBUG_VALUE: xEventGroupWaitBits:uxBitsToWaitFor <- $r5
	@DEBUG_VALUE: xEventGroupWaitBits:uxControlBits <- 0
	@DEBUG_VALUE: xEventGroupWaitBits:xTimeoutOccurred <- 0
	@DEBUG_VALUE: xEventGroupWaitBits:xTicksToWait <- [DW_OP_plus_uconst 32] [$sp+0]
	@DEBUG_VALUE: xEventGroupWaitBits:xWaitForAllBits <- $r3
	@DEBUG_VALUE: xEventGroupWaitBits:xClearOnExit <- $r2
	.loc	4 329 5                         @ ../../../../../../kernel/freertos/Source/event_groups.c:329:5
	b	.LBB4_3
.Ltmp120:
.LBB4_4:
	@DEBUG_VALUE: xEventGroupWaitBits:uxControlBits <- 0
	@DEBUG_VALUE: xEventGroupWaitBits:xTimeoutOccurred <- 0
	@DEBUG_VALUE: xEventGroupWaitBits:pxEventBits <- $r0
	@DEBUG_VALUE: xEventGroupWaitBits:xTicksToWait <- [DW_OP_plus_uconst 32] [$sp+0]
	@DEBUG_VALUE: xEventGroupWaitBits:xWaitForAllBits <- $r3
	@DEBUG_VALUE: xEventGroupWaitBits:xClearOnExit <- $r2
	@DEBUG_VALUE: xEventGroupWaitBits:uxBitsToWaitFor <- $r1
	@DEBUG_VALUE: xEventGroupWaitBits:xEventGroup <- $r0
	.loc	4 328 5 is_stmt 1               @ ../../../../../../kernel/freertos/Source/event_groups.c:328:5
	@APP
	cpsid i
	@NO_APP
.Ltmp121:
.LBB4_5:                                @ =>This Inner Loop Header: Depth=1
	@DEBUG_VALUE: xEventGroupWaitBits:uxControlBits <- 0
	@DEBUG_VALUE: xEventGroupWaitBits:xTimeoutOccurred <- 0
	@DEBUG_VALUE: xEventGroupWaitBits:pxEventBits <- $r0
	@DEBUG_VALUE: xEventGroupWaitBits:xTicksToWait <- [DW_OP_plus_uconst 32] [$sp+0]
	@DEBUG_VALUE: xEventGroupWaitBits:xWaitForAllBits <- $r3
	@DEBUG_VALUE: xEventGroupWaitBits:xClearOnExit <- $r2
	@DEBUG_VALUE: xEventGroupWaitBits:uxBitsToWaitFor <- $r1
	@DEBUG_VALUE: xEventGroupWaitBits:xEventGroup <- $r0
	.loc	4 328 5 is_stmt 0               @ ../../../../../../kernel/freertos/Source/event_groups.c:328:5
	b	.LBB4_5
.Ltmp122:
.LBB4_6:
	@DEBUG_VALUE: xEventGroupWaitBits:pxEventBits <- $r4
	@DEBUG_VALUE: xEventGroupWaitBits:xEventGroup <- $r4
	@DEBUG_VALUE: xEventGroupWaitBits:uxBitsToWaitFor <- $r5
	@DEBUG_VALUE: xEventGroupWaitBits:uxControlBits <- 0
	@DEBUG_VALUE: xEventGroupWaitBits:xTimeoutOccurred <- 0
	@DEBUG_VALUE: xEventGroupWaitBits:xTicksToWait <- [DW_OP_plus_uconst 32] [$sp+0]
	@DEBUG_VALUE: xEventGroupWaitBits:xWaitForAllBits <- $r3
	@DEBUG_VALUE: xEventGroupWaitBits:xClearOnExit <- $r2
	@DEBUG_VALUE: xEventGroupWaitBits:xWaitForAllBits <- $r3
	.loc	4 330 5 is_stmt 1               @ ../../../../../../kernel/freertos/Source/event_groups.c:330:5
	cmp	r5, #0
	beq	.LBB4_11
.Ltmp123:
@ %bb.7:
	@DEBUG_VALUE: xEventGroupWaitBits:pxEventBits <- $r4
	@DEBUG_VALUE: xEventGroupWaitBits:xEventGroup <- $r4
	@DEBUG_VALUE: xEventGroupWaitBits:uxBitsToWaitFor <- $r5
	@DEBUG_VALUE: xEventGroupWaitBits:uxControlBits <- 0
	@DEBUG_VALUE: xEventGroupWaitBits:xTimeoutOccurred <- 0
	@DEBUG_VALUE: xEventGroupWaitBits:xTicksToWait <- [DW_OP_plus_uconst 32] [$sp+0]
	@DEBUG_VALUE: xEventGroupWaitBits:xWaitForAllBits <- $r3
	@DEBUG_VALUE: xEventGroupWaitBits:xClearOnExit <- $r2
	.loc	4 0 5 is_stmt 0                 @ ../../../../../../kernel/freertos/Source/event_groups.c:0:5
	mov	r7, r3
.Ltmp124:
	@DEBUG_VALUE: xEventGroupWaitBits:xWaitForAllBits <- $r7
	str	r2, [sp, #8]                    @ 4-byte Spill
.Ltmp125:
	@DEBUG_VALUE: xEventGroupWaitBits:xClearOnExit <- [DW_OP_plus_uconst 8] [$sp+0]
	ldr	r6, [sp, #32]
.Ltmp126:
	.loc	4 333 13 is_stmt 1              @ ../../../../../../kernel/freertos/Source/event_groups.c:333:13
	bl	xTaskGetSchedulerState
.Ltmp127:
	.loc	4 0 13 is_stmt 0                @ ../../../../../../kernel/freertos/Source/event_groups.c:0:13
	str	r6, [sp, #4]                    @ 4-byte Spill
.Ltmp128:
	.loc	4 333 13                        @ ../../../../../../kernel/freertos/Source/event_groups.c:333:13
	cmp	r6, #0
	beq	.LBB4_13
.Ltmp129:
@ %bb.8:
	@DEBUG_VALUE: xEventGroupWaitBits:xClearOnExit <- [DW_OP_plus_uconst 8] [$sp+0]
	@DEBUG_VALUE: xEventGroupWaitBits:xWaitForAllBits <- $r7
	@DEBUG_VALUE: xEventGroupWaitBits:pxEventBits <- $r4
	@DEBUG_VALUE: xEventGroupWaitBits:xEventGroup <- $r4
	@DEBUG_VALUE: xEventGroupWaitBits:uxBitsToWaitFor <- $r5
	@DEBUG_VALUE: xEventGroupWaitBits:uxControlBits <- 0
	@DEBUG_VALUE: xEventGroupWaitBits:xTimeoutOccurred <- 0
	@DEBUG_VALUE: xEventGroupWaitBits:xTicksToWait <- [DW_OP_plus_uconst 32] [$sp+0]
	cmp	r0, #0
	bne	.LBB4_13
.Ltmp130:
@ %bb.9:
	@DEBUG_VALUE: xEventGroupWaitBits:xClearOnExit <- [DW_OP_plus_uconst 8] [$sp+0]
	@DEBUG_VALUE: xEventGroupWaitBits:xWaitForAllBits <- $r7
	@DEBUG_VALUE: xEventGroupWaitBits:pxEventBits <- $r4
	@DEBUG_VALUE: xEventGroupWaitBits:xEventGroup <- $r4
	@DEBUG_VALUE: xEventGroupWaitBits:uxBitsToWaitFor <- $r5
	@DEBUG_VALUE: xEventGroupWaitBits:uxControlBits <- 0
	@DEBUG_VALUE: xEventGroupWaitBits:xTimeoutOccurred <- 0
	@DEBUG_VALUE: xEventGroupWaitBits:xTicksToWait <- [DW_OP_plus_uconst 32] [$sp+0]
	.loc	4 333 13                        @ ../../../../../../kernel/freertos/Source/event_groups.c:333:13
	@APP
	cpsid i
	@NO_APP
.Ltmp131:
.LBB4_10:                               @ =>This Inner Loop Header: Depth=1
	@DEBUG_VALUE: xEventGroupWaitBits:xClearOnExit <- [DW_OP_plus_uconst 8] [$sp+0]
	@DEBUG_VALUE: xEventGroupWaitBits:xWaitForAllBits <- $r7
	@DEBUG_VALUE: xEventGroupWaitBits:pxEventBits <- $r4
	@DEBUG_VALUE: xEventGroupWaitBits:xEventGroup <- $r4
	@DEBUG_VALUE: xEventGroupWaitBits:uxBitsToWaitFor <- $r5
	@DEBUG_VALUE: xEventGroupWaitBits:uxControlBits <- 0
	@DEBUG_VALUE: xEventGroupWaitBits:xTimeoutOccurred <- 0
	@DEBUG_VALUE: xEventGroupWaitBits:xTicksToWait <- [DW_OP_plus_uconst 32] [$sp+0]
	.loc	4 333 13                        @ ../../../../../../kernel/freertos/Source/event_groups.c:333:13
	b	.LBB4_10
.Ltmp132:
.LBB4_11:
	@DEBUG_VALUE: xEventGroupWaitBits:pxEventBits <- $r4
	@DEBUG_VALUE: xEventGroupWaitBits:xEventGroup <- $r4
	@DEBUG_VALUE: xEventGroupWaitBits:uxBitsToWaitFor <- $r5
	@DEBUG_VALUE: xEventGroupWaitBits:uxControlBits <- 0
	@DEBUG_VALUE: xEventGroupWaitBits:xTimeoutOccurred <- 0
	@DEBUG_VALUE: xEventGroupWaitBits:xTicksToWait <- [DW_OP_plus_uconst 32] [$sp+0]
	@DEBUG_VALUE: xEventGroupWaitBits:xWaitForAllBits <- $r3
	@DEBUG_VALUE: xEventGroupWaitBits:xClearOnExit <- $r2
	.loc	4 330 5 is_stmt 1               @ ../../../../../../kernel/freertos/Source/event_groups.c:330:5
	@APP
	cpsid i
	@NO_APP
.Ltmp133:
.LBB4_12:                               @ =>This Inner Loop Header: Depth=1
	@DEBUG_VALUE: xEventGroupWaitBits:pxEventBits <- $r4
	@DEBUG_VALUE: xEventGroupWaitBits:xEventGroup <- $r4
	@DEBUG_VALUE: xEventGroupWaitBits:uxBitsToWaitFor <- $r5
	@DEBUG_VALUE: xEventGroupWaitBits:uxControlBits <- 0
	@DEBUG_VALUE: xEventGroupWaitBits:xTimeoutOccurred <- 0
	@DEBUG_VALUE: xEventGroupWaitBits:xTicksToWait <- [DW_OP_plus_uconst 32] [$sp+0]
	@DEBUG_VALUE: xEventGroupWaitBits:xWaitForAllBits <- $r3
	@DEBUG_VALUE: xEventGroupWaitBits:xClearOnExit <- $r2
	.loc	4 330 5 is_stmt 0               @ ../../../../../../kernel/freertos/Source/event_groups.c:330:5
	b	.LBB4_12
.Ltmp134:
.LBB4_13:
	@DEBUG_VALUE: xEventGroupWaitBits:xClearOnExit <- [DW_OP_plus_uconst 8] [$sp+0]
	@DEBUG_VALUE: xEventGroupWaitBits:xWaitForAllBits <- $r7
	@DEBUG_VALUE: xEventGroupWaitBits:pxEventBits <- $r4
	@DEBUG_VALUE: xEventGroupWaitBits:xEventGroup <- $r4
	@DEBUG_VALUE: xEventGroupWaitBits:uxBitsToWaitFor <- $r5
	@DEBUG_VALUE: xEventGroupWaitBits:uxControlBits <- 0
	@DEBUG_VALUE: xEventGroupWaitBits:xTimeoutOccurred <- 0
	@DEBUG_VALUE: xEventGroupWaitBits:xTicksToWait <- [DW_OP_plus_uconst 32] [$sp+0]
	.loc	4 337 5 is_stmt 1               @ ../../../../../../kernel/freertos/Source/event_groups.c:337:5
	bl	vTaskSuspendAll
.Ltmp135:
	.loc	4 339 61                        @ ../../../../../../kernel/freertos/Source/event_groups.c:339:61
	ldr	r3, [r4]
.Ltmp136:
	@DEBUG_VALUE: prvTestWaitCondition:xWaitConditionMet <- 0
	@DEBUG_VALUE: prvTestWaitCondition:xWaitForAllBits <- $r7
	@DEBUG_VALUE: prvTestWaitCondition:uxBitsToWaitFor <- $r5
	@DEBUG_VALUE: prvTestWaitCondition:uxCurrentEventBits <- $r3
	@DEBUG_VALUE: uxCurrentEventBits <- $r3
	.loc	4 696 9                         @ ../../../../../../kernel/freertos/Source/event_groups.c:696:9
	mov	r1, r3
	ands	r1, r5
	rsbs	r0, r1, #0
	adcs	r0, r1
	subs	r1, r1, r5
	subs	r2, r1, #1
	sbcs	r1, r2
	cmp	r7, #0
	beq	.LBB4_15
.Ltmp137:
@ %bb.14:
	@DEBUG_VALUE: uxCurrentEventBits <- $r3
	@DEBUG_VALUE: prvTestWaitCondition:uxCurrentEventBits <- $r3
	@DEBUG_VALUE: prvTestWaitCondition:uxBitsToWaitFor <- $r5
	@DEBUG_VALUE: prvTestWaitCondition:xWaitForAllBits <- $r7
	@DEBUG_VALUE: prvTestWaitCondition:xWaitConditionMet <- 0
	@DEBUG_VALUE: xEventGroupWaitBits:xClearOnExit <- [DW_OP_plus_uconst 8] [$sp+0]
	@DEBUG_VALUE: xEventGroupWaitBits:xWaitForAllBits <- $r7
	@DEBUG_VALUE: xEventGroupWaitBits:pxEventBits <- $r4
	@DEBUG_VALUE: xEventGroupWaitBits:xEventGroup <- $r4
	@DEBUG_VALUE: xEventGroupWaitBits:uxBitsToWaitFor <- $r5
	@DEBUG_VALUE: xEventGroupWaitBits:uxControlBits <- 0
	@DEBUG_VALUE: xEventGroupWaitBits:xTimeoutOccurred <- 0
	@DEBUG_VALUE: xEventGroupWaitBits:xTicksToWait <- [DW_OP_plus_uconst 32] [$sp+0]
	.loc	4 0 9 is_stmt 0                 @ ../../../../../../kernel/freertos/Source/event_groups.c:0:9
	mov	r0, r1
.Ltmp138:
.LBB4_15:
	@DEBUG_VALUE: uxCurrentEventBits <- $r3
	@DEBUG_VALUE: xEventGroupWaitBits:xClearOnExit <- [DW_OP_plus_uconst 8] [$sp+0]
	@DEBUG_VALUE: xEventGroupWaitBits:xWaitForAllBits <- $r7
	@DEBUG_VALUE: xEventGroupWaitBits:pxEventBits <- $r4
	@DEBUG_VALUE: xEventGroupWaitBits:xEventGroup <- $r4
	@DEBUG_VALUE: xEventGroupWaitBits:uxBitsToWaitFor <- $r5
	@DEBUG_VALUE: xEventGroupWaitBits:uxControlBits <- 0
	@DEBUG_VALUE: xEventGroupWaitBits:xTimeoutOccurred <- 0
	@DEBUG_VALUE: xEventGroupWaitBits:xTicksToWait <- [DW_OP_plus_uconst 32] [$sp+0]
	@DEBUG_VALUE: prvTestWaitCondition:xWaitConditionMet <- [DW_OP_LLVM_convert 1 7, DW_OP_LLVM_convert 32 7, DW_OP_stack_value] $r0
	@DEBUG_VALUE: xEventGroupWaitBits:xWaitConditionMet <- [DW_OP_LLVM_convert 1 7, DW_OP_LLVM_convert 32 7, DW_OP_stack_value] $r0
	.loc	4 344 13 is_stmt 1              @ ../../../../../../kernel/freertos/Source/event_groups.c:344:13
	cmp	r0, #0
	ldr	r6, [sp, #8]                    @ 4-byte Reload
.Ltmp139:
	@DEBUG_VALUE: xEventGroupWaitBits:xClearOnExit <- $r6
	beq	.LBB4_19
.Ltmp140:
@ %bb.16:
	@DEBUG_VALUE: xEventGroupWaitBits:xClearOnExit <- $r6
	@DEBUG_VALUE: xEventGroupWaitBits:xWaitConditionMet <- [DW_OP_LLVM_convert 1 7, DW_OP_LLVM_convert 32 7, DW_OP_stack_value] $r0
	@DEBUG_VALUE: uxCurrentEventBits <- $r3
	@DEBUG_VALUE: xEventGroupWaitBits:xWaitForAllBits <- $r7
	@DEBUG_VALUE: xEventGroupWaitBits:pxEventBits <- $r4
	@DEBUG_VALUE: xEventGroupWaitBits:xEventGroup <- $r4
	@DEBUG_VALUE: xEventGroupWaitBits:uxBitsToWaitFor <- $r5
	@DEBUG_VALUE: xEventGroupWaitBits:uxControlBits <- 0
	@DEBUG_VALUE: xEventGroupWaitBits:xTimeoutOccurred <- 0
	@DEBUG_VALUE: xEventGroupWaitBits:xTicksToWait <- [DW_OP_plus_uconst 32] [$sp+0]
	.loc	4 361 18                        @ ../../../../../../kernel/freertos/Source/event_groups.c:361:18
	ldr	r0, [sp, #4]                    @ 4-byte Reload
.Ltmp141:
	cmp	r0, #0
	beq	.LBB4_21
.Ltmp142:
@ %bb.17:
	@DEBUG_VALUE: xEventGroupWaitBits:xClearOnExit <- $r6
	@DEBUG_VALUE: uxCurrentEventBits <- $r3
	@DEBUG_VALUE: xEventGroupWaitBits:xWaitForAllBits <- $r7
	@DEBUG_VALUE: xEventGroupWaitBits:pxEventBits <- $r4
	@DEBUG_VALUE: xEventGroupWaitBits:xEventGroup <- $r4
	@DEBUG_VALUE: xEventGroupWaitBits:uxBitsToWaitFor <- $r5
	@DEBUG_VALUE: xEventGroupWaitBits:uxControlBits <- 0
	@DEBUG_VALUE: xEventGroupWaitBits:xTimeoutOccurred <- 0
	@DEBUG_VALUE: xEventGroupWaitBits:xTicksToWait <- [DW_OP_plus_uconst 32] [$sp+0]
	.loc	4 0 18 is_stmt 0                @ ../../../../../../kernel/freertos/Source/event_groups.c:0:18
	ldr	r0, __arm_cp.4_0
.Ltmp143:
	.loc	4 374 17 is_stmt 1              @ ../../../../../../kernel/freertos/Source/event_groups.c:374:17
	cmp	r6, #0
	bne	.LBB4_22
.Ltmp144:
@ %bb.18:
	@DEBUG_VALUE: xEventGroupWaitBits:xClearOnExit <- $r6
	@DEBUG_VALUE: uxCurrentEventBits <- $r3
	@DEBUG_VALUE: xEventGroupWaitBits:xWaitForAllBits <- $r7
	@DEBUG_VALUE: xEventGroupWaitBits:pxEventBits <- $r4
	@DEBUG_VALUE: xEventGroupWaitBits:xEventGroup <- $r4
	@DEBUG_VALUE: xEventGroupWaitBits:uxBitsToWaitFor <- $r5
	@DEBUG_VALUE: xEventGroupWaitBits:uxControlBits <- 0
	@DEBUG_VALUE: xEventGroupWaitBits:xTimeoutOccurred <- 0
	@DEBUG_VALUE: xEventGroupWaitBits:xTicksToWait <- [DW_OP_plus_uconst 32] [$sp+0]
	.loc	4 0 17 is_stmt 0                @ ../../../../../../kernel/freertos/Source/event_groups.c:0:17
	mov	r1, r6
	b	.LBB4_23
.Ltmp145:
.LBB4_19:
	@DEBUG_VALUE: xEventGroupWaitBits:xClearOnExit <- $r6
	@DEBUG_VALUE: xEventGroupWaitBits:xWaitConditionMet <- [DW_OP_LLVM_convert 1 7, DW_OP_LLVM_convert 32 7, DW_OP_stack_value] $r0
	@DEBUG_VALUE: uxCurrentEventBits <- $r3
	@DEBUG_VALUE: xEventGroupWaitBits:xWaitForAllBits <- $r7
	@DEBUG_VALUE: xEventGroupWaitBits:pxEventBits <- $r4
	@DEBUG_VALUE: xEventGroupWaitBits:xEventGroup <- $r4
	@DEBUG_VALUE: xEventGroupWaitBits:uxBitsToWaitFor <- $r5
	@DEBUG_VALUE: xEventGroupWaitBits:uxControlBits <- 0
	@DEBUG_VALUE: xEventGroupWaitBits:xTimeoutOccurred <- 0
	@DEBUG_VALUE: xEventGroupWaitBits:xTicksToWait <- [DW_OP_plus_uconst 32] [$sp+0]
	@DEBUG_VALUE: xEventGroupWaitBits:xTicksToWait <- 0
	@DEBUG_VALUE: xEventGroupWaitBits:uxReturn <- $r3
	.loc	4 352 17 is_stmt 1              @ ../../../../../../kernel/freertos/Source/event_groups.c:352:17
	cmp	r6, #0
	beq	.LBB4_21
.Ltmp146:
@ %bb.20:
	@DEBUG_VALUE: xEventGroupWaitBits:uxReturn <- $r3
	@DEBUG_VALUE: xEventGroupWaitBits:xTicksToWait <- 0
	@DEBUG_VALUE: xEventGroupWaitBits:xClearOnExit <- $r6
	@DEBUG_VALUE: xEventGroupWaitBits:xWaitConditionMet <- [DW_OP_LLVM_convert 1 7, DW_OP_LLVM_convert 32 7, DW_OP_stack_value] $r0
	@DEBUG_VALUE: uxCurrentEventBits <- $r3
	@DEBUG_VALUE: xEventGroupWaitBits:xWaitForAllBits <- $r7
	@DEBUG_VALUE: xEventGroupWaitBits:pxEventBits <- $r4
	@DEBUG_VALUE: xEventGroupWaitBits:xEventGroup <- $r4
	@DEBUG_VALUE: xEventGroupWaitBits:uxBitsToWaitFor <- $r5
	@DEBUG_VALUE: xEventGroupWaitBits:uxControlBits <- 0
	@DEBUG_VALUE: xEventGroupWaitBits:xTimeoutOccurred <- 0
	.loc	4 354 42                        @ ../../../../../../kernel/freertos/Source/event_groups.c:354:42
	mov	r0, r3
.Ltmp147:
	bics	r0, r5
	str	r0, [r4]
.Ltmp148:
.LBB4_21:
	@DEBUG_VALUE: xEventGroupWaitBits:xClearOnExit <- $r6
	@DEBUG_VALUE: xEventGroupWaitBits:xWaitForAllBits <- $r7
	@DEBUG_VALUE: xEventGroupWaitBits:pxEventBits <- $r4
	@DEBUG_VALUE: xEventGroupWaitBits:xEventGroup <- $r4
	@DEBUG_VALUE: xEventGroupWaitBits:uxBitsToWaitFor <- $r5
	@DEBUG_VALUE: xEventGroupWaitBits:uxControlBits <- 0
	@DEBUG_VALUE: xEventGroupWaitBits:xTimeoutOccurred <- 0
	@DEBUG_VALUE: xEventGroupWaitBits:xTicksToWait <- undef
	@DEBUG_VALUE: xEventGroupWaitBits:xTimeoutOccurred <- undef
	@DEBUG_VALUE: xEventGroupWaitBits:uxReturn <- $r3
	.loc	4 0 42 is_stmt 0                @ ../../../../../../kernel/freertos/Source/event_groups.c:0:42
	mov	r4, r3
.Ltmp149:
	@DEBUG_VALUE: xEventGroupWaitBits:xEventGroup <- [DW_OP_LLVM_entry_value 1] $r0
	@DEBUG_VALUE: xEventGroupWaitBits:uxReturn <- $r4
	@DEBUG_VALUE: xEventGroupWaitBits:uxReturn <- $r4
	.loc	4 405 23 is_stmt 1              @ ../../../../../../kernel/freertos/Source/event_groups.c:405:23
	bl	xTaskResumeAll
.Ltmp150:
	.loc	4 0 23 is_stmt 0                @ ../../../../../../kernel/freertos/Source/event_groups.c:0:23
	mov	r1, r4
.Ltmp151:
	@DEBUG_VALUE: xEventGroupWaitBits:uxReturn <- $r1
	@DEBUG_VALUE: xEventGroupWaitBits:xAlreadyYielded <- undef
	b	.LBB4_35
.Ltmp152:
.LBB4_22:
	@DEBUG_VALUE: xEventGroupWaitBits:xClearOnExit <- $r6
	@DEBUG_VALUE: uxCurrentEventBits <- $r3
	@DEBUG_VALUE: xEventGroupWaitBits:xWaitForAllBits <- $r7
	@DEBUG_VALUE: xEventGroupWaitBits:pxEventBits <- $r4
	@DEBUG_VALUE: xEventGroupWaitBits:xEventGroup <- $r4
	@DEBUG_VALUE: xEventGroupWaitBits:uxBitsToWaitFor <- $r5
	@DEBUG_VALUE: xEventGroupWaitBits:uxControlBits <- 0
	@DEBUG_VALUE: xEventGroupWaitBits:xTimeoutOccurred <- 0
	@DEBUG_VALUE: xEventGroupWaitBits:xTicksToWait <- [DW_OP_plus_uconst 32] [$sp+0]
	adds	r1, r0, #1
.Ltmp153:
.LBB4_23:
	@DEBUG_VALUE: xEventGroupWaitBits:xClearOnExit <- $r6
	@DEBUG_VALUE: uxCurrentEventBits <- $r3
	@DEBUG_VALUE: xEventGroupWaitBits:xWaitForAllBits <- $r7
	@DEBUG_VALUE: xEventGroupWaitBits:pxEventBits <- $r4
	@DEBUG_VALUE: xEventGroupWaitBits:xEventGroup <- $r4
	@DEBUG_VALUE: xEventGroupWaitBits:uxBitsToWaitFor <- $r5
	@DEBUG_VALUE: xEventGroupWaitBits:uxControlBits <- 0
	@DEBUG_VALUE: xEventGroupWaitBits:xTimeoutOccurred <- 0
	@DEBUG_VALUE: xEventGroupWaitBits:xTicksToWait <- [DW_OP_plus_uconst 32] [$sp+0]
	@DEBUG_VALUE: xEventGroupWaitBits:uxControlBits <- $r1
	.loc	4 383 17 is_stmt 1              @ ../../../../../../kernel/freertos/Source/event_groups.c:383:17
	cmp	r7, #0
	beq	.LBB4_25
.Ltmp154:
@ %bb.24:
	@DEBUG_VALUE: xEventGroupWaitBits:uxControlBits <- $r1
	@DEBUG_VALUE: xEventGroupWaitBits:xClearOnExit <- $r6
	@DEBUG_VALUE: uxCurrentEventBits <- $r3
	@DEBUG_VALUE: xEventGroupWaitBits:xWaitForAllBits <- $r7
	@DEBUG_VALUE: xEventGroupWaitBits:pxEventBits <- $r4
	@DEBUG_VALUE: xEventGroupWaitBits:xEventGroup <- $r4
	@DEBUG_VALUE: xEventGroupWaitBits:uxBitsToWaitFor <- $r5
	@DEBUG_VALUE: xEventGroupWaitBits:xTimeoutOccurred <- 0
	@DEBUG_VALUE: xEventGroupWaitBits:xTicksToWait <- [DW_OP_plus_uconst 32] [$sp+0]
	.loc	4 0 17 is_stmt 0                @ ../../../../../../kernel/freertos/Source/event_groups.c:0:17
	movs	r0, #1
	lsls	r0, r0, #26
	orrs	r1, r0
.Ltmp155:
.LBB4_25:
	@DEBUG_VALUE: xEventGroupWaitBits:xClearOnExit <- $r6
	@DEBUG_VALUE: uxCurrentEventBits <- $r3
	@DEBUG_VALUE: xEventGroupWaitBits:xWaitForAllBits <- $r7
	@DEBUG_VALUE: xEventGroupWaitBits:pxEventBits <- $r4
	@DEBUG_VALUE: xEventGroupWaitBits:xEventGroup <- $r4
	@DEBUG_VALUE: xEventGroupWaitBits:uxBitsToWaitFor <- $r5
	@DEBUG_VALUE: xEventGroupWaitBits:xTimeoutOccurred <- 0
	@DEBUG_VALUE: xEventGroupWaitBits:xTicksToWait <- [DW_OP_plus_uconst 32] [$sp+0]
	@DEBUG_VALUE: xEventGroupWaitBits:uxControlBits <- $r1
	.loc	4 395 103 is_stmt 1             @ ../../../../../../kernel/freertos/Source/event_groups.c:395:103
	orrs	r1, r5
.Ltmp156:
	.loc	4 395 61 is_stmt 0              @ ../../../../../../kernel/freertos/Source/event_groups.c:395:61
	adds	r0, r4, #4
	.loc	4 395 13                        @ ../../../../../../kernel/freertos/Source/event_groups.c:395:13
	ldr	r2, [sp, #4]                    @ 4-byte Reload
	bl	vTaskPlaceOnUnorderedEventList
.Ltmp157:
	@DEBUG_VALUE: xEventGroupWaitBits:uxReturn <- 0
	@DEBUG_VALUE: xEventGroupWaitBits:xTimeoutOccurred <- undef
	@DEBUG_VALUE: xEventGroupWaitBits:xTicksToWait <- undef
	.loc	4 405 23 is_stmt 1              @ ../../../../../../kernel/freertos/Source/event_groups.c:405:23
	bl	xTaskResumeAll
.Ltmp158:
	@DEBUG_VALUE: xEventGroupWaitBits:xAlreadyYielded <- $r0
	.loc	4 409 13                        @ ../../../../../../kernel/freertos/Source/event_groups.c:409:13
	cmp	r0, #0
	bne	.LBB4_27
.Ltmp159:
@ %bb.26:
	@DEBUG_VALUE: xEventGroupWaitBits:xAlreadyYielded <- $r0
	@DEBUG_VALUE: xEventGroupWaitBits:uxReturn <- 0
	@DEBUG_VALUE: xEventGroupWaitBits:xClearOnExit <- $r6
	@DEBUG_VALUE: xEventGroupWaitBits:xWaitForAllBits <- $r7
	@DEBUG_VALUE: xEventGroupWaitBits:pxEventBits <- $r4
	@DEBUG_VALUE: xEventGroupWaitBits:xEventGroup <- $r4
	@DEBUG_VALUE: xEventGroupWaitBits:uxBitsToWaitFor <- $r5
	.loc	4 411 13                        @ ../../../../../../kernel/freertos/Source/event_groups.c:411:13
	bl	vPortYield
.Ltmp160:
.LBB4_27:
	@DEBUG_VALUE: xEventGroupWaitBits:uxReturn <- 0
	@DEBUG_VALUE: xEventGroupWaitBits:xClearOnExit <- $r6
	@DEBUG_VALUE: xEventGroupWaitBits:xWaitForAllBits <- $r7
	@DEBUG_VALUE: xEventGroupWaitBits:pxEventBits <- $r4
	@DEBUG_VALUE: xEventGroupWaitBits:xEventGroup <- $r4
	@DEBUG_VALUE: xEventGroupWaitBits:uxBitsToWaitFor <- $r5
	.loc	4 422 20                        @ ../../../../../../kernel/freertos/Source/event_groups.c:422:20
	bl	uxTaskResetEventItemValue
.Ltmp161:
	mov	r1, r0
.Ltmp162:
	@DEBUG_VALUE: xEventGroupWaitBits:uxReturn <- $r1
	.loc	4 424 13                        @ ../../../../../../kernel/freertos/Source/event_groups.c:424:13
	lsls	r0, r0, #6
	bmi	.LBB4_34
.Ltmp163:
@ %bb.28:
	@DEBUG_VALUE: xEventGroupWaitBits:uxReturn <- $r1
	@DEBUG_VALUE: xEventGroupWaitBits:xClearOnExit <- $r6
	@DEBUG_VALUE: xEventGroupWaitBits:xWaitForAllBits <- $r7
	@DEBUG_VALUE: xEventGroupWaitBits:pxEventBits <- $r4
	@DEBUG_VALUE: xEventGroupWaitBits:xEventGroup <- $r4
	@DEBUG_VALUE: xEventGroupWaitBits:uxBitsToWaitFor <- $r5
	.loc	4 426 13                        @ ../../../../../../kernel/freertos/Source/event_groups.c:426:13
	bl	vPortEnterCritical
.Ltmp164:
	.loc	4 429 41                        @ ../../../../../../kernel/freertos/Source/event_groups.c:429:41
	ldr	r3, [r4]
.Ltmp165:
	@DEBUG_VALUE: prvTestWaitCondition:xWaitConditionMet <- 0
	@DEBUG_VALUE: prvTestWaitCondition:xWaitForAllBits <- $r7
	@DEBUG_VALUE: prvTestWaitCondition:uxBitsToWaitFor <- $r5
	@DEBUG_VALUE: prvTestWaitCondition:uxCurrentEventBits <- $r3
	@DEBUG_VALUE: xEventGroupWaitBits:uxReturn <- $r3
	.loc	4 696 9                         @ ../../../../../../kernel/freertos/Source/event_groups.c:696:9
	mov	r1, r3
	ands	r1, r5
	subs	r2, r1, #1
	mov	r0, r1
	sbcs	r0, r2
	subs	r2, r1, r5
	rsbs	r1, r2, #0
	adcs	r1, r2
	cmp	r7, #0
	beq	.LBB4_30
.Ltmp166:
@ %bb.29:
	@DEBUG_VALUE: prvTestWaitCondition:uxCurrentEventBits <- $r3
	@DEBUG_VALUE: prvTestWaitCondition:uxBitsToWaitFor <- $r5
	@DEBUG_VALUE: prvTestWaitCondition:xWaitForAllBits <- $r7
	@DEBUG_VALUE: prvTestWaitCondition:xWaitConditionMet <- 0
	@DEBUG_VALUE: xEventGroupWaitBits:uxReturn <- $r3
	@DEBUG_VALUE: xEventGroupWaitBits:xClearOnExit <- $r6
	@DEBUG_VALUE: xEventGroupWaitBits:xWaitForAllBits <- $r7
	@DEBUG_VALUE: xEventGroupWaitBits:pxEventBits <- $r4
	@DEBUG_VALUE: xEventGroupWaitBits:xEventGroup <- $r4
	@DEBUG_VALUE: xEventGroupWaitBits:uxBitsToWaitFor <- $r5
	.loc	4 0 9 is_stmt 0                 @ ../../../../../../kernel/freertos/Source/event_groups.c:0:9
	mov	r0, r1
.Ltmp167:
.LBB4_30:
	@DEBUG_VALUE: xEventGroupWaitBits:uxReturn <- $r3
	@DEBUG_VALUE: xEventGroupWaitBits:xClearOnExit <- $r6
	@DEBUG_VALUE: xEventGroupWaitBits:xWaitForAllBits <- $r7
	@DEBUG_VALUE: xEventGroupWaitBits:pxEventBits <- $r4
	@DEBUG_VALUE: xEventGroupWaitBits:xEventGroup <- $r4
	@DEBUG_VALUE: xEventGroupWaitBits:uxBitsToWaitFor <- $r5
	@DEBUG_VALUE: prvTestWaitCondition:xWaitConditionMet <- [DW_OP_LLVM_convert 1 7, DW_OP_LLVM_convert 32 7, DW_OP_stack_value] $r0
	.loc	4 433 21 is_stmt 1              @ ../../../../../../kernel/freertos/Source/event_groups.c:433:21
	cmp	r6, #0
	beq	.LBB4_33
.Ltmp168:
@ %bb.31:
	@DEBUG_VALUE: xEventGroupWaitBits:uxReturn <- $r3
	@DEBUG_VALUE: xEventGroupWaitBits:xClearOnExit <- $r6
	@DEBUG_VALUE: xEventGroupWaitBits:xWaitForAllBits <- $r7
	@DEBUG_VALUE: xEventGroupWaitBits:pxEventBits <- $r4
	@DEBUG_VALUE: xEventGroupWaitBits:xEventGroup <- $r4
	@DEBUG_VALUE: xEventGroupWaitBits:uxBitsToWaitFor <- $r5
	cmp	r0, #0
	beq	.LBB4_33
.Ltmp169:
@ %bb.32:
	@DEBUG_VALUE: xEventGroupWaitBits:uxReturn <- $r3
	@DEBUG_VALUE: xEventGroupWaitBits:xClearOnExit <- $r6
	@DEBUG_VALUE: xEventGroupWaitBits:xWaitForAllBits <- $r7
	@DEBUG_VALUE: xEventGroupWaitBits:pxEventBits <- $r4
	@DEBUG_VALUE: xEventGroupWaitBits:xEventGroup <- $r4
	@DEBUG_VALUE: xEventGroupWaitBits:uxBitsToWaitFor <- $r5
	.loc	4 437 50                        @ ../../../../../../kernel/freertos/Source/event_groups.c:437:50
	mov	r0, r3
	bics	r0, r5
	str	r0, [r4]
.Ltmp170:
.LBB4_33:
	@DEBUG_VALUE: xEventGroupWaitBits:uxReturn <- $r3
	@DEBUG_VALUE: xEventGroupWaitBits:xClearOnExit <- $r6
	@DEBUG_VALUE: xEventGroupWaitBits:xWaitForAllBits <- $r7
	@DEBUG_VALUE: xEventGroupWaitBits:pxEventBits <- $r4
	@DEBUG_VALUE: xEventGroupWaitBits:xEventGroup <- $r4
	@DEBUG_VALUE: xEventGroupWaitBits:uxBitsToWaitFor <- $r5
	@DEBUG_VALUE: xEventGroupWaitBits:xTimeoutOccurred <- 1
	.loc	4 0 50 is_stmt 0                @ ../../../../../../kernel/freertos/Source/event_groups.c:0:50
	mov	r4, r3
.Ltmp171:
	@DEBUG_VALUE: xEventGroupWaitBits:xEventGroup <- [DW_OP_LLVM_entry_value 1] $r0
	@DEBUG_VALUE: xEventGroupWaitBits:uxReturn <- $r4
	.loc	4 451 13 is_stmt 1              @ ../../../../../../kernel/freertos/Source/event_groups.c:451:13
	bl	vPortExitCritical
.Ltmp172:
	.loc	4 0 13 is_stmt 0                @ ../../../../../../kernel/freertos/Source/event_groups.c:0:13
	mov	r1, r4
.Ltmp173:
.LBB4_34:
	@DEBUG_VALUE: xEventGroupWaitBits:xClearOnExit <- $r6
	@DEBUG_VALUE: xEventGroupWaitBits:xWaitForAllBits <- $r7
	@DEBUG_VALUE: xEventGroupWaitBits:uxBitsToWaitFor <- $r5
	@DEBUG_VALUE: xEventGroupWaitBits:xTimeoutOccurred <- undef
	@DEBUG_VALUE: xEventGroupWaitBits:uxReturn <- $r1
	.loc	4 459 18 is_stmt 1              @ ../../../../../../kernel/freertos/Source/event_groups.c:459:18
	ldr	r0, __arm_cp.4_0
	ands	r1, r0
.Ltmp174:
.LBB4_35:
	@DEBUG_VALUE: xEventGroupWaitBits:xClearOnExit <- $r6
	@DEBUG_VALUE: xEventGroupWaitBits:xWaitForAllBits <- $r7
	@DEBUG_VALUE: xEventGroupWaitBits:uxBitsToWaitFor <- $r5
	@DEBUG_VALUE: xEventGroupWaitBits:xTimeoutOccurred <- undef
	@DEBUG_VALUE: xEventGroupWaitBits:uxReturn <- $r1
	.loc	4 467 5                         @ ../../../../../../kernel/freertos/Source/event_groups.c:467:5
	mov	r0, r1
.Ltmp175:
	@DEBUG_VALUE: xEventGroupWaitBits:uxReturn <- $r0
	.loc	4 467 5 epilogue_begin is_stmt 0 @ ../../../../../../kernel/freertos/Source/event_groups.c:467:5
	add	sp, #12
	pop	{r4, r5, r6, r7, pc}
.Ltmp176:
	.p2align	2
@ %bb.36:
	.loc	4 0 5                           @ ../../../../../../kernel/freertos/Source/event_groups.c:0:5
__arm_cp.4_0:
	.long	16777215                        @ 0xffffff
.Lcpi_end2:
	.size	__arm_cp.4_0, .Lcpi_end2-__arm_cp.4_0
.Lfunc_end4:
	.size	xEventGroupWaitBits, .Lfunc_end4-xEventGroupWaitBits
	.cfi_endproc
	.cantunwind
	.fnend
                                        @ -- End function
	.section	.text.xEventGroupClearBits,"ax",%progbits
	.hidden	xEventGroupClearBits            @ -- Begin function xEventGroupClearBits
	.globl	xEventGroupClearBits
	.p2align	1
	.type	xEventGroupClearBits,%function
	.code	16                              @ @xEventGroupClearBits
	.thumb_func
xEventGroupClearBits:
.Lfunc_begin5:
	.loc	4 473 0 is_stmt 1               @ ../../../../../../kernel/freertos/Source/event_groups.c:473:0
	.fnstart
	.cfi_startproc
@ %bb.0:
	@DEBUG_VALUE: xEventGroupClearBits:xEventGroup <- $r0
	@DEBUG_VALUE: xEventGroupClearBits:uxBitsToClear <- $r1
	@DEBUG_VALUE: xEventGroupClearBits:uxBitsToClear <- $r1
	@DEBUG_VALUE: xEventGroupClearBits:xEventGroup <- $r0
	.save	{r4, r5, r6, lr}
	push	{r4, r5, r6, lr}
	.cfi_def_cfa_offset 16
	.cfi_offset lr, -4
	.cfi_offset r6, -8
	.cfi_offset r5, -12
	.cfi_offset r4, -16
.Ltmp177:
	@DEBUG_VALUE: xEventGroupClearBits:pxEventBits <- $r0
	@DEBUG_VALUE: xEventGroupClearBits:pxEventBits <- $r0
	.loc	4 479 5 prologue_end            @ ../../../../../../kernel/freertos/Source/event_groups.c:479:5
	cmp	r0, #0
	beq	.LBB5_4
.Ltmp178:
@ %bb.1:
	@DEBUG_VALUE: xEventGroupClearBits:pxEventBits <- $r0
	@DEBUG_VALUE: xEventGroupClearBits:uxBitsToClear <- $r1
	@DEBUG_VALUE: xEventGroupClearBits:xEventGroup <- $r0
	.loc	4 0 5 is_stmt 0                 @ ../../../../../../kernel/freertos/Source/event_groups.c:0:5
	mov	r5, r1
.Ltmp179:
	@DEBUG_VALUE: xEventGroupClearBits:uxBitsToClear <- $r5
	mov	r4, r0
.Ltmp180:
	@DEBUG_VALUE: xEventGroupClearBits:xEventGroup <- $r4
	@DEBUG_VALUE: xEventGroupClearBits:pxEventBits <- $r4
	.loc	4 480 5 is_stmt 1               @ ../../../../../../kernel/freertos/Source/event_groups.c:480:5
	lsrs	r0, r1, #24
	beq	.LBB5_6
.Ltmp181:
@ %bb.2:
	@DEBUG_VALUE: xEventGroupClearBits:pxEventBits <- $r4
	@DEBUG_VALUE: xEventGroupClearBits:xEventGroup <- $r4
	@DEBUG_VALUE: xEventGroupClearBits:uxBitsToClear <- $r5
	.loc	4 480 5 is_stmt 0               @ ../../../../../../kernel/freertos/Source/event_groups.c:480:5
	@APP
	cpsid i
	@NO_APP
.Ltmp182:
.LBB5_3:                                @ =>This Inner Loop Header: Depth=1
	@DEBUG_VALUE: xEventGroupClearBits:pxEventBits <- $r4
	@DEBUG_VALUE: xEventGroupClearBits:xEventGroup <- $r4
	@DEBUG_VALUE: xEventGroupClearBits:uxBitsToClear <- $r5
	.loc	4 480 5                         @ ../../../../../../kernel/freertos/Source/event_groups.c:480:5
	b	.LBB5_3
.Ltmp183:
.LBB5_4:
	@DEBUG_VALUE: xEventGroupClearBits:pxEventBits <- $r0
	@DEBUG_VALUE: xEventGroupClearBits:uxBitsToClear <- $r1
	@DEBUG_VALUE: xEventGroupClearBits:xEventGroup <- $r0
	.loc	4 479 5 is_stmt 1               @ ../../../../../../kernel/freertos/Source/event_groups.c:479:5
	@APP
	cpsid i
	@NO_APP
.Ltmp184:
.LBB5_5:                                @ =>This Inner Loop Header: Depth=1
	@DEBUG_VALUE: xEventGroupClearBits:pxEventBits <- $r0
	@DEBUG_VALUE: xEventGroupClearBits:uxBitsToClear <- $r1
	@DEBUG_VALUE: xEventGroupClearBits:xEventGroup <- $r0
	.loc	4 479 5 is_stmt 0               @ ../../../../../../kernel/freertos/Source/event_groups.c:479:5
	b	.LBB5_5
.Ltmp185:
.LBB5_6:
	@DEBUG_VALUE: xEventGroupClearBits:pxEventBits <- $r4
	@DEBUG_VALUE: xEventGroupClearBits:xEventGroup <- $r4
	@DEBUG_VALUE: xEventGroupClearBits:uxBitsToClear <- $r5
	.loc	4 482 5 is_stmt 1               @ ../../../../../../kernel/freertos/Source/event_groups.c:482:5
	bl	vPortEnterCritical
.Ltmp186:
	.loc	4 488 33                        @ ../../../../../../kernel/freertos/Source/event_groups.c:488:33
	ldr	r6, [r4]
.Ltmp187:
	@DEBUG_VALUE: xEventGroupClearBits:uxReturn <- $r6
	.loc	4 491 34                        @ ../../../../../../kernel/freertos/Source/event_groups.c:491:34
	mov	r0, r6
	bics	r0, r5
	str	r0, [r4]
.Ltmp188:
	.loc	4 493 5                         @ ../../../../../../kernel/freertos/Source/event_groups.c:493:5
	bl	vPortExitCritical
.Ltmp189:
	.loc	4 495 5                         @ ../../../../../../kernel/freertos/Source/event_groups.c:495:5
	mov	r0, r6
.Ltmp190:
	@DEBUG_VALUE: xEventGroupClearBits:uxReturn <- $r0
	.loc	4 495 5 epilogue_begin is_stmt 0 @ ../../../../../../kernel/freertos/Source/event_groups.c:495:5
	pop	{r4, r5, r6, pc}
.Ltmp191:
.Lfunc_end5:
	.size	xEventGroupClearBits, .Lfunc_end5-xEventGroupClearBits
	.cfi_endproc
	.cantunwind
	.fnend
                                        @ -- End function
	.section	.text.xEventGroupGetBitsFromISR,"ax",%progbits
	.hidden	xEventGroupGetBitsFromISR       @ -- Begin function xEventGroupGetBitsFromISR
	.globl	xEventGroupGetBitsFromISR
	.p2align	1
	.type	xEventGroupGetBitsFromISR,%function
	.code	16                              @ @xEventGroupGetBitsFromISR
	.thumb_func
xEventGroupGetBitsFromISR:
.Lfunc_begin6:
	.loc	4 516 0 is_stmt 1               @ ../../../../../../kernel/freertos/Source/event_groups.c:516:0
	.fnstart
	.cfi_startproc
@ %bb.0:
	@DEBUG_VALUE: xEventGroupGetBitsFromISR:xEventGroup <- $r0
	.save	{r4, lr}
	push	{r4, lr}
	.cfi_def_cfa_offset 8
	.cfi_offset lr, -4
	.cfi_offset r4, -8
.Ltmp192:
	@DEBUG_VALUE: xEventGroupGetBitsFromISR:pxEventBits <- $r0
	mov	r4, r0
.Ltmp193:
	@DEBUG_VALUE: xEventGroupGetBitsFromISR:pxEventBits <- $r4
	@DEBUG_VALUE: xEventGroupGetBitsFromISR:xEventGroup <- $r4
	.loc	4 521 30 prologue_end           @ ../../../../../../kernel/freertos/Source/event_groups.c:521:30
	bl	ulSetInterruptMaskFromISR
.Ltmp194:
	@DEBUG_VALUE: xEventGroupGetBitsFromISR:uxSavedInterruptStatus <- $r0
	.loc	4 523 33                        @ ../../../../../../kernel/freertos/Source/event_groups.c:523:33
	ldr	r4, [r4]
.Ltmp195:
	@DEBUG_VALUE: xEventGroupGetBitsFromISR:xEventGroup <- [DW_OP_LLVM_entry_value 1] $r0
	@DEBUG_VALUE: xEventGroupGetBitsFromISR:uxReturn <- $r4
	.loc	4 525 5                         @ ../../../../../../kernel/freertos/Source/event_groups.c:525:5
	bl	vClearInterruptMaskFromISR
.Ltmp196:
	.loc	4 527 5                         @ ../../../../../../kernel/freertos/Source/event_groups.c:527:5
	mov	r0, r4
.Ltmp197:
	@DEBUG_VALUE: xEventGroupGetBitsFromISR:uxReturn <- $r0
	.loc	4 527 5 epilogue_begin is_stmt 0 @ ../../../../../../kernel/freertos/Source/event_groups.c:527:5
	pop	{r4, pc}
.Ltmp198:
.Lfunc_end6:
	.size	xEventGroupGetBitsFromISR, .Lfunc_end6-xEventGroupGetBitsFromISR
	.cfi_endproc
	.cantunwind
	.fnend
                                        @ -- End function
	.section	.text.vEventGroupDelete,"ax",%progbits
	.hidden	vEventGroupDelete               @ -- Begin function vEventGroupDelete
	.globl	vEventGroupDelete
	.p2align	1
	.type	vEventGroupDelete,%function
	.code	16                              @ @vEventGroupDelete
	.thumb_func
vEventGroupDelete:
.Lfunc_begin7:
	.loc	4 627 0 is_stmt 1               @ ../../../../../../kernel/freertos/Source/event_groups.c:627:0
	.fnstart
	.cfi_startproc
@ %bb.0:
	@DEBUG_VALUE: vEventGroupDelete:xEventGroup <- $r0
	@DEBUG_VALUE: vEventGroupDelete:xEventGroup <- $r0
	.save	{r4, r5, r7, lr}
	push	{r4, r5, r7, lr}
	.cfi_def_cfa_offset 16
	.cfi_offset lr, -4
	.cfi_offset r7, -8
	.cfi_offset r5, -12
	.cfi_offset r4, -16
.Ltmp199:
	@DEBUG_VALUE: vEventGroupDelete:pxEventBits <- $r0
	@DEBUG_VALUE: vEventGroupDelete:pxEventBits <- $r0
	.loc	4 631 5 prologue_end            @ ../../../../../../kernel/freertos/Source/event_groups.c:631:5
	cmp	r0, #0
	beq	.LBB7_7
.Ltmp200:
@ %bb.1:
	@DEBUG_VALUE: vEventGroupDelete:pxEventBits <- $r0
	@DEBUG_VALUE: vEventGroupDelete:xEventGroup <- $r0
	.loc	4 0 5 is_stmt 0                 @ ../../../../../../kernel/freertos/Source/event_groups.c:0:5
	mov	r4, r0
.Ltmp201:
	@DEBUG_VALUE: vEventGroupDelete:xEventGroup <- $r4
	@DEBUG_VALUE: vEventGroupDelete:pxEventBits <- $r4
	.loc	4 635 5 is_stmt 1               @ ../../../../../../kernel/freertos/Source/event_groups.c:635:5
	bl	vTaskSuspendAll
.Ltmp202:
	@DEBUG_VALUE: vEventGroupDelete:pxTasksWaitingForBits <- [DW_OP_plus_uconst 4, DW_OP_stack_value] $r4
	.loc	4 639 16                        @ ../../../../../../kernel/freertos/Source/event_groups.c:639:16
	ldr	r0, [r4, #4]
	.loc	4 639 9 is_stmt 0               @ ../../../../../../kernel/freertos/Source/event_groups.c:639:9
	cmp	r0, #0
	beq	.LBB7_5
.Ltmp203:
@ %bb.2:
	@DEBUG_VALUE: vEventGroupDelete:pxTasksWaitingForBits <- [DW_OP_plus_uconst 4, DW_OP_stack_value] $r4
	@DEBUG_VALUE: vEventGroupDelete:pxEventBits <- $r4
	@DEBUG_VALUE: vEventGroupDelete:xEventGroup <- $r4
	.loc	4 0 9                           @ ../../../../../../kernel/freertos/Source/event_groups.c:0:9
	mov	r5, r4
	adds	r5, #12
.Ltmp204:
.LBB7_3:                                @ =>This Inner Loop Header: Depth=1
	@DEBUG_VALUE: vEventGroupDelete:pxTasksWaitingForBits <- [DW_OP_plus_uconst 4, DW_OP_stack_value] $r4
	@DEBUG_VALUE: vEventGroupDelete:pxEventBits <- $r4
	@DEBUG_VALUE: vEventGroupDelete:xEventGroup <- $r4
	.loc	4 643 13 is_stmt 1              @ ../../../../../../kernel/freertos/Source/event_groups.c:643:13
	ldr	r0, [r4, #16]
.Ltmp205:
	.loc	4 643 13 is_stmt 0              @ ../../../../../../kernel/freertos/Source/event_groups.c:643:13
	cmp	r0, r5
	beq	.LBB7_9
.Ltmp206:
@ %bb.4:                                @   in Loop: Header=BB7_3 Depth=1
	@DEBUG_VALUE: vEventGroupDelete:pxTasksWaitingForBits <- [DW_OP_plus_uconst 4, DW_OP_stack_value] $r4
	@DEBUG_VALUE: vEventGroupDelete:pxEventBits <- $r4
	@DEBUG_VALUE: vEventGroupDelete:xEventGroup <- $r4
	.loc	4 0 13                          @ ../../../../../../kernel/freertos/Source/event_groups.c:0:13
	movs	r1, #1
	lsls	r1, r1, #25
	.loc	4 644 13 is_stmt 1              @ ../../../../../../kernel/freertos/Source/event_groups.c:644:13
	bl	vTaskRemoveFromUnorderedEventList
.Ltmp207:
	.loc	4 639 16                        @ ../../../../../../kernel/freertos/Source/event_groups.c:639:16
	ldr	r0, [r4, #4]
	.loc	4 639 9 is_stmt 0               @ ../../../../../../kernel/freertos/Source/event_groups.c:639:9
	cmp	r0, #0
	bne	.LBB7_3
.Ltmp208:
.LBB7_5:
	@DEBUG_VALUE: vEventGroupDelete:pxTasksWaitingForBits <- [DW_OP_plus_uconst 4, DW_OP_stack_value] $r4
	@DEBUG_VALUE: vEventGroupDelete:pxEventBits <- $r4
	@DEBUG_VALUE: vEventGroupDelete:xEventGroup <- $r4
	.loc	4 657 34 is_stmt 1              @ ../../../../../../kernel/freertos/Source/event_groups.c:657:34
	ldrb	r0, [r4, #28]
.Ltmp209:
	.loc	4 657 21 is_stmt 0              @ ../../../../../../kernel/freertos/Source/event_groups.c:657:21
	cmp	r0, #0
	beq	.LBB7_11
.Ltmp210:
@ %bb.6:
	@DEBUG_VALUE: vEventGroupDelete:pxTasksWaitingForBits <- [DW_OP_plus_uconst 4, DW_OP_stack_value] $r4
	@DEBUG_VALUE: vEventGroupDelete:pxEventBits <- $r4
	@DEBUG_VALUE: vEventGroupDelete:xEventGroup <- $r4
	.loc	4 668 14 is_stmt 1              @ ../../../../../../kernel/freertos/Source/event_groups.c:668:14
	bl	xTaskResumeAll
.Ltmp211:
	.loc	4 669 1 epilogue_begin          @ ../../../../../../kernel/freertos/Source/event_groups.c:669:1
	pop	{r4, r5, r7, pc}
.Ltmp212:
.LBB7_7:
	@DEBUG_VALUE: vEventGroupDelete:pxEventBits <- $r0
	@DEBUG_VALUE: vEventGroupDelete:xEventGroup <- $r0
	.loc	4 631 5                         @ ../../../../../../kernel/freertos/Source/event_groups.c:631:5
	@APP
	cpsid i
	@NO_APP
.Ltmp213:
.LBB7_8:                                @ =>This Inner Loop Header: Depth=1
	@DEBUG_VALUE: vEventGroupDelete:pxEventBits <- $r0
	@DEBUG_VALUE: vEventGroupDelete:xEventGroup <- $r0
	.loc	4 631 5 is_stmt 0               @ ../../../../../../kernel/freertos/Source/event_groups.c:631:5
	b	.LBB7_8
.Ltmp214:
.LBB7_9:
	@DEBUG_VALUE: vEventGroupDelete:pxTasksWaitingForBits <- [DW_OP_plus_uconst 4, DW_OP_stack_value] $r4
	@DEBUG_VALUE: vEventGroupDelete:pxEventBits <- $r4
	@DEBUG_VALUE: vEventGroupDelete:xEventGroup <- $r4
	.loc	4 643 13 is_stmt 1              @ ../../../../../../kernel/freertos/Source/event_groups.c:643:13
	@APP
	cpsid i
	@NO_APP
.Ltmp215:
.LBB7_10:                               @ =>This Inner Loop Header: Depth=1
	@DEBUG_VALUE: vEventGroupDelete:pxTasksWaitingForBits <- [DW_OP_plus_uconst 4, DW_OP_stack_value] $r4
	@DEBUG_VALUE: vEventGroupDelete:pxEventBits <- $r4
	@DEBUG_VALUE: vEventGroupDelete:xEventGroup <- $r4
	.loc	4 643 13 is_stmt 0              @ ../../../../../../kernel/freertos/Source/event_groups.c:643:13
	b	.LBB7_10
.Ltmp216:
.LBB7_11:
	@DEBUG_VALUE: vEventGroupDelete:pxTasksWaitingForBits <- [DW_OP_plus_uconst 4, DW_OP_stack_value] $r4
	@DEBUG_VALUE: vEventGroupDelete:pxEventBits <- $r4
	@DEBUG_VALUE: vEventGroupDelete:xEventGroup <- $r4
	.loc	4 659 21 is_stmt 1              @ ../../../../../../kernel/freertos/Source/event_groups.c:659:21
	mov	r0, r4
.Ltmp217:
	@DEBUG_VALUE: vEventGroupDelete:xEventGroup <- $r0
	bl	vPortFree
.Ltmp218:
	@DEBUG_VALUE: vEventGroupDelete:xEventGroup <- [DW_OP_LLVM_entry_value 1] $r0
	.loc	4 668 14                        @ ../../../../../../kernel/freertos/Source/event_groups.c:668:14
	bl	xTaskResumeAll
.Ltmp219:
	.loc	4 669 1 epilogue_begin          @ ../../../../../../kernel/freertos/Source/event_groups.c:669:1
	pop	{r4, r5, r7, pc}
.Ltmp220:
.Lfunc_end7:
	.size	vEventGroupDelete, .Lfunc_end7-vEventGroupDelete
	.cfi_endproc
	.cantunwind
	.fnend
                                        @ -- End function
	.section	.text.vEventGroupSetBitsCallback,"ax",%progbits
	.hidden	vEventGroupSetBitsCallback      @ -- Begin function vEventGroupSetBitsCallback
	.globl	vEventGroupSetBitsCallback
	.p2align	1
	.type	vEventGroupSetBitsCallback,%function
	.code	16                              @ @vEventGroupSetBitsCallback
	.thumb_func
vEventGroupSetBitsCallback:
.Lfunc_begin8:
	.loc	4 676 0                         @ ../../../../../../kernel/freertos/Source/event_groups.c:676:0
	.fnstart
	.cfi_startproc
@ %bb.0:
	@DEBUG_VALUE: vEventGroupSetBitsCallback:pvEventGroup <- $r0
	@DEBUG_VALUE: vEventGroupSetBitsCallback:ulBitsToSet <- $r1
	.save	{r7, lr}
	push	{r7, lr}
	.cfi_def_cfa_offset 8
	.cfi_offset lr, -4
	.cfi_offset r7, -8
.Ltmp221:
	.loc	4 677 14 prologue_end           @ ../../../../../../kernel/freertos/Source/event_groups.c:677:14
	bl	xEventGroupSetBits
.Ltmp222:
	@DEBUG_VALUE: vEventGroupSetBitsCallback:ulBitsToSet <- [DW_OP_LLVM_entry_value 1] $r1
	@DEBUG_VALUE: vEventGroupSetBitsCallback:pvEventGroup <- [DW_OP_LLVM_entry_value 1] $r0
	.loc	4 678 1 epilogue_begin          @ ../../../../../../kernel/freertos/Source/event_groups.c:678:1
	pop	{r7, pc}
.Ltmp223:
.Lfunc_end8:
	.size	vEventGroupSetBitsCallback, .Lfunc_end8-vEventGroupSetBitsCallback
	.cfi_endproc
	.cantunwind
	.fnend
                                        @ -- End function
	.section	.text.vEventGroupClearBitsCallback,"ax",%progbits
	.hidden	vEventGroupClearBitsCallback    @ -- Begin function vEventGroupClearBitsCallback
	.globl	vEventGroupClearBitsCallback
	.p2align	1
	.type	vEventGroupClearBitsCallback,%function
	.code	16                              @ @vEventGroupClearBitsCallback
	.thumb_func
vEventGroupClearBitsCallback:
.Lfunc_begin9:
	.loc	4 685 0                         @ ../../../../../../kernel/freertos/Source/event_groups.c:685:0
	.fnstart
	.cfi_startproc
@ %bb.0:
	@DEBUG_VALUE: vEventGroupClearBitsCallback:pvEventGroup <- $r0
	@DEBUG_VALUE: vEventGroupClearBitsCallback:ulBitsToClear <- $r1
	@DEBUG_VALUE: xEventGroupClearBits:xEventGroup <- $r0
	@DEBUG_VALUE: xEventGroupClearBits:uxBitsToClear <- $r1
	@DEBUG_VALUE: vEventGroupClearBitsCallback:ulBitsToClear <- $r1
	@DEBUG_VALUE: xEventGroupClearBits:uxBitsToClear <- $r1
	@DEBUG_VALUE: xEventGroupClearBits:xEventGroup <- $r0
	@DEBUG_VALUE: vEventGroupClearBitsCallback:pvEventGroup <- $r0
	.save	{r4, r5, r7, lr}
	push	{r4, r5, r7, lr}
	.cfi_def_cfa_offset 16
	.cfi_offset lr, -4
	.cfi_offset r7, -8
	.cfi_offset r5, -12
	.cfi_offset r4, -16
.Ltmp224:
	@DEBUG_VALUE: xEventGroupClearBits:pxEventBits <- $r0
	@DEBUG_VALUE: xEventGroupClearBits:pxEventBits <- $r0
	.loc	4 479 5 prologue_end            @ ../../../../../../kernel/freertos/Source/event_groups.c:479:5
	cmp	r0, #0
	beq	.LBB9_4
.Ltmp225:
@ %bb.1:
	@DEBUG_VALUE: xEventGroupClearBits:pxEventBits <- $r0
	@DEBUG_VALUE: xEventGroupClearBits:uxBitsToClear <- $r1
	@DEBUG_VALUE: xEventGroupClearBits:xEventGroup <- $r0
	@DEBUG_VALUE: vEventGroupClearBitsCallback:ulBitsToClear <- $r1
	@DEBUG_VALUE: vEventGroupClearBitsCallback:pvEventGroup <- $r0
	.loc	4 0 5 is_stmt 0                 @ ../../../../../../kernel/freertos/Source/event_groups.c:0:5
	mov	r5, r1
.Ltmp226:
	@DEBUG_VALUE: xEventGroupClearBits:uxBitsToClear <- $r5
	@DEBUG_VALUE: vEventGroupClearBitsCallback:ulBitsToClear <- $r5
	mov	r4, r0
.Ltmp227:
	@DEBUG_VALUE: vEventGroupClearBitsCallback:pvEventGroup <- $r4
	@DEBUG_VALUE: xEventGroupClearBits:xEventGroup <- $r4
	@DEBUG_VALUE: xEventGroupClearBits:pxEventBits <- $r4
	.loc	4 480 5 is_stmt 1               @ ../../../../../../kernel/freertos/Source/event_groups.c:480:5
	lsrs	r0, r1, #24
	beq	.LBB9_6
.Ltmp228:
@ %bb.2:
	@DEBUG_VALUE: xEventGroupClearBits:pxEventBits <- $r4
	@DEBUG_VALUE: xEventGroupClearBits:xEventGroup <- $r4
	@DEBUG_VALUE: vEventGroupClearBitsCallback:pvEventGroup <- $r4
	@DEBUG_VALUE: vEventGroupClearBitsCallback:ulBitsToClear <- $r5
	@DEBUG_VALUE: xEventGroupClearBits:uxBitsToClear <- $r5
	.loc	4 480 5 is_stmt 0               @ ../../../../../../kernel/freertos/Source/event_groups.c:480:5
	@APP
	cpsid i
	@NO_APP
.Ltmp229:
.LBB9_3:                                @ =>This Inner Loop Header: Depth=1
	@DEBUG_VALUE: xEventGroupClearBits:pxEventBits <- $r4
	@DEBUG_VALUE: xEventGroupClearBits:xEventGroup <- $r4
	@DEBUG_VALUE: vEventGroupClearBitsCallback:pvEventGroup <- $r4
	@DEBUG_VALUE: vEventGroupClearBitsCallback:ulBitsToClear <- $r5
	@DEBUG_VALUE: xEventGroupClearBits:uxBitsToClear <- $r5
	.loc	4 480 5                         @ ../../../../../../kernel/freertos/Source/event_groups.c:480:5
	b	.LBB9_3
.Ltmp230:
.LBB9_4:
	@DEBUG_VALUE: xEventGroupClearBits:pxEventBits <- $r0
	@DEBUG_VALUE: xEventGroupClearBits:uxBitsToClear <- $r1
	@DEBUG_VALUE: xEventGroupClearBits:xEventGroup <- $r0
	@DEBUG_VALUE: vEventGroupClearBitsCallback:ulBitsToClear <- $r1
	@DEBUG_VALUE: vEventGroupClearBitsCallback:pvEventGroup <- $r0
	.loc	4 479 5 is_stmt 1               @ ../../../../../../kernel/freertos/Source/event_groups.c:479:5
	@APP
	cpsid i
	@NO_APP
.Ltmp231:
.LBB9_5:                                @ =>This Inner Loop Header: Depth=1
	@DEBUG_VALUE: xEventGroupClearBits:pxEventBits <- $r0
	@DEBUG_VALUE: xEventGroupClearBits:uxBitsToClear <- $r1
	@DEBUG_VALUE: xEventGroupClearBits:xEventGroup <- $r0
	@DEBUG_VALUE: vEventGroupClearBitsCallback:ulBitsToClear <- $r1
	@DEBUG_VALUE: vEventGroupClearBitsCallback:pvEventGroup <- $r0
	.loc	4 479 5 is_stmt 0               @ ../../../../../../kernel/freertos/Source/event_groups.c:479:5
	b	.LBB9_5
.Ltmp232:
.LBB9_6:
	@DEBUG_VALUE: xEventGroupClearBits:pxEventBits <- $r4
	@DEBUG_VALUE: xEventGroupClearBits:xEventGroup <- $r4
	@DEBUG_VALUE: vEventGroupClearBitsCallback:pvEventGroup <- $r4
	@DEBUG_VALUE: vEventGroupClearBitsCallback:ulBitsToClear <- $r5
	@DEBUG_VALUE: xEventGroupClearBits:uxBitsToClear <- $r5
	.loc	4 482 5 is_stmt 1               @ ../../../../../../kernel/freertos/Source/event_groups.c:482:5
	bl	vPortEnterCritical
.Ltmp233:
	.loc	4 488 33                        @ ../../../../../../kernel/freertos/Source/event_groups.c:488:33
	ldr	r0, [r4]
.Ltmp234:
	@DEBUG_VALUE: xEventGroupClearBits:uxReturn <- $r0
	.loc	4 491 34                        @ ../../../../../../kernel/freertos/Source/event_groups.c:491:34
	bics	r0, r5
.Ltmp235:
	str	r0, [r4]
.Ltmp236:
	.loc	4 493 5                         @ ../../../../../../kernel/freertos/Source/event_groups.c:493:5
	bl	vPortExitCritical
.Ltmp237:
	.loc	4 687 1 epilogue_begin          @ ../../../../../../kernel/freertos/Source/event_groups.c:687:1
	pop	{r4, r5, r7, pc}
.Ltmp238:
.Lfunc_end9:
	.size	vEventGroupClearBitsCallback, .Lfunc_end9-vEventGroupClearBitsCallback
	.cfi_endproc
	.cantunwind
	.fnend
                                        @ -- End function
	.section	.text.uxEventGroupGetNumber,"ax",%progbits
	.hidden	uxEventGroupGetNumber           @ -- Begin function uxEventGroupGetNumber
	.globl	uxEventGroupGetNumber
	.p2align	1
	.type	uxEventGroupGetNumber,%function
	.code	16                              @ @uxEventGroupGetNumber
	.thumb_func
uxEventGroupGetNumber:
.Lfunc_begin10:
	.fnstart
	.cfi_startproc
@ %bb.0:
	@DEBUG_VALUE: uxEventGroupGetNumber:xEventGroup <- $r0
	@DEBUG_VALUE: uxEventGroupGetNumber:pxEventBits <- $r0
	.loc	4 751 13 prologue_end           @ ../../../../../../kernel/freertos/Source/event_groups.c:751:13
	cmp	r0, #0
	beq	.LBB10_2
.Ltmp239:
@ %bb.1:
	@DEBUG_VALUE: uxEventGroupGetNumber:pxEventBits <- $r0
	@DEBUG_VALUE: uxEventGroupGetNumber:xEventGroup <- $r0
	.loc	4 757 36                        @ ../../../../../../kernel/freertos/Source/event_groups.c:757:36
	ldr	r0, [r0, #24]
.Ltmp240:
	@DEBUG_VALUE: uxEventGroupGetNumber:xEventGroup <- [DW_OP_LLVM_entry_value 1] $r0
	@DEBUG_VALUE: uxEventGroupGetNumber:xReturn <- $r0
	@DEBUG_VALUE: uxEventGroupGetNumber:xReturn <- $r0
	.loc	4 760 9                         @ ../../../../../../kernel/freertos/Source/event_groups.c:760:9
	bx	lr
.Ltmp241:
.LBB10_2:
	@DEBUG_VALUE: uxEventGroupGetNumber:pxEventBits <- $r0
	@DEBUG_VALUE: uxEventGroupGetNumber:xEventGroup <- $r0
	.loc	4 0 9 is_stmt 0                 @ ../../../../../../kernel/freertos/Source/event_groups.c:0:9
	movs	r0, #0
.Ltmp242:
	@DEBUG_VALUE: uxEventGroupGetNumber:xEventGroup <- [DW_OP_LLVM_entry_value 1] $r0
	@DEBUG_VALUE: uxEventGroupGetNumber:xReturn <- $r0
	.loc	4 760 9                         @ ../../../../../../kernel/freertos/Source/event_groups.c:760:9
	bx	lr
.Ltmp243:
.Lfunc_end10:
	.size	uxEventGroupGetNumber, .Lfunc_end10-uxEventGroupGetNumber
	.cfi_endproc
	.cantunwind
	.fnend
                                        @ -- End function
	.section	.text.vEventGroupSetNumber,"ax",%progbits
	.hidden	vEventGroupSetNumber            @ -- Begin function vEventGroupSetNumber
	.globl	vEventGroupSetNumber
	.p2align	1
	.type	vEventGroupSetNumber,%function
	.code	16                              @ @vEventGroupSetNumber
	.thumb_func
vEventGroupSetNumber:
.Lfunc_begin11:
	.fnstart
	.cfi_startproc
@ %bb.0:
	@DEBUG_VALUE: vEventGroupSetNumber:xEventGroup <- $r0
	@DEBUG_VALUE: vEventGroupSetNumber:uxEventGroupNumber <- $r1
	.loc	4 771 64 prologue_end is_stmt 1 @ ../../../../../../kernel/freertos/Source/event_groups.c:771:64
	str	r1, [r0, #24]
	.loc	4 772 5                         @ ../../../../../../kernel/freertos/Source/event_groups.c:772:5
	bx	lr
.Ltmp244:
.Lfunc_end11:
	.size	vEventGroupSetNumber, .Lfunc_end11-vEventGroupSetNumber
	.cfi_endproc
	.cantunwind
	.fnend
                                        @ -- End function
	.file	6 "I:\\Keil5\\keil5_mdk\\ARM\\ARMCLANG\\Bin\\..\\include" "stdlib.h"
	.file	7 "D:\\TI_M0G3507\\mspm0_sdk_2_05_00_05\\kernel\\freertos\\builds\\LP_MSPM0G3507\\release\\keil" "../../../../../../kernel/freertos/Source/include\\FreeRTOS.h"
	.section	".note.GNU-stack","",%progbits
	.eabi_attribute	30, 1	@ Tag_ABI_optimization_goals
	.ARM_attribute	16, 1	@ Tag_AV_eba