	.text
	.syntax unified
	.eabi_attribute	67, "2.09"	@ Tag_conformance
	.cpu	cortex-m0plus
	.eabi_attribute	6, 12	@ Tag_CPU_arch
	.eabi_attribute	7, 77	@ Tag_CPU_arch_profile
	.eabi_attribute	8, 0	@ Tag_ARM_ISA_use
	.eabi_attribute	9, 1	@ Tag_THUMB_ISA_use
	.eabi_attribute	34, 0	@ Tag_CPU_unaligned_access
	.eabi_attribute	17, 1	@ Tag_ABI_PCS_GOT_use
	.eabi_attribute	20, 2	@ Tag_ABI_FP_denormal
	.eabi_attribute	21, 0	@ Tag_ABI_FP_exceptions
	.eabi_attribute	23, 1	@ Tag_ABI_FP_number_model
	.eabi_attribute	24, 1	@ Tag_ABI_align_needed
	.eabi_attribute	25, 1	@ Tag_ABI_align_preserved
	.eabi_attribute	38, 1	@ Tag_ABI_FP_16bit_format
	.eabi_attribute	18, 2	@ Tag_ABI_PCS_wchar_t
	.eabi_attribute	26, 1	@ Tag_ABI_enum_size
	.eabi_attribute	14, 0	@ Tag_ABI_PCS_R9_use
	.file	"heap_4.c"
	.file	1 "I:\\Keil5\\keil5_mdk\\ARM\\ARMCLANG\\Bin\\..\\include" "stdlib.h"
	.file	2 "D:\\TI_M0G3507\\mspm0_sdk_2_05_00_05\\kernel\\freertos\\builds\\LP_MSPM0G3507\\release\\keil" "../../../../../../kernel/freertos/Source/portable/MemMang/heap_4.c"
	.file	3 "I:\\Keil5\\keil5_mdk\\ARM\\ARMCLANG\\Bin\\..\\include" "stdint.h"
	.file	4 "D:\\TI_M0G3507\\mspm0_sdk_2_05_00_05\\kernel\\freertos\\builds\\LP_MSPM0G3507\\release\\keil" "../../../../../../kernel/freertos/Source/portable/GCC/ARM_CM0\\portmacro.h"
	.section	.text.pvPortMalloc,"ax",%progbits
	.hidden	pvPortMalloc                    @ -- Begin function pvPortMalloc
	.globl	pvPortMalloc
	.p2align	2
	.type	pvPortMalloc,%function
	.code	16                              @ @pvPortMalloc
	.thumb_func
pvPortMalloc:
.Lfunc_begin0:
	.loc	2 116 0                         @ ../../../../../../kernel/freertos/Source/portable/MemMang/heap_4.c:116:0
	.fnstart
	.cfi_sections .debug_frame
	.cfi_startproc
@ %bb.0:
	@DEBUG_VALUE: pvPortMalloc:xWantedSize <- $r0
	.save	{r4, r5, r6, r7, lr}
	push	{r4, r5, r6, r7, lr}
	.cfi_def_cfa_offset 20
	.cfi_offset lr, -4
	.cfi_offset r7, -8
	.cfi_offset r6, -12
	.cfi_offset r5, -16
	.cfi_offset r4, -20
	.pad	#12
	sub	sp, #12
	.cfi_def_cfa_offset 32
	mov	r5, r0
.Ltmp0:
	@DEBUG_VALUE: pvPortMalloc:pvReturn <- 0
	@DEBUG_VALUE: pvPortMalloc:xWantedSize <- $r5
	.loc	2 120 5 prologue_end            @ ../../../../../../kernel/freertos/Source/portable/MemMang/heap_4.c:120:5
	bl	vTaskSuspendAll
.Ltmp1:
	.loc	2 0 5 is_stmt 0                 @ ../../../../../../kernel/freertos/Source/portable/MemMang/heap_4.c:0:5
	movs	r2, #1
	lsls	r0, r2, #31
.Ltmp2:
	.loc	2 124 13 is_stmt 1              @ ../../../../../../kernel/freertos/Source/portable/MemMang/heap_4.c:124:13
	ldr	r1, __arm_cp.0_0
	ldr	r3, [r1]
.Ltmp3:
	.loc	2 124 13 is_stmt 0              @ ../../../../../../kernel/freertos/Source/portable/MemMang/heap_4.c:124:13
	cmp	r3, #0
	beq	.LBB0_3
.Ltmp4:
@ %bb.1:
	@DEBUG_VALUE: pvPortMalloc:xWantedSize <- $r5
	@DEBUG_VALUE: pvPortMalloc:pvReturn <- 0
	.loc	2 137 29 is_stmt 1              @ ../../../../../../kernel/freertos/Source/portable/MemMang/heap_4.c:137:29
	ldr	r2, __arm_cp.0_1
	ldrb	r3, [r2]
	cmp	r3, #0
	mov	r2, r0
	bne	.LBB0_6
.Ltmp5:
@ %bb.2:
	@DEBUG_VALUE: pvPortMalloc:xWantedSize <- $r5
	@DEBUG_VALUE: pvPortMalloc:pvReturn <- 0
	.loc	2 0 29 is_stmt 0                @ ../../../../../../kernel/freertos/Source/portable/MemMang/heap_4.c:0:29
	mov	r2, r3
	b	.LBB0_6
.Ltmp6:
.LBB0_3:
	@DEBUG_VALUE: pvPortMalloc:xWantedSize <- $r5
	@DEBUG_VALUE: pvPortMalloc:pvReturn <- 0
	movs	r3, #7
	mvns	r4, r3
.Ltmp7:
	@DEBUG_VALUE: prvHeapInit:xTotalHeapSize <- 3072
	.loc	2 352 21 is_stmt 1              @ ../../../../../../kernel/freertos/Source/portable/MemMang/heap_4.c:352:21
	ldr	r6, __arm_cp.0_2
.Ltmp8:
	@DEBUG_VALUE: prvHeapInit:uxAddress <- $r6
	.loc	2 352 9 is_stmt 0               @ ../../../../../../kernel/freertos/Source/portable/MemMang/heap_4.c:352:9
	lsls	r3, r6, #29
	mov	r3, r6
	beq	.LBB0_5
.Ltmp9:
@ %bb.4:
	@DEBUG_VALUE: prvHeapInit:uxAddress <- $r6
	@DEBUG_VALUE: prvHeapInit:xTotalHeapSize <- 3072
	@DEBUG_VALUE: pvPortMalloc:xWantedSize <- $r5
	@DEBUG_VALUE: pvPortMalloc:pvReturn <- 0
	.loc	2 0 9                           @ ../../../../../../kernel/freertos/Source/portable/MemMang/heap_4.c:0:9
	adds	r3, r6, #7
	ands	r3, r4
.Ltmp10:
.LBB0_5:
	@DEBUG_VALUE: prvHeapInit:uxAddress <- $r6
	@DEBUG_VALUE: prvHeapInit:xTotalHeapSize <- 3072
	@DEBUG_VALUE: pvPortMalloc:xWantedSize <- $r5
	@DEBUG_VALUE: pvPortMalloc:pvReturn <- 0
	@DEBUG_VALUE: prvHeapInit:xTotalHeapSize <- undef
	@DEBUG_VALUE: prvHeapInit:uxAddress <- $r3
	@DEBUG_VALUE: prvHeapInit:pucAlignedHeap <- $r3
	@DEBUG_VALUE: prvHeapInit:pxFirstFreeBlock <- $r3
	.loc	2 363 28 is_stmt 1              @ ../../../../../../kernel/freertos/Source/portable/MemMang/heap_4.c:363:28
	ldr	r7, __arm_cp.0_3
	movs	r1, #3
	lsls	r1, r1, #10
	.loc	2 370 15                        @ ../../../../../../kernel/freertos/Source/portable/MemMang/heap_4.c:370:15
	adds	r1, r6, r1
.Ltmp11:
	@DEBUG_VALUE: prvHeapInit:uxAddress <- [DW_OP_constu 8, DW_OP_minus, DW_OP_stack_value] $r1
	ands	r1, r4
.Ltmp12:
	subs	r1, #8
.Ltmp13:
	@DEBUG_VALUE: prvHeapInit:uxAddress <- $r1
	.loc	2 0 15 is_stmt 0                @ ../../../../../../kernel/freertos/Source/portable/MemMang/heap_4.c:0:15
	ldr	r6, __arm_cp.0_0
	.loc	2 371 11 is_stmt 1              @ ../../../../../../kernel/freertos/Source/portable/MemMang/heap_4.c:371:11
	str	r1, [r6]
	movs	r4, #0
	.loc	2 363 28                        @ ../../../../../../kernel/freertos/Source/portable/MemMang/heap_4.c:363:28
	stm	r7!, {r3, r4}
	.loc	2 373 28                        @ ../../../../../../kernel/freertos/Source/portable/MemMang/heap_4.c:373:28
	str	r4, [r1]
	.loc	2 372 23                        @ ../../../../../../kernel/freertos/Source/portable/MemMang/heap_4.c:372:23
	str	r4, [r1, #4]
	.loc	2 379 41                        @ ../../../../../../kernel/freertos/Source/portable/MemMang/heap_4.c:379:41
	ldr	r4, [r6]
	.loc	2 378 46                        @ ../../../../../../kernel/freertos/Source/portable/MemMang/heap_4.c:378:46
	subs	r1, r1, r3
.Ltmp14:
	.loc	2 379 39                        @ ../../../../../../kernel/freertos/Source/portable/MemMang/heap_4.c:379:39
	str	r4, [r3]
	.loc	2 378 34                        @ ../../../../../../kernel/freertos/Source/portable/MemMang/heap_4.c:378:34
	str	r1, [r3, #4]
	.loc	2 382 36                        @ ../../../../../../kernel/freertos/Source/portable/MemMang/heap_4.c:382:36
	ldr	r3, __arm_cp.0_4
.Ltmp15:
	str	r1, [r3]
	.loc	2 383 25                        @ ../../../../../../kernel/freertos/Source/portable/MemMang/heap_4.c:383:25
	ldr	r3, __arm_cp.0_5
	str	r1, [r3]
	.loc	2 386 24                        @ ../../../../../../kernel/freertos/Source/portable/MemMang/heap_4.c:386:24
	ldr	r1, __arm_cp.0_1
	strb	r2, [r1]
	mov	r2, r0
.Ltmp16:
.LBB0_6:
	@DEBUG_VALUE: pvPortMalloc:xWantedSize <- $r5
	@DEBUG_VALUE: pvPortMalloc:pvReturn <- 0
	.loc	2 0 24 is_stmt 0                @ ../../../../../../kernel/freertos/Source/portable/MemMang/heap_4.c:0:24
	movs	r1, #9
	mvns	r1, r1
	.loc	2 137 13 is_stmt 1              @ ../../../../../../kernel/freertos/Source/portable/MemMang/heap_4.c:137:13
	subs	r3, r5, #1
	movs	r4, #0
	cmp	r3, r1
	bhi	.LBB0_37
.Ltmp17:
@ %bb.7:
	@DEBUG_VALUE: pvPortMalloc:xWantedSize <- $r5
	@DEBUG_VALUE: pvPortMalloc:pvReturn <- 0
	.loc	2 137 0 is_stmt 0               @ ../../../../../../kernel/freertos/Source/portable/MemMang/heap_4.c:137:0
	ands	r2, r5
	.loc	2 137 13                        @ ../../../../../../kernel/freertos/Source/portable/MemMang/heap_4.c:137:13
	bne	.LBB0_37
.Ltmp18:
@ %bb.8:
	@DEBUG_VALUE: pvPortMalloc:xWantedSize <- $r5
	@DEBUG_VALUE: pvPortMalloc:pvReturn <- 0
	.loc	2 0 13                          @ ../../../../../../kernel/freertos/Source/portable/MemMang/heap_4.c:0:13
	movs	r1, #7
.Ltmp19:
	@DEBUG_VALUE: pvPortMalloc:xWantedSize <- [DW_OP_plus_uconst 8, DW_OP_stack_value] $r5
	.loc	2 147 21 is_stmt 1              @ ../../../../../../kernel/freertos/Source/portable/MemMang/heap_4.c:147:21
	mov	r2, r5
	bics	r2, r1
	adds	r2, #16
.Ltmp20:
	.loc	2 142 33                        @ ../../../../../../kernel/freertos/Source/portable/MemMang/heap_4.c:142:33
	mov	r6, r5
	adds	r6, #8
	movs	r4, #0
.Ltmp21:
	.loc	2 147 21                        @ ../../../../../../kernel/freertos/Source/portable/MemMang/heap_4.c:147:21
	cmp	r2, r6
	bhi	.LBB0_10
.Ltmp22:
@ %bb.9:
	@DEBUG_VALUE: pvPortMalloc:xWantedSize <- [DW_OP_plus_uconst 8, DW_OP_stack_value] $r5
	@DEBUG_VALUE: pvPortMalloc:pvReturn <- 0
	.loc	2 0 21 is_stmt 0                @ ../../../../../../kernel/freertos/Source/portable/MemMang/heap_4.c:0:21
	mov	r2, r4
.Ltmp23:
.LBB0_10:
	@DEBUG_VALUE: pvPortMalloc:xWantedSize <- [DW_OP_plus_uconst 8, DW_OP_stack_value] $r5
	@DEBUG_VALUE: pvPortMalloc:pvReturn <- 0
	.loc	2 147 21                        @ ../../../../../../kernel/freertos/Source/portable/MemMang/heap_4.c:147:21
	lsls	r1, r5, #29
	beq	.LBB0_12
.Ltmp24:
@ %bb.11:
	@DEBUG_VALUE: pvPortMalloc:xWantedSize <- [DW_OP_plus_uconst 8, DW_OP_stack_value] $r5
	@DEBUG_VALUE: pvPortMalloc:pvReturn <- 0
	.loc	2 0 21                          @ ../../../../../../kernel/freertos/Source/portable/MemMang/heap_4.c:0:21
	mov	r6, r2
.Ltmp25:
.LBB0_12:
	@DEBUG_VALUE: pvPortMalloc:xWantedSize <- [DW_OP_plus_uconst 8, DW_OP_stack_value] $r5
	@DEBUG_VALUE: pvPortMalloc:pvReturn <- 0
	@DEBUG_VALUE: pvPortMalloc:xWantedSize <- $r6
	.loc	2 171 37 is_stmt 1              @ ../../../../../../kernel/freertos/Source/portable/MemMang/heap_4.c:171:37
	subs	r1, r6, #1
	ldr	r2, __arm_cp.0_5
	ldr	r2, [r2]
	cmp	r1, r2
	bhs	.LBB0_37
.Ltmp26:
@ %bb.13:
	@DEBUG_VALUE: pvPortMalloc:xWantedSize <- $r6
	@DEBUG_VALUE: pvPortMalloc:pvReturn <- 0
	.loc	2 176 34                        @ ../../../../../../kernel/freertos/Source/portable/MemMang/heap_4.c:176:34
	ldr	r5, __arm_cp.0_3
.Ltmp27:
	@DEBUG_VALUE: pvPortMalloc:pxPreviousBlock <- $r5
	ldr	r3, [r5]
.Ltmp28:
	@DEBUG_VALUE: pvPortMalloc:pxBlock <- $r3
	.loc	2 178 35                        @ ../../../../../../kernel/freertos/Source/portable/MemMang/heap_4.c:178:35
	ldr	r7, [r3, #4]
	.loc	2 178 62 is_stmt 0              @ ../../../../../../kernel/freertos/Source/portable/MemMang/heap_4.c:178:62
	cmp	r7, r6
	bhs	.LBB0_16
.Ltmp29:
.LBB0_14:                               @ =>This Inner Loop Header: Depth=1
	@DEBUG_VALUE: pvPortMalloc:pxBlock <- $r3
	@DEBUG_VALUE: pvPortMalloc:pxPreviousBlock <- $r5
	@DEBUG_VALUE: pvPortMalloc:xWantedSize <- $r6
	@DEBUG_VALUE: pvPortMalloc:pvReturn <- 0
	@DEBUG_VALUE: pvPortMalloc:pxBlock <- $r3
	.loc	2 178 76                        @ ../../../../../../kernel/freertos/Source/portable/MemMang/heap_4.c:178:76
	ldr	r2, [r3]
	@DEBUG_VALUE: pvPortMalloc:pxPreviousBlock <- $r5
	.loc	2 178 17                        @ ../../../../../../kernel/freertos/Source/portable/MemMang/heap_4.c:178:17
	cmp	r2, #0
	beq	.LBB0_16
.Ltmp30:
@ %bb.15:                               @   in Loop: Header=BB0_14 Depth=1
	@DEBUG_VALUE: pvPortMalloc:pxBlock <- $r3
	@DEBUG_VALUE: pvPortMalloc:pxPreviousBlock <- $r5
	@DEBUG_VALUE: pvPortMalloc:xWantedSize <- $r6
	@DEBUG_VALUE: pvPortMalloc:pvReturn <- 0
	.loc	2 0 17                          @ ../../../../../../kernel/freertos/Source/portable/MemMang/heap_4.c:0:17
	mov	r5, r3
.Ltmp31:
	@DEBUG_VALUE: pvPortMalloc:pxBlock <- $r5
	mov	r3, r2
.Ltmp32:
	@DEBUG_VALUE: pvPortMalloc:pxBlock <- $r3
	@DEBUG_VALUE: pvPortMalloc:pxPreviousBlock <- $r5
	.loc	2 178 35                        @ ../../../../../../kernel/freertos/Source/portable/MemMang/heap_4.c:178:35
	ldr	r7, [r2, #4]
	.loc	2 178 62                        @ ../../../../../../kernel/freertos/Source/portable/MemMang/heap_4.c:178:62
	cmp	r7, r6
	blo	.LBB0_14
.Ltmp33:
.LBB0_16:
	@DEBUG_VALUE: pvPortMalloc:pxBlock <- $r3
	@DEBUG_VALUE: pvPortMalloc:pxPreviousBlock <- $r5
	@DEBUG_VALUE: pvPortMalloc:xWantedSize <- $r6
	@DEBUG_VALUE: pvPortMalloc:pvReturn <- 0
	.loc	2 186 32 is_stmt 1              @ ../../../../../../kernel/freertos/Source/portable/MemMang/heap_4.c:186:32
	ldr	r1, __arm_cp.0_0
	ldr	r1, [r1]
.Ltmp34:
	.loc	2 186 21 is_stmt 0              @ ../../../../../../kernel/freertos/Source/portable/MemMang/heap_4.c:186:21
	cmp	r3, r1
	beq	.LBB0_37
.Ltmp35:
@ %bb.17:
	@DEBUG_VALUE: pvPortMalloc:pxBlock <- $r3
	@DEBUG_VALUE: pvPortMalloc:pxPreviousBlock <- $r5
	@DEBUG_VALUE: pvPortMalloc:xWantedSize <- $r6
	@DEBUG_VALUE: pvPortMalloc:pvReturn <- 0
	.loc	2 190 78 is_stmt 1              @ ../../../../../../kernel/freertos/Source/portable/MemMang/heap_4.c:190:78
	ldr	r4, [r5]
	.loc	2 194 65                        @ ../../../../../../kernel/freertos/Source/portable/MemMang/heap_4.c:194:65
	ldr	r1, [r3]
	.loc	2 194 54 is_stmt 0              @ ../../../../../../kernel/freertos/Source/portable/MemMang/heap_4.c:194:54
	str	r1, [r5]
.Ltmp36:
	.loc	2 198 47 is_stmt 1              @ ../../../../../../kernel/freertos/Source/portable/MemMang/heap_4.c:198:47
	subs	r2, r7, r6
.Ltmp37:
	@DEBUG_VALUE: pvPortMalloc:pvReturn <- undef
	.loc	2 198 25 is_stmt 0              @ ../../../../../../kernel/freertos/Source/portable/MemMang/heap_4.c:198:25
	cmp	r2, #17
	blo	.LBB0_32
.Ltmp38:
@ %bb.18:
	@DEBUG_VALUE: pvPortMalloc:pxBlock <- $r3
	@DEBUG_VALUE: pvPortMalloc:pxPreviousBlock <- $r5
	@DEBUG_VALUE: pvPortMalloc:xWantedSize <- $r6
	.loc	2 204 81 is_stmt 1              @ ../../../../../../kernel/freertos/Source/portable/MemMang/heap_4.c:204:81
	adds	r5, r3, r6
.Ltmp39:
	@DEBUG_VALUE: pvPortMalloc:pxNewBlockLink <- $r5
	.loc	2 205 25                        @ ../../../../../../kernel/freertos/Source/portable/MemMang/heap_4.c:205:25
	lsls	r1, r5, #29
	beq	.LBB0_21
.Ltmp40:
@ %bb.19:
	@DEBUG_VALUE: pvPortMalloc:pxNewBlockLink <- $r5
	@DEBUG_VALUE: pvPortMalloc:pxBlock <- $r3
	@DEBUG_VALUE: pvPortMalloc:xWantedSize <- $r6
	.loc	2 205 25 is_stmt 0              @ ../../../../../../kernel/freertos/Source/portable/MemMang/heap_4.c:205:25
	@APP
	cpsid i
	@NO_APP
.Ltmp41:
.LBB0_20:                               @ =>This Inner Loop Header: Depth=1
	@DEBUG_VALUE: pvPortMalloc:pxNewBlockLink <- $r5
	@DEBUG_VALUE: pvPortMalloc:pxBlock <- $r3
	@DEBUG_VALUE: pvPortMalloc:xWantedSize <- $r6
	.loc	2 205 25                        @ ../../../../../../kernel/freertos/Source/portable/MemMang/heap_4.c:205:25
	b	.LBB0_20
.Ltmp42:
.LBB0_21:
	@DEBUG_VALUE: pvPortMalloc:pxNewBlockLink <- $r5
	@DEBUG_VALUE: pvPortMalloc:pxBlock <- $r3
	@DEBUG_VALUE: pvPortMalloc:xWantedSize <- $r6
	.loc	2 209 52 is_stmt 1              @ ../../../../../../kernel/freertos/Source/portable/MemMang/heap_4.c:209:52
	str	r2, [r5, #4]
	.loc	2 210 45                        @ ../../../../../../kernel/freertos/Source/portable/MemMang/heap_4.c:210:45
	str	r6, [r3, #4]
	ldr	r6, __arm_cp.0_3
.Ltmp43:
	@DEBUG_VALUE: prvInsertBlockIntoFreeList:pxBlockToInsert <- $r5
	@DEBUG_VALUE: prvInsertBlockIntoFreeList:pxIterator <- $r6
.LBB0_22:                               @ =>This Inner Loop Header: Depth=1
	@DEBUG_VALUE: prvInsertBlockIntoFreeList:pxBlockToInsert <- $r5
	@DEBUG_VALUE: pvPortMalloc:pxNewBlockLink <- $r5
	@DEBUG_VALUE: pvPortMalloc:pxBlock <- $r3
	@DEBUG_VALUE: prvInsertBlockIntoFreeList:pxIterator <- $r6
	.loc	2 397 44                        @ ../../../../../../kernel/freertos/Source/portable/MemMang/heap_4.c:397:44
	ldr	r2, [r6]
.Ltmp44:
	.loc	2 397 5 is_stmt 0               @ ../../../../../../kernel/freertos/Source/portable/MemMang/heap_4.c:397:5
	cmp	r2, r5
	bhs	.LBB0_24
.Ltmp45:
@ %bb.23:                               @   in Loop: Header=BB0_22 Depth=1
	@DEBUG_VALUE: prvInsertBlockIntoFreeList:pxIterator <- $r6
	@DEBUG_VALUE: prvInsertBlockIntoFreeList:pxBlockToInsert <- $r5
	@DEBUG_VALUE: pvPortMalloc:pxNewBlockLink <- $r5
	@DEBUG_VALUE: pvPortMalloc:pxBlock <- $r3
	@DEBUG_VALUE: prvInsertBlockIntoFreeList:pxIterator <- $r2
	.loc	2 397 44                        @ ../../../../../../kernel/freertos/Source/portable/MemMang/heap_4.c:397:44
	ldr	r6, [r2]
.Ltmp46:
	.loc	2 397 5                         @ ../../../../../../kernel/freertos/Source/portable/MemMang/heap_4.c:397:5
	cmp	r6, r5
	mov	r7, r2
.Ltmp47:
	@DEBUG_VALUE: prvInsertBlockIntoFreeList:pxIterator <- $r7
	@DEBUG_VALUE: prvInsertBlockIntoFreeList:pxIterator <- $r7
	blo	.LBB0_22
	b	.LBB0_25
.Ltmp48:
.LBB0_24:
	@DEBUG_VALUE: prvInsertBlockIntoFreeList:pxIterator <- $r6
	@DEBUG_VALUE: prvInsertBlockIntoFreeList:pxBlockToInsert <- $r5
	@DEBUG_VALUE: pvPortMalloc:pxNewBlockLink <- $r5
	@DEBUG_VALUE: pvPortMalloc:pxBlock <- $r3
	.loc	2 0 5                           @ ../../../../../../kernel/freertos/Source/portable/MemMang/heap_4.c:0:5
	mov	r7, r6
.Ltmp49:
	@DEBUG_VALUE: prvInsertBlockIntoFreeList:pxIterator <- $r7
	mov	r6, r2
.Ltmp50:
.LBB0_25:
	@DEBUG_VALUE: prvInsertBlockIntoFreeList:pxIterator <- $r7
	@DEBUG_VALUE: prvInsertBlockIntoFreeList:pxBlockToInsert <- $r5
	@DEBUG_VALUE: pvPortMalloc:pxNewBlockLink <- $r5
	@DEBUG_VALUE: pvPortMalloc:pxBlock <- $r3
	@DEBUG_VALUE: prvInsertBlockIntoFreeList:puc <- $r7
	.loc	2 406 29 is_stmt 1              @ ../../../../../../kernel/freertos/Source/portable/MemMang/heap_4.c:406:29
	ldr	r1, [r7, #4]
	str	r1, [sp, #4]                    @ 4-byte Spill
	.loc	2 406 15 is_stmt 0              @ ../../../../../../kernel/freertos/Source/portable/MemMang/heap_4.c:406:15
	adds	r2, r7, r1
.Ltmp51:
	.loc	2 0 0                           @ ../../../../../../kernel/freertos/Source/portable/MemMang/heap_4.c:0:0
	str	r2, [sp, #8]                    @ 4-byte Spill
	ldr	r2, [r5, #4]
	.loc	2 406 9                         @ ../../../../../../kernel/freertos/Source/portable/MemMang/heap_4.c:406:9
	ldr	r1, [sp, #8]                    @ 4-byte Reload
	cmp	r1, r5
	beq	.LBB0_27
.Ltmp52:
@ %bb.26:
	@DEBUG_VALUE: prvInsertBlockIntoFreeList:puc <- $r7
	@DEBUG_VALUE: prvInsertBlockIntoFreeList:pxIterator <- $r7
	@DEBUG_VALUE: prvInsertBlockIntoFreeList:pxBlockToInsert <- $r5
	@DEBUG_VALUE: pvPortMalloc:pxNewBlockLink <- $r5
	@DEBUG_VALUE: pvPortMalloc:pxBlock <- $r3
	.loc	2 0 9                           @ ../../../../../../kernel/freertos/Source/portable/MemMang/heap_4.c:0:9
	str	r2, [sp, #8]                    @ 4-byte Spill
	b	.LBB0_28
.Ltmp53:
.LBB0_27:
	@DEBUG_VALUE: prvInsertBlockIntoFreeList:puc <- $r7
	@DEBUG_VALUE: prvInsertBlockIntoFreeList:pxIterator <- $r7
	@DEBUG_VALUE: prvInsertBlockIntoFreeList:pxBlockToInsert <- $r5
	@DEBUG_VALUE: pvPortMalloc:pxNewBlockLink <- $r5
	@DEBUG_VALUE: pvPortMalloc:pxBlock <- $r3
	.loc	2 408 32 is_stmt 1              @ ../../../../../../kernel/freertos/Source/portable/MemMang/heap_4.c:408:32
	ldr	r1, [sp, #4]                    @ 4-byte Reload
	adds	r2, r2, r1
	str	r2, [sp, #8]                    @ 4-byte Spill
	str	r2, [r7, #4]
.Ltmp54:
	@DEBUG_VALUE: prvInsertBlockIntoFreeList:pxBlockToInsert <- $r7
	.loc	2 0 32 is_stmt 0                @ ../../../../../../kernel/freertos/Source/portable/MemMang/heap_4.c:0:32
	mov	r5, r7
.Ltmp55:
.LBB0_28:
	@DEBUG_VALUE: prvInsertBlockIntoFreeList:puc <- $r7
	@DEBUG_VALUE: prvInsertBlockIntoFreeList:pxIterator <- $r7
	@DEBUG_VALUE: pvPortMalloc:pxBlock <- $r3
	@DEBUG_VALUE: prvInsertBlockIntoFreeList:pxBlockToInsert <- $r5
	@DEBUG_VALUE: prvInsertBlockIntoFreeList:puc <- $r5
	ldr	r1, __arm_cp.0_0
	ldr	r1, [r1]
	subs	r1, r6, r1
	rsbs	r2, r1, #0
	adcs	r2, r1
	str	r2, [sp, #4]                    @ 4-byte Spill
.Ltmp56:
	.loc	2 420 15 is_stmt 1              @ ../../../../../../kernel/freertos/Source/portable/MemMang/heap_4.c:420:15
	ldr	r1, [sp, #8]                    @ 4-byte Reload
	adds	r1, r5, r1
	.loc	2 420 47 is_stmt 0              @ ../../../../../../kernel/freertos/Source/portable/MemMang/heap_4.c:420:47
	subs	r1, r1, r6
	subs	r2, r1, #1
	sbcs	r1, r2
.Ltmp57:
	.loc	2 420 9                         @ ../../../../../../kernel/freertos/Source/portable/MemMang/heap_4.c:420:9
	ldr	r2, [sp, #4]                    @ 4-byte Reload
	orrs	r1, r2
	bne	.LBB0_30
.Ltmp58:
@ %bb.29:
	@DEBUG_VALUE: prvInsertBlockIntoFreeList:puc <- $r5
	@DEBUG_VALUE: prvInsertBlockIntoFreeList:pxIterator <- $r7
	@DEBUG_VALUE: prvInsertBlockIntoFreeList:pxBlockToInsert <- $r5
	@DEBUG_VALUE: pvPortMalloc:pxBlock <- $r3
	.loc	2 425 73 is_stmt 1              @ ../../../../../../kernel/freertos/Source/portable/MemMang/heap_4.c:425:73
	ldr	r1, [r6, #4]
	.loc	2 425 41 is_stmt 0              @ ../../../../../../kernel/freertos/Source/portable/MemMang/heap_4.c:425:41
	ldr	r2, [sp, #8]                    @ 4-byte Reload
	adds	r1, r1, r2
	str	r1, [r5, #4]
	.loc	2 426 77 is_stmt 1              @ ../../../../../../kernel/freertos/Source/portable/MemMang/heap_4.c:426:77
	ldr	r6, [r6]
.Ltmp59:
.LBB0_30:
	@DEBUG_VALUE: prvInsertBlockIntoFreeList:puc <- $r5
	@DEBUG_VALUE: prvInsertBlockIntoFreeList:pxIterator <- $r7
	@DEBUG_VALUE: prvInsertBlockIntoFreeList:pxBlockToInsert <- $r5
	@DEBUG_VALUE: pvPortMalloc:pxBlock <- $r3
	.loc	2 0 0 is_stmt 0                 @ ../../../../../../kernel/freertos/Source/portable/MemMang/heap_4.c:0:0
	str	r6, [r5]
.Ltmp60:
	.loc	2 442 9 is_stmt 1               @ ../../../../../../kernel/freertos/Source/portable/MemMang/heap_4.c:442:9
	cmp	r7, r5
	beq	.LBB0_32
.Ltmp61:
@ %bb.31:
	@DEBUG_VALUE: prvInsertBlockIntoFreeList:puc <- $r5
	@DEBUG_VALUE: prvInsertBlockIntoFreeList:pxIterator <- $r7
	@DEBUG_VALUE: prvInsertBlockIntoFreeList:pxBlockToInsert <- $r5
	@DEBUG_VALUE: pvPortMalloc:pxBlock <- $r3
	.loc	2 444 37                        @ ../../../../../../kernel/freertos/Source/portable/MemMang/heap_4.c:444:37
	str	r5, [r7]
.Ltmp62:
.LBB0_32:
	@DEBUG_VALUE: pvPortMalloc:pxBlock <- $r3
	@DEBUG_VALUE: pvPortMalloc:pvReturn <- undef
	.loc	2 220 53                        @ ../../../../../../kernel/freertos/Source/portable/MemMang/heap_4.c:220:53
	ldr	r1, [r3, #4]
	ldr	r5, __arm_cp.0_5
	.loc	2 220 41 is_stmt 0              @ ../../../../../../kernel/freertos/Source/portable/MemMang/heap_4.c:220:41
	ldr	r2, [r5]
	subs	r2, r2, r1
	str	r2, [r5]
.Ltmp63:
	.loc	2 222 47 is_stmt 1              @ ../../../../../../kernel/freertos/Source/portable/MemMang/heap_4.c:222:47
	ldr	r5, __arm_cp.0_4
	ldr	r6, [r5]
.Ltmp64:
	.loc	2 222 25 is_stmt 0              @ ../../../../../../kernel/freertos/Source/portable/MemMang/heap_4.c:222:25
	cmp	r2, r6
	bhs	.LBB0_34
.Ltmp65:
@ %bb.33:
	@DEBUG_VALUE: pvPortMalloc:pxBlock <- $r3
	.loc	2 224 56 is_stmt 1              @ ../../../../../../kernel/freertos/Source/portable/MemMang/heap_4.c:224:56
	str	r2, [r5]
.Ltmp66:
.LBB0_34:
	@DEBUG_VALUE: pvPortMalloc:pxBlock <- $r3
	@DEBUG_VALUE: pvPortMalloc:pvReturn <- undef
	.loc	2 233 44                        @ ../../../../../../kernel/freertos/Source/portable/MemMang/heap_4.c:233:44
	ldr	r2, __arm_cp.0_1
	ldrb	r2, [r2]
	movs	r5, #0
	.loc	2 234 46                        @ ../../../../../../kernel/freertos/Source/portable/MemMang/heap_4.c:234:46
	str	r5, [r3]
	.loc	2 235 51                        @ ../../../../../../kernel/freertos/Source/portable/MemMang/heap_4.c:235:51
	ldr	r5, __arm_cp.0_6
	ldr	r6, [r5]
	adds	r6, r6, #1
	str	r6, [r5]
	.loc	2 233 44                        @ ../../../../../../kernel/freertos/Source/portable/MemMang/heap_4.c:233:44
	cmp	r2, #0
	bne	.LBB0_36
.Ltmp67:
@ %bb.35:
	@DEBUG_VALUE: pvPortMalloc:pxBlock <- $r3
	.loc	2 0 44 is_stmt 0                @ ../../../../../../kernel/freertos/Source/portable/MemMang/heap_4.c:0:44
	mov	r0, r2
.Ltmp68:
.LBB0_36:
	@DEBUG_VALUE: pvPortMalloc:pxBlock <- $r3
	adds	r4, #8
.Ltmp69:
	@DEBUG_VALUE: pvPortMalloc:pvReturn <- $r4
	.loc	2 233 41                        @ ../../../../../../kernel/freertos/Source/portable/MemMang/heap_4.c:233:41
	orrs	r1, r0
	str	r1, [r3, #4]
.Ltmp70:
.LBB0_37:
	@DEBUG_VALUE: pvPortMalloc:pvReturn <- $r4
	.loc	2 254 14 is_stmt 1              @ ../../../../../../kernel/freertos/Source/portable/MemMang/heap_4.c:254:14
	bl	xTaskResumeAll
.Ltmp71:
	.loc	2 270 5                         @ ../../../../../../kernel/freertos/Source/portable/MemMang/heap_4.c:270:5
	lsls	r0, r4, #29
	beq	.LBB0_40
.Ltmp72:
@ %bb.38:
	@DEBUG_VALUE: pvPortMalloc:pvReturn <- $r4
	.loc	2 270 5 is_stmt 0               @ ../../../../../../kernel/freertos/Source/portable/MemMang/heap_4.c:270:5
	@APP
	cpsid i
	@NO_APP
.Ltmp73:
.LBB0_39:                               @ =>This Inner Loop Header: Depth=1
	@DEBUG_VALUE: pvPortMalloc:pvReturn <- $r4
	.loc	2 270 5                         @ ../../../../../../kernel/freertos/Source/portable/MemMang/heap_4.c:270:5
	b	.LBB0_39
.Ltmp74:
.LBB0_40:
	@DEBUG_VALUE: pvPortMalloc:pvReturn <- $r4
	.loc	2 271 5 is_stmt 1               @ ../../../../../../kernel/freertos/Source/portable/MemMang/heap_4.c:271:5
	mov	r0, r4
	.loc	2 271 5 epilogue_begin is_stmt 0 @ ../../../../../../kernel/freertos/Source/portable/MemMang/heap_4.c:271:5
	add	sp, #12
	pop	{r4, r5, r6, r7, pc}
.Ltmp75:
	.p2align	2
@ %bb.41:
	.loc	2 0 5                           @ ../../../../../../kernel/freertos/Source/portable/MemMang/heap_4.c:0:5
__arm_cp.0_0:
	.long	pxEnd
.Lcpi_end0:
	.size	__arm_cp.0_0, .Lcpi_end0-__arm_cp.0_0
__arm_cp.0_1:
	.long	xBlockAllocatedBit
.Lcpi_end1:
	.size	__arm_cp.0_1, .Lcpi_end1-__arm_cp.0_1
__arm_cp.0_2:
	.long	ucHeap
.Lcpi_end2:
	.size	__arm_cp.0_2, .Lcpi_end2-__arm_cp.0_2
__arm_cp.0_3:
	.long	xStart
.Lcpi_end3:
	.size	__arm_cp.0_3, .Lcpi_end3-__arm_cp.0_3
__arm_cp.0_4:
	.long	xMinimumEverFreeBytesRemaining
.Lcpi_end4:
	.size	__arm_cp.0_4, .Lcpi_end4-__arm_cp.0_4
__arm_cp.0_5:
	.long	xFreeBytesRemaining
.Lcpi_end5:
	.size	__arm_cp.0_5, .Lcpi_end5-__arm_cp.0_5
__arm_cp.0_6:
	.long	xNumberOfSuccessfulAllocations
.Lcpi_end6:
	.size	__arm_cp.0_6, .Lcpi_end6-__arm_cp.0_6
.Lfunc_end0:
	.size	pvPortMalloc, .Lfunc_end0-pvPortMalloc
	.cfi_endproc
	.cantunwind
	.fnend
                                        @ -- End function
	.section	.text.vPortFree,"ax",%progbits
	.hidden	vPortFree                       @ -- Begin function vPortFree
	.globl	vPortFree
	.p2align	2
	.type	vPortFree,%function
	.code	16                              @ @vPortFree
	.thumb_func
vPortFree:
.Lfunc_begin1:
	.loc	2 276 0 is_stmt 1               @ ../../../../../../kernel/freertos/Source/portable/MemMang/heap_4.c:276:0
	.fnstart
	.cfi_startproc
@ %bb.0:
	@DEBUG_VALUE: vPortFree:pv <- $r0
	@DEBUG_VALUE: vPortFree:pv <- $r0
	.save	{r4, r5, r7, lr}
	push	{r4, r5, r7, lr}
	.cfi_def_cfa_offset 16
	.cfi_offset lr, -4
	.cfi_offset r7, -8
	.cfi_offset r5, -12
	.cfi_offset r4, -16
.Ltmp76:
	@DEBUG_VALUE: vPortFree:puc <- $r0
	@DEBUG_VALUE: vPortFree:puc <- $r0
	.loc	2 280 9 prologue_end            @ ../../../../../../kernel/freertos/Source/portable/MemMang/heap_4.c:280:9
	cmp	r0, #0
	beq	.LBB1_19
.Ltmp77:
@ %bb.1:
	@DEBUG_VALUE: vPortFree:puc <- $r0
	@DEBUG_VALUE: vPortFree:pv <- $r0
	.loc	2 0 9 is_stmt 0                 @ ../../../../../../kernel/freertos/Source/portable/MemMang/heap_4.c:0:9
	mov	r4, r0
.Ltmp78:
	@DEBUG_VALUE: vPortFree:pv <- $r4
	@DEBUG_VALUE: vPortFree:puc <- $r4
	.loc	2 290 9 is_stmt 1               @ ../../../../../../kernel/freertos/Source/portable/MemMang/heap_4.c:290:9
	ldr	r0, __arm_cp.1_0
	ldrb	r0, [r0]
	subs	r1, r0, #1
	sbcs	r0, r1
	lsls	r0, r0, #31
.Ltmp79:
	@DEBUG_VALUE: vPortFree:pxLink <- undef
	@DEBUG_VALUE: vPortFree:puc <- undef
	subs	r5, r4, #4
	ldr	r1, [r5]
.Ltmp80:
	.loc	2 290 9 is_stmt 0               @ ../../../../../../kernel/freertos/Source/portable/MemMang/heap_4.c:290:9
	tst	r0, r1
	beq	.LBB1_5
.Ltmp81:
@ %bb.2:
	@DEBUG_VALUE: vPortFree:pv <- $r4
	.loc	2 0 0                           @ ../../../../../../kernel/freertos/Source/portable/MemMang/heap_4.c:0:0
	subs	r4, #8
.Ltmp82:
	@DEBUG_VALUE: vPortFree:pv <- [DW_OP_LLVM_entry_value 1] $r0
	@DEBUG_VALUE: vPortFree:pxLink <- $r4
	@DEBUG_VALUE: vPortFree:puc <- $r4
	.loc	2 291 9 is_stmt 1               @ ../../../../../../kernel/freertos/Source/portable/MemMang/heap_4.c:291:9
	ldr	r2, [r4]
.Ltmp83:
	.loc	2 291 9 is_stmt 0               @ ../../../../../../kernel/freertos/Source/portable/MemMang/heap_4.c:291:9
	cmp	r2, #0
	beq	.LBB1_7
.Ltmp84:
@ %bb.3:
	@DEBUG_VALUE: vPortFree:pxLink <- $r4
	@DEBUG_VALUE: vPortFree:pv <- [DW_OP_LLVM_entry_value 1] $r0
	@DEBUG_VALUE: vPortFree:puc <- $r4
	.loc	2 291 9                         @ ../../../../../../kernel/freertos/Source/portable/MemMang/heap_4.c:291:9
	@APP
	cpsid i
	@NO_APP
.Ltmp85:
.LBB1_4:                                @ =>This Inner Loop Header: Depth=1
	@DEBUG_VALUE: vPortFree:pxLink <- $r4
	@DEBUG_VALUE: vPortFree:pv <- [DW_OP_LLVM_entry_value 1] $r0
	@DEBUG_VALUE: vPortFree:puc <- $r4
	.loc	2 291 9                         @ ../../../../../../kernel/freertos/Source/portable/MemMang/heap_4.c:291:9
	b	.LBB1_4
.Ltmp86:
.LBB1_5:
	@DEBUG_VALUE: vPortFree:pv <- $r4
	.loc	2 290 9 is_stmt 1               @ ../../../../../../kernel/freertos/Source/portable/MemMang/heap_4.c:290:9
	@APP
	cpsid i
	@NO_APP
.Ltmp87:
.LBB1_6:                                @ =>This Inner Loop Header: Depth=1
	@DEBUG_VALUE: vPortFree:pv <- $r4
	.loc	2 290 9 is_stmt 0               @ ../../../../../../kernel/freertos/Source/portable/MemMang/heap_4.c:290:9
	b	.LBB1_6
.Ltmp88:
.LBB1_7:
	@DEBUG_VALUE: vPortFree:pxLink <- $r4
	@DEBUG_VALUE: vPortFree:pv <- [DW_OP_LLVM_entry_value 1] $r0
	@DEBUG_VALUE: vPortFree:puc <- $r4
	.loc	2 299 36 is_stmt 1              @ ../../../../../../kernel/freertos/Source/portable/MemMang/heap_4.c:299:36
	bics	r1, r0
	str	r1, [r5]
	.loc	2 301 17                        @ ../../../../../../kernel/freertos/Source/portable/MemMang/heap_4.c:301:17
	bl	vTaskSuspendAll
.Ltmp89:
	.loc	2 304 52                        @ ../../../../../../kernel/freertos/Source/portable/MemMang/heap_4.c:304:52
	ldr	r1, [r5]
	.loc	2 304 41 is_stmt 0              @ ../../../../../../kernel/freertos/Source/portable/MemMang/heap_4.c:304:41
	ldr	r0, __arm_cp.1_1
	ldr	r2, [r0]
	adds	r2, r2, r1
	str	r2, [r0]
	ldr	r0, __arm_cp.1_2
	@DEBUG_VALUE: prvInsertBlockIntoFreeList:pxBlockToInsert <- $r4
	@DEBUG_VALUE: prvInsertBlockIntoFreeList:pxIterator <- $r0
.Ltmp90:
.LBB1_8:                                @ =>This Inner Loop Header: Depth=1
	@DEBUG_VALUE: prvInsertBlockIntoFreeList:pxBlockToInsert <- $r4
	@DEBUG_VALUE: vPortFree:pxLink <- $r4
	@DEBUG_VALUE: vPortFree:pv <- [DW_OP_LLVM_entry_value 1] $r0
	@DEBUG_VALUE: vPortFree:puc <- $r4
	@DEBUG_VALUE: prvInsertBlockIntoFreeList:pxIterator <- $r0
	.loc	2 397 44 is_stmt 1              @ ../../../../../../kernel/freertos/Source/portable/MemMang/heap_4.c:397:44
	ldr	r3, [r0]
.Ltmp91:
	.loc	2 397 5 is_stmt 0               @ ../../../../../../kernel/freertos/Source/portable/MemMang/heap_4.c:397:5
	cmp	r3, r4
	bhs	.LBB1_10
.Ltmp92:
@ %bb.9:                                @   in Loop: Header=BB1_8 Depth=1
	@DEBUG_VALUE: prvInsertBlockIntoFreeList:pxIterator <- $r0
	@DEBUG_VALUE: prvInsertBlockIntoFreeList:pxBlockToInsert <- $r4
	@DEBUG_VALUE: vPortFree:pxLink <- $r4
	@DEBUG_VALUE: vPortFree:pv <- [DW_OP_LLVM_entry_value 1] $r0
	@DEBUG_VALUE: vPortFree:puc <- $r4
	@DEBUG_VALUE: prvInsertBlockIntoFreeList:pxIterator <- $r3
	.loc	2 397 44                        @ ../../../../../../kernel/freertos/Source/portable/MemMang/heap_4.c:397:44
	ldr	r0, [r3]
.Ltmp93:
	.loc	2 397 5                         @ ../../../../../../kernel/freertos/Source/portable/MemMang/heap_4.c:397:5
	cmp	r0, r4
	mov	r2, r3
.Ltmp94:
	@DEBUG_VALUE: prvInsertBlockIntoFreeList:pxIterator <- $r2
	blo	.LBB1_8
	b	.LBB1_11
.Ltmp95:
.LBB1_10:
	@DEBUG_VALUE: prvInsertBlockIntoFreeList:pxIterator <- $r0
	@DEBUG_VALUE: prvInsertBlockIntoFreeList:pxBlockToInsert <- $r4
	@DEBUG_VALUE: vPortFree:pxLink <- $r4
	@DEBUG_VALUE: vPortFree:pv <- [DW_OP_LLVM_entry_value 1] $r0
	@DEBUG_VALUE: vPortFree:puc <- $r4
	.loc	2 0 5                           @ ../../../../../../kernel/freertos/Source/portable/MemMang/heap_4.c:0:5
	mov	r2, r0
	mov	r0, r3
.Ltmp96:
.LBB1_11:
	@DEBUG_VALUE: prvInsertBlockIntoFreeList:pxBlockToInsert <- $r4
	@DEBUG_VALUE: vPortFree:pxLink <- $r4
	@DEBUG_VALUE: vPortFree:pv <- [DW_OP_LLVM_entry_value 1] $r0
	@DEBUG_VALUE: vPortFree:puc <- $r4
	@DEBUG_VALUE: prvInsertBlockIntoFreeList:puc <- $r2
	.loc	2 406 29 is_stmt 1              @ ../../../../../../kernel/freertos/Source/portable/MemMang/heap_4.c:406:29
	ldr	r3, [r2, #4]
	.loc	2 406 15 is_stmt 0              @ ../../../../../../kernel/freertos/Source/portable/MemMang/heap_4.c:406:15
	adds	r5, r2, r3
.Ltmp97:
	.loc	2 406 9                         @ ../../../../../../kernel/freertos/Source/portable/MemMang/heap_4.c:406:9
	cmp	r5, r4
	bne	.LBB1_13
.Ltmp98:
@ %bb.12:
	@DEBUG_VALUE: prvInsertBlockIntoFreeList:puc <- $r2
	@DEBUG_VALUE: prvInsertBlockIntoFreeList:pxBlockToInsert <- $r4
	@DEBUG_VALUE: vPortFree:pxLink <- $r4
	@DEBUG_VALUE: vPortFree:pv <- [DW_OP_LLVM_entry_value 1] $r0
	@DEBUG_VALUE: vPortFree:puc <- $r4
	.loc	2 408 32 is_stmt 1              @ ../../../../../../kernel/freertos/Source/portable/MemMang/heap_4.c:408:32
	adds	r1, r1, r3
	str	r1, [r2, #4]
.Ltmp99:
	@DEBUG_VALUE: prvInsertBlockIntoFreeList:pxBlockToInsert <- $r2
	.loc	2 0 32 is_stmt 0                @ ../../../../../../kernel/freertos/Source/portable/MemMang/heap_4.c:0:32
	mov	r4, r2
.Ltmp100:
.LBB1_13:
	@DEBUG_VALUE: prvInsertBlockIntoFreeList:puc <- $r2
	@DEBUG_VALUE: vPortFree:pv <- [DW_OP_LLVM_entry_value 1] $r0
	@DEBUG_VALUE: prvInsertBlockIntoFreeList:pxBlockToInsert <- $r4
	@DEBUG_VALUE: prvInsertBlockIntoFreeList:puc <- $r4
	.loc	2 420 15 is_stmt 1              @ ../../../../../../kernel/freertos/Source/portable/MemMang/heap_4.c:420:15
	adds	r3, r4, r1
.Ltmp101:
	.loc	2 420 9 is_stmt 0               @ ../../../../../../kernel/freertos/Source/portable/MemMang/heap_4.c:420:9
	cmp	r3, r0
	bne	.LBB1_16
.Ltmp102:
@ %bb.14:
	@DEBUG_VALUE: prvInsertBlockIntoFreeList:puc <- $r4
	@DEBUG_VALUE: prvInsertBlockIntoFreeList:pxBlockToInsert <- $r4
	@DEBUG_VALUE: vPortFree:pv <- [DW_OP_LLVM_entry_value 1] $r0
	.loc	2 0 9                           @ ../../../../../../kernel/freertos/Source/portable/MemMang/heap_4.c:0:9
	ldr	r3, __arm_cp.1_3
	ldr	r3, [r3]
	.loc	2 420 9                         @ ../../../../../../kernel/freertos/Source/portable/MemMang/heap_4.c:420:9
	cmp	r0, r3
	beq	.LBB1_16
.Ltmp103:
@ %bb.15:
	@DEBUG_VALUE: prvInsertBlockIntoFreeList:puc <- $r4
	@DEBUG_VALUE: prvInsertBlockIntoFreeList:pxBlockToInsert <- $r4
	@DEBUG_VALUE: vPortFree:pv <- [DW_OP_LLVM_entry_value 1] $r0
	.loc	2 425 73 is_stmt 1              @ ../../../../../../kernel/freertos/Source/portable/MemMang/heap_4.c:425:73
	ldr	r3, [r0, #4]
	.loc	2 425 41 is_stmt 0              @ ../../../../../../kernel/freertos/Source/portable/MemMang/heap_4.c:425:41
	adds	r1, r3, r1
	str	r1, [r4, #4]
	.loc	2 426 77 is_stmt 1              @ ../../../../../../kernel/freertos/Source/portable/MemMang/heap_4.c:426:77
	ldr	r0, [r0]
.Ltmp104:
.LBB1_16:
	@DEBUG_VALUE: prvInsertBlockIntoFreeList:puc <- $r4
	@DEBUG_VALUE: prvInsertBlockIntoFreeList:pxBlockToInsert <- $r4
	@DEBUG_VALUE: vPortFree:pv <- [DW_OP_LLVM_entry_value 1] $r0
	.loc	2 0 0 is_stmt 0                 @ ../../../../../../kernel/freertos/Source/portable/MemMang/heap_4.c:0:0
	str	r0, [r4]
.Ltmp105:
	.loc	2 442 9 is_stmt 1               @ ../../../../../../kernel/freertos/Source/portable/MemMang/heap_4.c:442:9
	cmp	r2, r4
	beq	.LBB1_18
.Ltmp106:
@ %bb.17:
	@DEBUG_VALUE: prvInsertBlockIntoFreeList:puc <- $r4
	@DEBUG_VALUE: prvInsertBlockIntoFreeList:pxBlockToInsert <- $r4
	@DEBUG_VALUE: vPortFree:pv <- [DW_OP_LLVM_entry_value 1] $r0
	.loc	2 444 37                        @ ../../../../../../kernel/freertos/Source/portable/MemMang/heap_4.c:444:37
	str	r4, [r2]
.Ltmp107:
.LBB1_18:
	@DEBUG_VALUE: vPortFree:pv <- [DW_OP_LLVM_entry_value 1] $r0
	.loc	2 307 45                        @ ../../../../../../kernel/freertos/Source/portable/MemMang/heap_4.c:307:45
	ldr	r0, __arm_cp.1_4
	ldr	r1, [r0]
	adds	r1, r1, #1
	str	r1, [r0]
.Ltmp108:
	.loc	2 309 26                        @ ../../../../../../kernel/freertos/Source/portable/MemMang/heap_4.c:309:26
	bl	xTaskResumeAll
.Ltmp109:
.LBB1_19:
	.loc	2 321 1 epilogue_begin          @ ../../../../../../kernel/freertos/Source/portable/MemMang/heap_4.c:321:1
	pop	{r4, r5, r7, pc}
.Ltmp110:
	.p2align	2
@ %bb.20:
	.loc	2 0 1 is_stmt 0                 @ ../../../../../../kernel/freertos/Source/portable/MemMang/heap_4.c:0:1
__arm_cp.1_0:
	.long	xBlockAllocatedBit
.Lcpi_end7:
	.size	__arm_cp.1_0, .Lcpi_end7-__arm_cp.1_0
__arm_cp.1_1:
	.long	xFreeBytesRemaining
.Lcpi_end8:
	.size	__arm_cp.1_1, .Lcpi_end8-__arm_cp.1_1
__arm_cp.1_2:
	.long	xStart
.Lcpi_end9:
	.size	__arm_cp.1_2, .Lcpi_end9-__arm_cp.1_2
__arm_cp.1_3:
	.long	pxEnd
.Lcpi_end10:
	.size	__arm_cp.1_3, .Lcpi_end10-__arm_cp.1_3
__arm_cp.1_4:
	.long	xNumberOfSuccessfulFrees
.Lcpi_end11:
	.size	__arm_cp.1_4, .Lcpi_end11-__arm_cp.1_4
.Lfunc_end1:
	.size	vPortFree, .Lfunc_end1-vPortFree
	.cfi_endproc
	.cantunwind
	.fnend
                                        @ -- End function
	.section	.text.xPortGetFreeHeapSize,"ax",%progbits
	.hidden	xPortGetFreeHeapSize            @ -- Begin function xPortGetFreeHeapSize
	.globl	xPortGetFreeHeapSize
	.p2align	2
	.type	xPortGetFreeHeapSize,%function
	.code	16                              @ @xPortGetFreeHeapSize
	.thumb_func
xPortGetFreeHeapSize:
.Lfunc_begin2:
	.fnstart
	.cfi_startproc
@ %bb.0:
	.loc	2 326 12 prologue_end is_stmt 1 @ ../../../../../../kernel/freertos/Source/portable/MemMang/heap_4.c:326:12
	ldr	r0, __arm_cp.2_0
	ldr	r0, [r0]
	.loc	2 326 5 is_stmt 0               @ ../../../../../../kernel/freertos/Source/portable/MemMang/heap_4.c:326:5
	bx	lr
.Ltmp111:
	.p2align	2
@ %bb.1:
	.loc	2 0 5                           @ ../../../../../../kernel/freertos/Source/portable/MemMang/heap_4.c:0:5
__arm_cp.2_0:
	.long	xFreeBytesRemaining
.Lcpi_end12:
	.size	__arm_cp.2_0, .Lcpi_end12-__arm_cp.2_0
.Lfunc_end2:
	.size	xPortGetFreeHeapSize, .Lfunc_end2-xPortGetFreeHeapSize
	.cfi_endproc
	.cantunwind
	.fnend
                                        @ -- End function
	.section	.text.xPortGetMinimumEverFreeHeapSize,"ax",%progbits
	.hidden	xPortGetMinimumEverFreeHeapSize @ -- Begin function xPortGetMinimumEverFreeHeapSize
	.globl	xPortGetMinimumEverFreeHeapSize
	.p2align	2
	.type	xPortGetMinimumEverFreeHeapSize,%function
	.code	16                              @ @xPortGetMinimumEverFreeHeapSize
	.thumb_func
xPortGetMinimumEverFreeHeapSize:
.Lfunc_begin3:
	.fnstart
	.cfi_startproc
@ %bb.0:
	.loc	2 332 12 prologue_end is_stmt 1 @ ../../../../../../kernel/freertos/Source/portable/MemMang/heap_4.c:332:12
	ldr	r0, __arm_cp.3_0
	ldr	r0, [r0]
	.loc	2 332 5 is_stmt 0               @ ../../../../../../kernel/freertos/Source/portable/MemMang/heap_4.c:332:5
	bx	lr
.Ltmp112:
	.p2align	2
@ %bb.1:
	.loc	2 0 5                           @ ../../../../../../kernel/freertos/Source/portable/MemMang/heap_4.c:0:5
__arm_cp.3_0:
	.long	xMinimumEverFreeBytesRemaining
.Lcpi_end13:
	.size	__arm_cp.3_0, .Lcpi_end13-__arm_cp.3_0
.Lfunc_end3:
	.size	xPortGetMinimumEverFreeHeapSize, .Lfunc_end3-xPortGetMinimumEverFreeHeapSize
	.cfi_endproc
	.cantunwind
	.fnend
                                        @ -- End function
	.section	.text.vPortInitialiseBlocks,"ax",%progbits
	.hidden	vPortInitialiseBlocks           @ -- Begin function vPortInitialiseBlocks
	.globl	vPortInitialiseBlocks
	.p2align	1
	.type	vPortInitialiseBlocks,%function
	.code	16                              @ @vPortInitialiseBlocks
	.thumb_func
vPortInitialiseBlocks:
.Lfunc_begin4:
	.fnstart
	.cfi_startproc
@ %bb.0:
	.loc	2 339 1 prologue_end is_stmt 1  @ ../../../../../../kernel/freertos/Source/portable/MemMang/heap_4.c:339:1
	bx	lr
.Ltmp113:
.Lfunc_end4:
	.size	vPortInitialiseBlocks, .Lfunc_end4-vPortInitialiseBlocks
	.cfi_endproc
	.cantunwind
	.fnend
                                        @ -- End function
	.section	.text.vPortGetHeapStats,"ax",%progbits
	.hidden	vPortGetHeapStats               @ -- Begin function vPortGetHeapStats
	.globl	vPortGetHeapStats
	.p2align	2
	.type	vPortGetHeapStats,%function
	.code	16                              @ @vPortGetHeapStats
	.thumb_func
vPortGetHeapStats:
.Lfunc_begin5:
	.loc	2 454 0                         @ ../../../../../../kernel/freertos/Source/portable/MemMang/heap_4.c:454:0
	.fnstart
	.cfi_startproc
@ %bb.0:
	@DEBUG_VALUE: vPortGetHeapStats:pxHeapStats <- $r0
	.save	{r4, r5, r6, r7, lr}
	push	{r4, r5, r6, r7, lr}
	.cfi_def_cfa_offset 20
	.cfi_offset lr, -4
	.cfi_offset r7, -8
	.cfi_offset r6, -12
	.cfi_offset r5, -16
	.cfi_offset r4, -20
	.pad	#4
	sub	sp, #4
	.cfi_def_cfa_offset 24
	mov	r4, r0
.Ltmp114:
	@DEBUG_VALUE: vPortGetHeapStats:xMinSize <- -1
	@DEBUG_VALUE: vPortGetHeapStats:xMaxSize <- 0
	@DEBUG_VALUE: vPortGetHeapStats:xBlocks <- 0
	@DEBUG_VALUE: vPortGetHeapStats:pxHeapStats <- $r4
	.loc	2 458 5 prologue_end            @ ../../../../../../kernel/freertos/Source/portable/MemMang/heap_4.c:458:5
	bl	vTaskSuspendAll
.Ltmp115:
	.loc	2 0 5 is_stmt 0                 @ ../../../../../../kernel/freertos/Source/portable/MemMang/heap_4.c:0:5
	movs	r5, #0
	mvns	r2, r5
.Ltmp116:
	.loc	2 460 26 is_stmt 1              @ ../../../../../../kernel/freertos/Source/portable/MemMang/heap_4.c:460:26
	ldr	r0, __arm_cp.5_0
	ldr	r0, [r0]
.Ltmp117:
	@DEBUG_VALUE: vPortGetHeapStats:pxBlock <- $r0
	.loc	2 464 13                        @ ../../../../../../kernel/freertos/Source/portable/MemMang/heap_4.c:464:13
	cmp	r0, #0
	beq	.LBB5_7
.Ltmp118:
@ %bb.1:
	@DEBUG_VALUE: vPortGetHeapStats:pxBlock <- $r0
	@DEBUG_VALUE: vPortGetHeapStats:pxHeapStats <- $r4
	@DEBUG_VALUE: vPortGetHeapStats:xBlocks <- 0
	@DEBUG_VALUE: vPortGetHeapStats:xMaxSize <- 0
	@DEBUG_VALUE: vPortGetHeapStats:xMinSize <- -1
	.loc	2 0 13 is_stmt 0                @ ../../../../../../kernel/freertos/Source/portable/MemMang/heap_4.c:0:13
	ldr	r1, __arm_cp.5_1
	ldr	r1, [r1]
	movs	r5, #0
	mov	r3, r5
	b	.LBB5_3
.Ltmp119:
.LBB5_2:                                @   in Loop: Header=BB5_3 Depth=1
	@DEBUG_VALUE: vPortGetHeapStats:xMinSize <- $r7
	@DEBUG_VALUE: vPortGetHeapStats:xBlocks <- $r5
	@DEBUG_VALUE: vPortGetHeapStats:pxBlock <- $r0
	@DEBUG_VALUE: vPortGetHeapStats:pxHeapStats <- $r4
	@DEBUG_VALUE: vPortGetHeapStats:xMaxSize <- $r6
	.loc	2 484 36 is_stmt 1              @ ../../../../../../kernel/freertos/Source/portable/MemMang/heap_4.c:484:36
	ldr	r0, [r0]
.Ltmp120:
	@DEBUG_VALUE: vPortGetHeapStats:pxBlock <- $r0
	.loc	2 470 24                        @ ../../../../../../kernel/freertos/Source/portable/MemMang/heap_4.c:470:24
	adds	r5, r5, #1
.Ltmp121:
	@DEBUG_VALUE: vPortGetHeapStats:xBlocks <- $r5
	.loc	2 485 13                        @ ../../../../../../kernel/freertos/Source/portable/MemMang/heap_4.c:485:13
	cmp	r0, r1
	mov	r3, r6
	mov	r2, r7
	beq	.LBB5_8
.Ltmp122:
.LBB5_3:                                @ =>This Inner Loop Header: Depth=1
	@DEBUG_VALUE: vPortGetHeapStats:pxBlock <- $r0
	@DEBUG_VALUE: vPortGetHeapStats:pxHeapStats <- $r4
	@DEBUG_VALUE: vPortGetHeapStats:xBlocks <- $r5
	@DEBUG_VALUE: vPortGetHeapStats:xMaxSize <- $r3
	@DEBUG_VALUE: vPortGetHeapStats:xMinSize <- $r2
	@DEBUG_VALUE: vPortGetHeapStats:pxBlock <- $r0
	.loc	2 472 30                        @ ../../../../../../kernel/freertos/Source/portable/MemMang/heap_4.c:472:30
	ldr	r6, [r0, #4]
.Ltmp123:
	.loc	2 477 21                        @ ../../../../../../kernel/freertos/Source/portable/MemMang/heap_4.c:477:21
	cmp	r6, r2
	mov	r7, r6
	blo	.LBB5_5
.Ltmp124:
@ %bb.4:                                @   in Loop: Header=BB5_3 Depth=1
	@DEBUG_VALUE: vPortGetHeapStats:xMinSize <- $r2
	@DEBUG_VALUE: vPortGetHeapStats:xMaxSize <- $r3
	@DEBUG_VALUE: vPortGetHeapStats:xBlocks <- $r5
	@DEBUG_VALUE: vPortGetHeapStats:pxBlock <- $r0
	@DEBUG_VALUE: vPortGetHeapStats:pxHeapStats <- $r4
	.loc	2 0 21 is_stmt 0                @ ../../../../../../kernel/freertos/Source/portable/MemMang/heap_4.c:0:21
	mov	r7, r2
.Ltmp125:
	@DEBUG_VALUE: vPortGetHeapStats:xMinSize <- $r7
.LBB5_5:                                @   in Loop: Header=BB5_3 Depth=1
	@DEBUG_VALUE: vPortGetHeapStats:xMaxSize <- $r3
	@DEBUG_VALUE: vPortGetHeapStats:xBlocks <- $r5
	@DEBUG_VALUE: vPortGetHeapStats:pxBlock <- $r0
	@DEBUG_VALUE: vPortGetHeapStats:pxHeapStats <- $r4
	@DEBUG_VALUE: vPortGetHeapStats:xMinSize <- $r7
	.loc	2 472 21 is_stmt 1              @ ../../../../../../kernel/freertos/Source/portable/MemMang/heap_4.c:472:21
	cmp	r6, r3
	bhi	.LBB5_2
.Ltmp126:
@ %bb.6:                                @   in Loop: Header=BB5_3 Depth=1
	@DEBUG_VALUE: vPortGetHeapStats:xMinSize <- $r7
	@DEBUG_VALUE: vPortGetHeapStats:xMaxSize <- $r3
	@DEBUG_VALUE: vPortGetHeapStats:xBlocks <- $r5
	@DEBUG_VALUE: vPortGetHeapStats:pxBlock <- $r0
	@DEBUG_VALUE: vPortGetHeapStats:pxHeapStats <- $r4
	.loc	2 0 21 is_stmt 0                @ ../../../../../../kernel/freertos/Source/portable/MemMang/heap_4.c:0:21
	mov	r6, r3
.Ltmp127:
	@DEBUG_VALUE: vPortGetHeapStats:xMaxSize <- $r6
	b	.LBB5_2
.Ltmp128:
.LBB5_7:
	@DEBUG_VALUE: vPortGetHeapStats:pxBlock <- $r0
	@DEBUG_VALUE: vPortGetHeapStats:pxHeapStats <- $r4
	@DEBUG_VALUE: vPortGetHeapStats:xBlocks <- 0
	@DEBUG_VALUE: vPortGetHeapStats:xMaxSize <- 0
	@DEBUG_VALUE: vPortGetHeapStats:xMinSize <- -1
	mov	r6, r5
	mov	r7, r2
.Ltmp129:
.LBB5_8:
	@DEBUG_VALUE: vPortGetHeapStats:pxBlock <- $r0
	@DEBUG_VALUE: vPortGetHeapStats:pxHeapStats <- $r4
	@DEBUG_VALUE: vPortGetHeapStats:xBlocks <- $r5
	@DEBUG_VALUE: vPortGetHeapStats:xMaxSize <- $r6
	@DEBUG_VALUE: vPortGetHeapStats:xMinSize <- $r7
	.loc	2 488 14 is_stmt 1              @ ../../../../../../kernel/freertos/Source/portable/MemMang/heap_4.c:488:14
	bl	xTaskResumeAll
.Ltmp130:
	.loc	2 490 49                        @ ../../../../../../kernel/freertos/Source/portable/MemMang/heap_4.c:490:49
	str	r6, [r4, #4]
	.loc	2 491 50                        @ ../../../../../../kernel/freertos/Source/portable/MemMang/heap_4.c:491:50
	str	r7, [r4, #8]
	.loc	2 492 38                        @ ../../../../../../kernel/freertos/Source/portable/MemMang/heap_4.c:492:38
	str	r5, [r4, #12]
	.loc	2 494 5                         @ ../../../../../../kernel/freertos/Source/portable/MemMang/heap_4.c:494:5
	bl	vPortEnterCritical
.Ltmp131:
	.loc	2 496 51                        @ ../../../../../../kernel/freertos/Source/portable/MemMang/heap_4.c:496:51
	ldr	r0, __arm_cp.5_2
	ldr	r0, [r0]
	.loc	2 496 49 is_stmt 0              @ ../../../../../../kernel/freertos/Source/portable/MemMang/heap_4.c:496:49
	str	r0, [r4]
	.loc	2 497 55 is_stmt 1              @ ../../../../../../kernel/freertos/Source/portable/MemMang/heap_4.c:497:55
	ldr	r0, __arm_cp.5_3
	ldr	r0, [r0]
	.loc	2 498 49                        @ ../../../../../../kernel/freertos/Source/portable/MemMang/heap_4.c:498:49
	ldr	r1, __arm_cp.5_4
	ldr	r1, [r1]
	.loc	2 499 55                        @ ../../../../../../kernel/freertos/Source/portable/MemMang/heap_4.c:499:55
	ldr	r2, __arm_cp.5_5
	ldr	r2, [r2]
	.loc	2 499 53 is_stmt 0              @ ../../../../../../kernel/freertos/Source/portable/MemMang/heap_4.c:499:53
	str	r2, [r4, #16]
	.loc	2 497 53 is_stmt 1              @ ../../../../../../kernel/freertos/Source/portable/MemMang/heap_4.c:497:53
	str	r0, [r4, #20]
	.loc	2 498 47                        @ ../../../../../../kernel/freertos/Source/portable/MemMang/heap_4.c:498:47
	str	r1, [r4, #24]
.Ltmp132:
	.loc	2 501 5                         @ ../../../../../../kernel/freertos/Source/portable/MemMang/heap_4.c:501:5
	bl	vPortExitCritical
.Ltmp133:
	.loc	2 502 1 epilogue_begin          @ ../../../../../../kernel/freertos/Source/portable/MemMang/heap_4.c:502:1
	add	sp, #4
	pop	{r4, r5, r6, r7, pc}
.Ltmp134:
	.p2align	2
@ %bb.9:
	.loc	2 0 1 is_stmt 0                 @ ../../../../../../kernel/freertos/Source/portable/MemMang/heap_4.c:0:1
__arm_cp.5_0:
	.long	xStart
.Lcpi_end14:
	.size	__arm_cp.5_0, .Lcpi_end14-__arm_cp.5_0
__arm_cp.5_1:
	.long	pxEnd
.Lcpi_end15:
	.size	__arm_cp.5_1, .Lcpi_end15-__arm_cp.5_1
__arm_cp.5_2:
	.long	xFreeBytesRemaining
.Lcpi_end16:
	.size	__arm_cp.5_2, .Lcpi_end16-__arm_cp.5_2
__arm_cp.5_3:
	.long	xNumberOfSuccessfulAllocations
.Lcpi_end17:
	.size	__arm_cp.5_3, .Lcpi_end17-__arm_cp.5_3
__arm_cp.5_4:
	.long	xNumberOfSuccessfulFrees
.Lcpi_end18:
	.size	__arm_cp.5_4, .Lcpi_end18-__arm_cp.5_4
__arm_cp.5_5:
	.long	xMinimumEverFreeBytesRemaining
.Lcpi_end19:
	.size	__arm_cp.5_5, .Lcpi_end19-__arm_cp.5_5
.Lfunc_end5:
	.size	vPortGetHeapStats, .Lfunc_end5-vPortGetHeapStats
	.cfi_endproc
	.cantunwind
	.fnend
                                        @ -- End function
	.type	pxEnd,%object                   @ @pxEnd
	.section	.bss.pxEnd,"aw",%nobits
	.p2align	2, 0x0
pxEnd:
	.long	0
	.size	pxEnd, 4

	.type	xBlockAllocatedBit,%object      @ @xBlockAllocatedBit
	.section	.bss.xBlockAllocatedBit,"aw",%nobits
	.p2align	2, 0x0
xBlockAllocatedBit:
	.byte	0                               @ 0x0
	.size	xBlockAllocatedBit, 1

	.type	xFreeBytesRemaining,%object     @ @xFreeBytesRemaining
	.section	.bss.xFreeBytesRemaining,"aw",%nobits
	.p2align	2, 0x0
xFreeBytesRemaining:
	.long	0                               @ 0x0
	.size	xFreeBytesRemaining, 4

	.type	xStart,%object                  @ @xStart
	.section	.bss.xStart,"aw",%nobits
	.p2align	2, 0x0
xStart:
	.zero	8
	.size	xStart, 8

	.type	xMinimumEverFreeBytesRemaining,%object @ @xMinimumEverFreeBytesRemaining
	.section	.bss.xMinimumEverFreeBytesRemaining,"aw",%nobits
	.p2align	2, 0x0
xMinimumEverFreeBytesRemaining:
	.long	0                               @ 0x0
	.size	xMinimumEverFreeBytesRemaining, 4

	.type	xNumberOfSuccessfulAllocations,%object @ @xNumberOfSuccessfulAllocations
	.section	.bss.xNumberOfSuccessfulAllocations,"aw",%nobits
	.p2align	2, 0x0
xNumberOfSuccessfulAllocations:
	.long	0                               @ 0x0
	.size	xNumberOfSuccessfulAllocations, 4

	.type	xNumberOfSuccessfulFrees,%object @ @xNumberOfSuccessfulFrees
	.section	.bss.xNumberOfSuccessfulFrees,"aw",%nobits
	.p2align	2, 0x0
xNumberOfSuccessfulFrees:
	.long	0                               @ 0x0
	.size	xNumberOfSuccessfulFrees, 4

	.type	ucHeap,%object                  @ @ucHeap
	.section	.bss.ucHeap,"aw",%nobits
ucHeap:
	.zero	3072
	.size	ucHeap, 3072

	.file	5 "D:\\TI_M0G3507\\mspm0_sdk_2_05_00_05\\kernel\\freertos\\builds\\LP_MSPM0G3507\\release\\keil" "../../../../../../kernel/freertos/Source/include/portable.h"
	.section	".note.GNU-stack","",%progbits
	.eabi_attribute	30, 1	@ Tag_ABI_optimization_goals
	.ARM_attribute	16, 1	@ Tag_AV_eba