	.text
	.syntax unified
	.eabi_attribute	67, "2.09"	@ Tag_conformance
	.cpu	cortex-m0plus
	.eabi_attribute	6, 12	@ Tag_CPU_arch
	.eabi_attribute	7, 77	@ Tag_CPU_arch_profile
	.eabi_attribute	8, 0	@ Tag_ARM_ISA_use
	.eabi_attribute	9, 1	@ Tag_THUMB_ISA_use
	.eabi_attribute	34, 0	@ Tag_CPU_unaligned_access
	.eabi_attribute	17, 1	@ Tag_ABI_PCS_GOT_use
	.eabi_attribute	20, 2	@ Tag_ABI_FP_denormal
	.eabi_attribute	21, 0	@ Tag_ABI_FP_exceptions
	.eabi_attribute	23, 1	@ Tag_ABI_FP_number_model
	.eabi_attribute	24, 1	@ Tag_ABI_align_needed
	.eabi_attribute	25, 1	@ Tag_ABI_align_preserved
	.eabi_attribute	38, 1	@ Tag_ABI_FP_16bit_format
	.eabi_attribute	18, 2	@ Tag_ABI_PCS_wchar_t
	.eabi_attribute	26, 1	@ Tag_ABI_enum_size
	.eabi_attribute	14, 0	@ Tag_ABI_PCS_R9_use
	.file	"SemaphoreP_freertos.c"
	.file	1 "D:\\TI_M0G3507\\mspm0_sdk_2_05_00_05\\kernel\\freertos\\builds\\LP_MSPM0G3507\\release\\keil" "../../../../../../source\\ti/drivers/dpl/SemaphoreP.h"
	.file	2 "D:\\TI_M0G3507\\mspm0_sdk_2_05_00_05\\kernel\\freertos\\builds\\LP_MSPM0G3507\\release\\keil" "../../../../../../kernel/freertos/Source/portable/GCC/ARM_CM0\\portmacro.h"
	.file	3 "D:\\TI_M0G3507\\mspm0_sdk_2_05_00_05\\kernel\\freertos\\builds\\LP_MSPM0G3507\\release\\keil" "../../../../../../kernel/freertos/Source/include\\FreeRTOS.h"
	.file	4 "I:\\Keil5\\keil5_mdk\\ARM\\ARMCLANG\\Bin\\..\\include" "stdint.h"
	.file	5 "D:\\TI_M0G3507\\mspm0_sdk_2_05_00_05\\kernel\\freertos\\builds\\LP_MSPM0G3507\\release\\keil" "../../../../../../kernel/freertos/Source/include/queue.h"
	.file	6 "D:\\TI_M0G3507\\mspm0_sdk_2_05_00_05\\kernel\\freertos\\builds\\LP_MSPM0G3507\\release\\keil" "../../../../../../kernel/freertos/Source/include\\semphr.h"
	.section	.text.SemaphoreP_construct,"ax",%progbits
	.hidden	SemaphoreP_construct            @ -- Begin function SemaphoreP_construct
	.globl	SemaphoreP_construct
	.p2align	2
	.type	SemaphoreP_construct,%function
	.code	16                              @ @SemaphoreP_construct
	.thumb_func
SemaphoreP_construct:
.Lfunc_begin0:
	.file	7 "D:\\TI_M0G3507\\mspm0_sdk_2_05_00_05\\kernel\\freertos\\builds\\LP_MSPM0G3507\\release\\keil" "../../../../../../kernel/freertos/dpl/SemaphoreP_freertos.c"
	.loc	7 57 0                          @ ../../../../../../kernel/freertos/dpl/SemaphoreP_freertos.c:57:0
	.fnstart
	.cfi_sections .debug_frame
	.cfi_startproc
@ %bb.0:
	@DEBUG_VALUE: SemaphoreP_construct:handle <- $r0
	@DEBUG_VALUE: SemaphoreP_construct:count <- $r1
	@DEBUG_VALUE: SemaphoreP_construct:params <- $r2
	.save	{r4, r5, r7, lr}
	push	{r4, r5, r7, lr}
	.cfi_def_cfa_offset 16
	.cfi_offset lr, -4
	.cfi_offset r7, -8
	.cfi_offset r5, -12
	.cfi_offset r4, -16
	.pad	#8
	sub	sp, #8
	.cfi_def_cfa_offset 24
	mov	r5, r1
.Ltmp0:
	@DEBUG_VALUE: SemaphoreP_construct:count <- $r5
	mov	r3, r0
.Ltmp1:
	@DEBUG_VALUE: SemaphoreP_construct:sem <- 0
	@DEBUG_VALUE: SemaphoreP_construct:handle <- $r3
	.loc	7 62 9 prologue_end             @ ../../../../../../kernel/freertos/dpl/SemaphoreP_freertos.c:62:9
	cmp	r2, #0
	beq	.LBB0_5
.Ltmp2:
@ %bb.1:
	@DEBUG_VALUE: SemaphoreP_construct:handle <- $r3
	@DEBUG_VALUE: SemaphoreP_construct:sem <- 0
	@DEBUG_VALUE: SemaphoreP_construct:count <- $r5
	@DEBUG_VALUE: SemaphoreP_construct:params <- $r2
	.loc	7 68 17                         @ ../../../../../../kernel/freertos/dpl/SemaphoreP_freertos.c:68:17
	ldrb	r0, [r2]
.Ltmp3:
	.loc	7 68 9 is_stmt 0                @ ../../../../../../kernel/freertos/dpl/SemaphoreP_freertos.c:68:9
	cmp	r0, #0
.Ltmp4:
	@DEBUG_VALUE: SemaphoreP_construct:params <- undef
	beq	.LBB0_5
.Ltmp5:
@ %bb.2:
	@DEBUG_VALUE: SemaphoreP_construct:handle <- $r3
	@DEBUG_VALUE: SemaphoreP_construct:sem <- 0
	@DEBUG_VALUE: SemaphoreP_construct:count <- $r5
	.loc	7 0 9                           @ ../../../../../../kernel/freertos/dpl/SemaphoreP_freertos.c:0:9
	movs	r0, #3
.Ltmp6:
	.loc	7 88 15 is_stmt 1               @ ../../../../../../kernel/freertos/dpl/SemaphoreP_freertos.c:88:15
	str	r0, [sp]
	movs	r0, #1
	movs	r1, #0
	mov	r2, r1
	bl	xQueueGenericCreateStatic
.Ltmp7:
	mov	r4, r0
.Ltmp8:
	@DEBUG_VALUE: SemaphoreP_construct:sem <- $r4
	.loc	7 89 27                         @ ../../../../../../kernel/freertos/dpl/SemaphoreP_freertos.c:89:27
	cmp	r5, #0
	beq	.LBB0_6
.Ltmp9:
@ %bb.3:
	@DEBUG_VALUE: SemaphoreP_construct:sem <- $r4
	@DEBUG_VALUE: SemaphoreP_construct:count <- $r5
	cmp	r4, #0
	beq	.LBB0_6
.Ltmp10:
@ %bb.4:
	@DEBUG_VALUE: SemaphoreP_construct:sem <- $r4
	@DEBUG_VALUE: SemaphoreP_construct:count <- $r5
	.loc	7 0 27 is_stmt 0                @ ../../../../../../kernel/freertos/dpl/SemaphoreP_freertos.c:0:27
	movs	r1, #0
.Ltmp11:
	.loc	7 91 13 is_stmt 1               @ ../../../../../../kernel/freertos/dpl/SemaphoreP_freertos.c:91:13
	mov	r0, r4
	mov	r2, r1
	mov	r3, r1
	bl	xQueueGenericSend
.Ltmp12:
	.loc	7 0 13 is_stmt 0                @ ../../../../../../kernel/freertos/dpl/SemaphoreP_freertos.c:0:13
	b	.LBB0_6
.Ltmp13:
.LBB0_5:
	@DEBUG_VALUE: SemaphoreP_construct:handle <- $r3
	@DEBUG_VALUE: SemaphoreP_construct:sem <- 0
	@DEBUG_VALUE: SemaphoreP_construct:count <- $r5
	ldr	r0, __arm_cp.0_0
.Ltmp14:
	.loc	7 83 15 is_stmt 1               @ ../../../../../../kernel/freertos/dpl/SemaphoreP_freertos.c:83:15
	mov	r1, r5
	mov	r2, r3
	bl	xQueueCreateCountingSemaphoreStatic
.Ltmp15:
	mov	r4, r0
.Ltmp16:
	@DEBUG_VALUE: SemaphoreP_construct:sem <- $r4
.LBB0_6:
	@DEBUG_VALUE: SemaphoreP_construct:sem <- $r4
	@DEBUG_VALUE: SemaphoreP_construct:count <- $r5
	@DEBUG_VALUE: SemaphoreP_construct:sem <- $r4
	.loc	7 96 5                          @ ../../../../../../kernel/freertos/dpl/SemaphoreP_freertos.c:96:5
	mov	r0, r4
	.loc	7 96 5 epilogue_begin is_stmt 0 @ ../../../../../../kernel/freertos/dpl/SemaphoreP_freertos.c:96:5
	add	sp, #8
	pop	{r4, r5, r7, pc}
.Ltmp17:
	.p2align	2
@ %bb.7:
	.loc	7 0 5                           @ ../../../../../../kernel/freertos/dpl/SemaphoreP_freertos.c:0:5
__arm_cp.0_0:
	.long	65535                           @ 0xffff
.Lcpi_end0:
	.size	__arm_cp.0_0, .Lcpi_end0-__arm_cp.0_0
.Lfunc_end0:
	.size	SemaphoreP_construct, .Lfunc_end0-SemaphoreP_construct
	.cfi_endproc
	.cantunwind
	.fnend
                                        @ -- End function
	.section	.text.SemaphoreP_Params_init,"ax",%progbits
	.hidden	SemaphoreP_Params_init          @ -- Begin function SemaphoreP_Params_init
	.globl	SemaphoreP_Params_init
	.p2align	1
	.type	SemaphoreP_Params_init,%function
	.code	16                              @ @SemaphoreP_Params_init
	.thumb_func
SemaphoreP_Params_init:
.Lfunc_begin1:
	.loc	7 193 0 is_stmt 1               @ ../../../../../../kernel/freertos/dpl/SemaphoreP_freertos.c:193:0
	.fnstart
	.cfi_startproc
@ %bb.0:
	@DEBUG_VALUE: SemaphoreP_Params_init:params <- $r0
	movs	r1, #0
.Ltmp18:
	.loc	7 195 22 prologue_end           @ ../../../../../../kernel/freertos/dpl/SemaphoreP_freertos.c:195:22
	str	r1, [r0, #4]
	.loc	7 194 18                        @ ../../../../../../kernel/freertos/dpl/SemaphoreP_freertos.c:194:18
	strb	r1, [r0]
	.loc	7 196 1                         @ ../../../../../../kernel/freertos/dpl/SemaphoreP_freertos.c:196:1
	bx	lr
.Ltmp19:
.Lfunc_end1:
	.size	SemaphoreP_Params_init, .Lfunc_end1-SemaphoreP_Params_init
	.cfi_endproc
	.cantunwind
	.fnend
                                        @ -- End function
	.section	.text.SemaphoreP_constructBinary,"ax",%progbits
	.hidden	SemaphoreP_constructBinary      @ -- Begin function SemaphoreP_constructBinary
	.globl	SemaphoreP_constructBinary
	.p2align	1
	.type	SemaphoreP_constructBinary,%function
	.code	16                              @ @SemaphoreP_constructBinary
	.thumb_func
SemaphoreP_constructBinary:
.Lfunc_begin2:
	.loc	7 104 0                         @ ../../../../../../kernel/freertos/dpl/SemaphoreP_freertos.c:104:0
	.fnstart
	.cfi_startproc
@ %bb.0:
	@DEBUG_VALUE: SemaphoreP_constructBinary:handle <- $r0
	@DEBUG_VALUE: SemaphoreP_constructBinary:count <- $r1
	.save	{r4, r5, r7, lr}
	push	{r4, r5, r7, lr}
	.cfi_def_cfa_offset 16
	.cfi_offset lr, -4
	.cfi_offset r7, -8
	.cfi_offset r5, -12
	.cfi_offset r4, -16
	.pad	#8
	sub	sp, #8
	.cfi_def_cfa_offset 24
	mov	r5, r1
.Ltmp20:
	@DEBUG_VALUE: SemaphoreP_constructBinary:count <- $r5
	mov	r3, r0
.Ltmp21:
	@DEBUG_VALUE: SemaphoreP_constructBinary:sem <- 0
	@DEBUG_VALUE: SemaphoreP_constructBinary:handle <- $r3
	movs	r0, #3
.Ltmp22:
	.loc	7 108 11 prologue_end           @ ../../../../../../kernel/freertos/dpl/SemaphoreP_freertos.c:108:11
	str	r0, [sp]
	movs	r0, #1
	movs	r1, #0
	mov	r2, r1
	bl	xQueueGenericCreateStatic
.Ltmp23:
	mov	r4, r0
.Ltmp24:
	@DEBUG_VALUE: SemaphoreP_constructBinary:sem <- $r4
	.loc	7 109 23                        @ ../../../../../../kernel/freertos/dpl/SemaphoreP_freertos.c:109:23
	cmp	r5, #0
	beq	.LBB2_3
.Ltmp25:
@ %bb.1:
	@DEBUG_VALUE: SemaphoreP_constructBinary:sem <- $r4
	@DEBUG_VALUE: SemaphoreP_constructBinary:count <- $r5
	cmp	r4, #0
	beq	.LBB2_3
.Ltmp26:
@ %bb.2:
	@DEBUG_VALUE: SemaphoreP_constructBinary:sem <- $r4
	@DEBUG_VALUE: SemaphoreP_constructBinary:count <- $r5
	.loc	7 0 23 is_stmt 0                @ ../../../../../../kernel/freertos/dpl/SemaphoreP_freertos.c:0:23
	movs	r1, #0
.Ltmp27:
	.loc	7 111 9 is_stmt 1               @ ../../../../../../kernel/freertos/dpl/SemaphoreP_freertos.c:111:9
	mov	r0, r4
	mov	r2, r1
	mov	r3, r1
	bl	xQueueGenericSend
.Ltmp28:
.LBB2_3:
	@DEBUG_VALUE: SemaphoreP_constructBinary:sem <- $r4
	@DEBUG_VALUE: SemaphoreP_constructBinary:count <- $r5
	.loc	7 115 5                         @ ../../../../../../kernel/freertos/dpl/SemaphoreP_freertos.c:115:5
	mov	r0, r4
	.loc	7 115 5 epilogue_begin is_stmt 0 @ ../../../../../../kernel/freertos/dpl/SemaphoreP_freertos.c:115:5
	add	sp, #8
	pop	{r4, r5, r7, pc}
.Ltmp29:
.Lfunc_end2:
	.size	SemaphoreP_constructBinary, .Lfunc_end2-SemaphoreP_constructBinary
	.cfi_endproc
	.cantunwind
	.fnend
                                        @ -- End function
	.section	.text.SemaphoreP_create,"ax",%progbits
	.hidden	SemaphoreP_create               @ -- Begin function SemaphoreP_create
	.globl	SemaphoreP_create
	.p2align	2
	.type	SemaphoreP_create,%function
	.code	16                              @ @SemaphoreP_create
	.thumb_func
SemaphoreP_create:
.Lfunc_begin3:
	.loc	7 123 0 is_stmt 1               @ ../../../../../../kernel/freertos/dpl/SemaphoreP_freertos.c:123:0
	.fnstart
	.cfi_startproc
@ %bb.0:
	@DEBUG_VALUE: SemaphoreP_create:count <- $r0
	@DEBUG_VALUE: SemaphoreP_create:params <- $r1
	.save	{r4, r5, r7, lr}
	push	{r4, r5, r7, lr}
	.cfi_def_cfa_offset 16
	.cfi_offset lr, -4
	.cfi_offset r7, -8
	.cfi_offset r5, -12
	.cfi_offset r4, -16
	mov	r5, r0
.Ltmp30:
	@DEBUG_VALUE: SemaphoreP_create:sem <- 0
	@DEBUG_VALUE: SemaphoreP_create:count <- $r5
	.loc	7 127 9 prologue_end            @ ../../../../../../kernel/freertos/dpl/SemaphoreP_freertos.c:127:9
	cmp	r1, #0
	beq	.LBB3_6
.Ltmp31:
@ %bb.1:
	@DEBUG_VALUE: SemaphoreP_create:count <- $r5
	@DEBUG_VALUE: SemaphoreP_create:sem <- 0
	@DEBUG_VALUE: SemaphoreP_create:params <- $r1
	.loc	7 132 17                        @ ../../../../../../kernel/freertos/dpl/SemaphoreP_freertos.c:132:17
	ldrb	r0, [r1]
.Ltmp32:
	.loc	7 132 9 is_stmt 0               @ ../../../../../../kernel/freertos/dpl/SemaphoreP_freertos.c:132:9
	cmp	r0, #0
.Ltmp33:
	@DEBUG_VALUE: SemaphoreP_create:params <- undef
	beq	.LBB3_6
.Ltmp34:
@ %bb.2:
	@DEBUG_VALUE: SemaphoreP_create:count <- $r5
	@DEBUG_VALUE: SemaphoreP_create:sem <- 0
	.loc	7 0 9                           @ ../../../../../../kernel/freertos/dpl/SemaphoreP_freertos.c:0:9
	movs	r0, #1
	movs	r1, #0
	movs	r2, #3
.Ltmp35:
	.loc	7 151 15 is_stmt 1              @ ../../../../../../kernel/freertos/dpl/SemaphoreP_freertos.c:151:15
	bl	xQueueGenericCreate
.Ltmp36:
	mov	r4, r0
.Ltmp37:
	@DEBUG_VALUE: SemaphoreP_create:sem <- $r4
	.loc	7 152 27                        @ ../../../../../../kernel/freertos/dpl/SemaphoreP_freertos.c:152:27
	cmp	r5, #0
	beq	.LBB3_5
.Ltmp38:
@ %bb.3:
	@DEBUG_VALUE: SemaphoreP_create:sem <- $r4
	@DEBUG_VALUE: SemaphoreP_create:count <- $r5
	cmp	r4, #0
	beq	.LBB3_5
.Ltmp39:
@ %bb.4:
	@DEBUG_VALUE: SemaphoreP_create:sem <- $r4
	@DEBUG_VALUE: SemaphoreP_create:count <- $r5
	.loc	7 0 27 is_stmt 0                @ ../../../../../../kernel/freertos/dpl/SemaphoreP_freertos.c:0:27
	movs	r1, #0
.Ltmp40:
	.loc	7 153 13 is_stmt 1              @ ../../../../../../kernel/freertos/dpl/SemaphoreP_freertos.c:153:13
	mov	r0, r4
	mov	r2, r1
	mov	r3, r1
	bl	xQueueGenericSend
.Ltmp41:
.LBB3_5:
	@DEBUG_VALUE: SemaphoreP_create:sem <- $r4
	@DEBUG_VALUE: SemaphoreP_create:count <- $r5
	@DEBUG_VALUE: SemaphoreP_create:sem <- $r4
	.loc	7 157 5                         @ ../../../../../../kernel/freertos/dpl/SemaphoreP_freertos.c:157:5
	mov	r0, r4
	.loc	7 157 5 epilogue_begin is_stmt 0 @ ../../../../../../kernel/freertos/dpl/SemaphoreP_freertos.c:157:5
	pop	{r4, r5, r7, pc}
.Ltmp42:
.LBB3_6:
	@DEBUG_VALUE: SemaphoreP_create:count <- $r5
	@DEBUG_VALUE: SemaphoreP_create:sem <- 0
	.loc	7 0 5                           @ ../../../../../../kernel/freertos/dpl/SemaphoreP_freertos.c:0:5
	ldr	r0, __arm_cp.3_0
.Ltmp43:
	.loc	7 146 15 is_stmt 1              @ ../../../../../../kernel/freertos/dpl/SemaphoreP_freertos.c:146:15
	mov	r1, r5
	bl	xQueueCreateCountingSemaphore
.Ltmp44:
	@DEBUG_VALUE: SemaphoreP_create:sem <- $r0
	@DEBUG_VALUE: SemaphoreP_create:sem <- $r0
	.loc	7 157 5 epilogue_begin          @ ../../../../../../kernel/freertos/dpl/SemaphoreP_freertos.c:157:5
	pop	{r4, r5, r7, pc}
.Ltmp45:
	.p2align	2
@ %bb.7:
	.loc	7 0 5 is_stmt 0                 @ ../../../../../../kernel/freertos/dpl/SemaphoreP_freertos.c:0:5
__arm_cp.3_0:
	.long	65535                           @ 0xffff
.Lcpi_end1:
	.size	__arm_cp.3_0, .Lcpi_end1-__arm_cp.3_0
.Lfunc_end3:
	.size	SemaphoreP_create, .Lfunc_end3-SemaphoreP_create
	.cfi_endproc
	.cantunwind
	.fnend
                                        @ -- End function
	.section	.text.SemaphoreP_createBinary,"ax",%progbits
	.hidden	SemaphoreP_createBinary         @ -- Begin function SemaphoreP_createBinary
	.globl	SemaphoreP_createBinary
	.p2align	1
	.type	SemaphoreP_createBinary,%function
	.code	16                              @ @SemaphoreP_createBinary
	.thumb_func
SemaphoreP_createBinary:
.Lfunc_begin4:
	.loc	7 164 0 is_stmt 1               @ ../../../../../../kernel/freertos/dpl/SemaphoreP_freertos.c:164:0
	.fnstart
	.cfi_startproc
@ %bb.0:
	@DEBUG_VALUE: SemaphoreP_createBinary:count <- $r0
	.save	{r4, r5, r7, lr}
	push	{r4, r5, r7, lr}
	.cfi_def_cfa_offset 16
	.cfi_offset lr, -4
	.cfi_offset r7, -8
	.cfi_offset r5, -12
	.cfi_offset r4, -16
	mov	r5, r0
.Ltmp46:
	@DEBUG_VALUE: SemaphoreP_createBinary:sem <- 0
	@DEBUG_VALUE: SemaphoreP_createBinary:count <- $r5
	movs	r0, #1
	movs	r1, #0
	movs	r2, #3
.Ltmp47:
	.loc	7 167 11 prologue_end           @ ../../../../../../kernel/freertos/dpl/SemaphoreP_freertos.c:167:11
	bl	xQueueGenericCreate
.Ltmp48:
	mov	r4, r0
.Ltmp49:
	@DEBUG_VALUE: SemaphoreP_createBinary:sem <- $r4
	.loc	7 168 23                        @ ../../../../../../kernel/freertos/dpl/SemaphoreP_freertos.c:168:23
	cmp	r5, #0
	beq	.LBB4_3
.Ltmp50:
@ %bb.1:
	@DEBUG_VALUE: SemaphoreP_createBinary:sem <- $r4
	@DEBUG_VALUE: SemaphoreP_createBinary:count <- $r5
	cmp	r4, #0
	beq	.LBB4_3
.Ltmp51:
@ %bb.2:
	@DEBUG_VALUE: SemaphoreP_createBinary:sem <- $r4
	@DEBUG_VALUE: SemaphoreP_createBinary:count <- $r5
	.loc	7 0 23 is_stmt 0                @ ../../../../../../kernel/freertos/dpl/SemaphoreP_freertos.c:0:23
	movs	r1, #0
.Ltmp52:
	.loc	7 169 9 is_stmt 1               @ ../../../../../../kernel/freertos/dpl/SemaphoreP_freertos.c:169:9
	mov	r0, r4
	mov	r2, r1
	mov	r3, r1
	bl	xQueueGenericSend
.Ltmp53:
.LBB4_3:
	@DEBUG_VALUE: SemaphoreP_createBinary:sem <- $r4
	@DEBUG_VALUE: SemaphoreP_createBinary:count <- $r5
	.loc	7 172 5                         @ ../../../../../../kernel/freertos/dpl/SemaphoreP_freertos.c:172:5
	mov	r0, r4
	.loc	7 172 5 epilogue_begin is_stmt 0 @ ../../../../../../kernel/freertos/dpl/SemaphoreP_freertos.c:172:5
	pop	{r4, r5, r7, pc}
.Ltmp54:
.Lfunc_end4:
	.size	SemaphoreP_createBinary, .Lfunc_end4-SemaphoreP_createBinary
	.cfi_endproc
	.cantunwind
	.fnend
                                        @ -- End function
	.section	.text.SemaphoreP_delete,"ax",%progbits
	.hidden	SemaphoreP_delete               @ -- Begin function SemaphoreP_delete
	.globl	SemaphoreP_delete
	.p2align	1
	.type	SemaphoreP_delete,%function
	.code	16                              @ @SemaphoreP_delete
	.thumb_func
SemaphoreP_delete:
.Lfunc_begin5:
	.loc	7 179 0 is_stmt 1               @ ../../../../../../kernel/freertos/dpl/SemaphoreP_freertos.c:179:0
	.fnstart
	.cfi_startproc
@ %bb.0:
	@DEBUG_VALUE: SemaphoreP_delete:handle <- $r0
	.save	{r7, lr}
	push	{r7, lr}
	.cfi_def_cfa_offset 8
	.cfi_offset lr, -4
	.cfi_offset r7, -8
.Ltmp55:
	.loc	7 180 5 prologue_end            @ ../../../../../../kernel/freertos/dpl/SemaphoreP_freertos.c:180:5
	bl	vQueueDelete
.Ltmp56:
	@DEBUG_VALUE: SemaphoreP_delete:handle <- [DW_OP_LLVM_entry_value 1] $r0
	.loc	7 181 1 epilogue_begin          @ ../../../../../../kernel/freertos/dpl/SemaphoreP_freertos.c:181:1
	pop	{r7, pc}
.Ltmp57:
.Lfunc_end5:
	.size	SemaphoreP_delete, .Lfunc_end5-SemaphoreP_delete
	.cfi_endproc
	.cantunwind
	.fnend
                                        @ -- End function
	.section	.text.SemaphoreP_destruct,"ax",%progbits
	.hidden	SemaphoreP_destruct             @ -- Begin function SemaphoreP_destruct
	.globl	SemaphoreP_destruct
	.p2align	1
	.type	SemaphoreP_destruct,%function
	.code	16                              @ @SemaphoreP_destruct
	.thumb_func
SemaphoreP_destruct:
.Lfunc_begin6:
	.fnstart
	.cfi_startproc
@ %bb.0:
	@DEBUG_VALUE: SemaphoreP_destruct:semP <- $r0
	.loc	7 187 2 prologue_end            @ ../../../../../../kernel/freertos/dpl/SemaphoreP_freertos.c:187:2
	bx	lr
.Ltmp58:
.Lfunc_end6:
	.size	SemaphoreP_destruct, .Lfunc_end6-SemaphoreP_destruct
	.cfi_endproc
	.cantunwind
	.fnend
                                        @ -- End function
	.section	.text.SemaphoreP_pend,"ax",%progbits
	.hidden	SemaphoreP_pend                 @ -- Begin function SemaphoreP_pend
	.globl	SemaphoreP_pend
	.p2align	1
	.type	SemaphoreP_pend,%function
	.code	16                              @ @SemaphoreP_pend
	.thumb_func
SemaphoreP_pend:
.Lfunc_begin7:
	.loc	7 202 0                         @ ../../../../../../kernel/freertos/dpl/SemaphoreP_freertos.c:202:0
	.fnstart
	.cfi_startproc
@ %bb.0:
	@DEBUG_VALUE: SemaphoreP_pend:handle <- $r0
	@DEBUG_VALUE: SemaphoreP_pend:timeout <- $r1
	.save	{r4, r5, r6, r7, lr}
	push	{r4, r5, r6, r7, lr}
	.cfi_def_cfa_offset 20
	.cfi_offset lr, -4
	.cfi_offset r7, -8
	.cfi_offset r6, -12
	.cfi_offset r5, -16
	.cfi_offset r4, -20
	.pad	#4
	sub	sp, #4
	.cfi_def_cfa_offset 24
	mov	r5, r1
.Ltmp59:
	@DEBUG_VALUE: SemaphoreP_pend:timeout <- $r5
	mov	r4, r0
.Ltmp60:
	@DEBUG_VALUE: SemaphoreP_pend:handle <- $r4
	.loc	7 208 9 prologue_end            @ ../../../../../../kernel/freertos/dpl/SemaphoreP_freertos.c:208:9
	bl	HwiP_inISR
.Ltmp61:
	.loc	7 208 9 is_stmt 0               @ ../../../../../../kernel/freertos/dpl/SemaphoreP_freertos.c:208:9
	cmp	r0, #0
	beq	.LBB7_2
.Ltmp62:
@ %bb.1:
	@DEBUG_VALUE: SemaphoreP_pend:handle <- $r4
	@DEBUG_VALUE: SemaphoreP_pend:timeout <- $r5
	.loc	7 0 9                           @ ../../../../../../kernel/freertos/dpl/SemaphoreP_freertos.c:0:9
	movs	r1, #0
.Ltmp63:
	.loc	7 211 18 is_stmt 1              @ ../../../../../../kernel/freertos/dpl/SemaphoreP_freertos.c:211:18
	mov	r0, r4
	mov	r2, r1
	bl	xQueueReceiveFromISR
.Ltmp64:
	.loc	7 0 18 is_stmt 0                @ ../../../../../../kernel/freertos/dpl/SemaphoreP_freertos.c:0:18
	b	.LBB7_5
.Ltmp65:
.LBB7_2:
	@DEBUG_VALUE: SemaphoreP_pend:handle <- $r4
	@DEBUG_VALUE: SemaphoreP_pend:timeout <- $r5
	movs	r0, #125
	lsls	r6, r0, #3
.Ltmp66:
	.loc	7 219 22 is_stmt 1              @ ../../../../../../kernel/freertos/dpl/SemaphoreP_freertos.c:219:22
	bl	ClockP_getSystemTickPeriod
.Ltmp67:
	@DEBUG_VALUE: SemaphoreP_pend:tickPeriod <- $r0
	.loc	7 220 13                        @ ../../../../../../kernel/freertos/dpl/SemaphoreP_freertos.c:220:13
	cmp	r0, r6
	beq	.LBB7_4
.Ltmp68:
@ %bb.3:
	@DEBUG_VALUE: SemaphoreP_pend:tickPeriod <- $r0
	@DEBUG_VALUE: SemaphoreP_pend:handle <- $r4
	@DEBUG_VALUE: SemaphoreP_pend:timeout <- $r5
	.loc	7 0 13 is_stmt 0                @ ../../../../../../kernel/freertos/dpl/SemaphoreP_freertos.c:0:13
	movs	r7, #0
.Ltmp69:
	.loc	7 222 31 is_stmt 1              @ ../../../../../../kernel/freertos/dpl/SemaphoreP_freertos.c:222:31
	mov	r1, r7
	mov	r2, r5
	mov	r3, r7
	bl	__aeabi_lmul
.Ltmp70:
	@DEBUG_VALUE: SemaphoreP_pend:timeUS <- [DW_OP_LLVM_fragment 32 32] $r1
	@DEBUG_VALUE: SemaphoreP_pend:timeUS <- [DW_OP_LLVM_fragment 0 32] $r0
	.loc	7 223 43                        @ ../../../../../../kernel/freertos/dpl/SemaphoreP_freertos.c:223:43
	mov	r2, r6
	mov	r3, r7
	bl	__aeabi_uldivmod
.Ltmp71:
	mov	r5, r0
.Ltmp72:
	@DEBUG_VALUE: SemaphoreP_pend:timeout <- [DW_OP_LLVM_entry_value 1] $r1
	@DEBUG_VALUE: SemaphoreP_pend:ticksFR <- $r5
.LBB7_4:
	@DEBUG_VALUE: SemaphoreP_pend:handle <- $r4
	@DEBUG_VALUE: SemaphoreP_pend:ticksFR <- $r5
	.loc	7 229 18                        @ ../../../../../../kernel/freertos/dpl/SemaphoreP_freertos.c:229:18
	mov	r0, r4
	mov	r1, r5
	bl	xQueueSemaphoreTake
.Ltmp73:
.LBB7_5:
	@DEBUG_VALUE: SemaphoreP_pend:handle <- $r4
	.loc	7 0 0 is_stmt 0                 @ ../../../../../../kernel/freertos/dpl/SemaphoreP_freertos.c:0:0
	mov	r1, r0
.Ltmp74:
	@DEBUG_VALUE: SemaphoreP_pend:status <- $r1
	movs	r0, #0
.Ltmp75:
	.loc	7 238 1 is_stmt 1               @ ../../../../../../kernel/freertos/dpl/SemaphoreP_freertos.c:238:1
	cmp	r1, #1
	beq	.LBB7_7
.Ltmp76:
@ %bb.6:
	@DEBUG_VALUE: SemaphoreP_pend:status <- $r1
	@DEBUG_VALUE: SemaphoreP_pend:handle <- $r4
	.loc	7 0 1 is_stmt 0                 @ ../../../../../../kernel/freertos/dpl/SemaphoreP_freertos.c:0:1
	mvns	r0, r0
.Ltmp77:
.LBB7_7:
	@DEBUG_VALUE: SemaphoreP_pend:status <- $r1
	@DEBUG_VALUE: SemaphoreP_pend:handle <- $r4
	.loc	7 238 1 epilogue_begin          @ ../../../../../../kernel/freertos/dpl/SemaphoreP_freertos.c:238:1
	add	sp, #4
	pop	{r4, r5, r6, r7, pc}
.Ltmp78:
.Lfunc_end7:
	.size	SemaphoreP_pend, .Lfunc_end7-SemaphoreP_pend
	.cfi_endproc
	.cantunwind
	.fnend
                                        @ -- End function
	.section	.text.SemaphoreP_post,"ax",%progbits
	.hidden	SemaphoreP_post                 @ -- Begin function SemaphoreP_post
	.globl	SemaphoreP_post
	.p2align	1
	.type	SemaphoreP_post,%function
	.code	16                              @ @SemaphoreP_post
	.thumb_func
SemaphoreP_post:
.Lfunc_begin8:
	.loc	7 244 0 is_stmt 1               @ ../../../../../../kernel/freertos/dpl/SemaphoreP_freertos.c:244:0
	.fnstart
	.cfi_startproc
@ %bb.0:
	@DEBUG_VALUE: SemaphoreP_post:handle <- $r0
	.save	{r4, lr}
	push	{r4, lr}
	.cfi_def_cfa_offset 8
	.cfi_offset lr, -4
	.cfi_offset r4, -8
	.pad	#8
	sub	sp, #8
	.cfi_def_cfa_offset 16
	mov	r4, r0
.Ltmp79:
	@DEBUG_VALUE: SemaphoreP_post:handle <- $r4
	.loc	7 247 10 prologue_end           @ ../../../../../../kernel/freertos/dpl/SemaphoreP_freertos.c:247:10
	bl	HwiP_inISR
.Ltmp80:
	.loc	7 247 9 is_stmt 0               @ ../../../../../../kernel/freertos/dpl/SemaphoreP_freertos.c:247:9
	cmp	r0, #0
	beq	.LBB8_2
.Ltmp81:
@ %bb.1:
	@DEBUG_VALUE: SemaphoreP_post:handle <- $r4
	.loc	7 0 9                           @ ../../../../../../kernel/freertos/dpl/SemaphoreP_freertos.c:0:9
	add	r1, sp, #4
.Ltmp82:
	.loc	7 252 9 is_stmt 1               @ ../../../../../../kernel/freertos/dpl/SemaphoreP_freertos.c:252:9
	mov	r0, r4
	bl	xQueueGiveFromISR
.Ltmp83:
	.loc	7 255 1 epilogue_begin          @ ../../../../../../kernel/freertos/dpl/SemaphoreP_freertos.c:255:1
	add	sp, #8
	pop	{r4, pc}
.Ltmp84:
.LBB8_2:
	@DEBUG_VALUE: SemaphoreP_post:handle <- $r4
	.loc	7 0 1 is_stmt 0                 @ ../../../../../../kernel/freertos/dpl/SemaphoreP_freertos.c:0:1
	movs	r1, #0
.Ltmp85:
	.loc	7 249 9 is_stmt 1               @ ../../../../../../kernel/freertos/dpl/SemaphoreP_freertos.c:249:9
	mov	r0, r4
	mov	r2, r1
	mov	r3, r1
	bl	xQueueGenericSend
.Ltmp86:
	.loc	7 255 1 epilogue_begin          @ ../../../../../../kernel/freertos/dpl/SemaphoreP_freertos.c:255:1
	add	sp, #8
	pop	{r4, pc}
.Ltmp87:
.Lfunc_end8:
	.size	SemaphoreP_post, .Lfunc_end8-SemaphoreP_post
	.cfi_endproc
	.cantunwind
	.fnend
                                        @ -- End function
	.section	.text.SemaphoreP_staticObjectSize,"ax",%progbits
	.hidden	SemaphoreP_staticObjectSize     @ -- Begin function SemaphoreP_staticObjectSize
	.globl	SemaphoreP_staticObjectSize
	.p2align	1
	.type	SemaphoreP_staticObjectSize,%function
	.code	16                              @ @SemaphoreP_staticObjectSize
	.thumb_func
SemaphoreP_staticObjectSize:
.Lfunc_begin9:
	.loc	7 262 0                         @ ../../../../../../kernel/freertos/dpl/SemaphoreP_freertos.c:262:0
	.fnstart
	.cfi_startproc
@ %bb.0:
	movs	r0, #80
.Ltmp88:
	.loc	7 263 5 prologue_end            @ ../../../../../../kernel/freertos/dpl/SemaphoreP_freertos.c:263:5
	bx	lr
.Ltmp89:
.Lfunc_end9:
	.size	SemaphoreP_staticObjectSize, .Lfunc_end9-SemaphoreP_staticObjectSize
	.cfi_endproc
	.cantunwind
	.fnend
                                        @ -- End function
	.file	8 "I:\\Keil5\\keil5_mdk\\ARM\\ARMCLANG\\Bin\\..\\include" "stddef.h"
	.section	".note.GNU-stack","",%progbits
	.eabi_attribute	30, 1	@ Tag_ABI_optimization_goals
	.ARM_attribute	16, 1	@ Tag_AV_eba