	.text
	.syntax unified
	.eabi_attribute	67, "2.09"	@ Tag_conformance
	.cpu	cortex-m0plus
	.eabi_attribute	6, 12	@ Tag_CPU_arch
	.eabi_attribute	7, 77	@ Tag_CPU_arch_profile
	.eabi_attribute	8, 0	@ Tag_ARM_ISA_use
	.eabi_attribute	9, 1	@ Tag_THUMB_ISA_use
	.eabi_attribute	34, 0	@ Tag_CPU_unaligned_access
	.eabi_attribute	17, 1	@ Tag_ABI_PCS_GOT_use
	.eabi_attribute	20, 2	@ Tag_ABI_FP_denormal
	.eabi_attribute	21, 0	@ Tag_ABI_FP_exceptions
	.eabi_attribute	23, 1	@ Tag_ABI_FP_number_model
	.eabi_attribute	24, 1	@ Tag_ABI_align_needed
	.eabi_attribute	25, 1	@ Tag_ABI_align_preserved
	.eabi_attribute	38, 1	@ Tag_ABI_FP_16bit_format
	.eabi_attribute	18, 2	@ Tag_ABI_PCS_wchar_t
	.eabi_attribute	26, 1	@ Tag_ABI_enum_size
	.eabi_attribute	14, 0	@ Tag_ABI_PCS_R9_use
	.file	"stream_buffer.c"
	.file	1 "D:\\TI_M0G3507\\mspm0_sdk_2_05_00_05\\kernel\\freertos\\builds\\LP_MSPM0G3507\\release\\keil" "../../../../../../kernel/freertos/Source/include\\task.h"
	.file	2 "D:\\TI_M0G3507\\mspm0_sdk_2_05_00_05\\kernel\\freertos\\builds\\LP_MSPM0G3507\\release\\keil" "../../../../../../kernel/freertos/Source/portable/GCC/ARM_CM0\\portmacro.h"
	.file	3 "I:\\Keil5\\keil5_mdk\\ARM\\ARMCLANG\\Bin\\..\\include" "stdint.h"
	.file	4 "I:\\Keil5\\keil5_mdk\\ARM\\ARMCLANG\\Bin\\..\\include" "string.h"
	.file	5 "D:\\TI_M0G3507\\mspm0_sdk_2_05_00_05\\kernel\\freertos\\builds\\LP_MSPM0G3507\\release\\keil" "../../../../../../kernel/freertos/Source/stream_buffer.c"
	.file	6 "D:\\TI_M0G3507\\mspm0_sdk_2_05_00_05\\kernel\\freertos\\builds\\LP_MSPM0G3507\\release\\keil" "../../../../../../kernel/freertos/Source/include\\stream_buffer.h"
	.section	.text.xStreamBufferGenericCreate,"ax",%progbits
	.hidden	xStreamBufferGenericCreate      @ -- Begin function xStreamBufferGenericCreate
	.globl	xStreamBufferGenericCreate
	.p2align	1
	.type	xStreamBufferGenericCreate,%function
	.code	16                              @ @xStreamBufferGenericCreate
	.thumb_func
xStreamBufferGenericCreate:
.Lfunc_begin0:
	.loc	5 223 0                         @ ../../../../../../kernel/freertos/Source/stream_buffer.c:223:0
	.fnstart
	.cfi_sections .debug_frame
	.cfi_startproc
@ %bb.0:
	@DEBUG_VALUE: xStreamBufferGenericCreate:xBufferSizeBytes <- $r0
	@DEBUG_VALUE: xStreamBufferGenericCreate:xTriggerLevelBytes <- $r1
	@DEBUG_VALUE: xStreamBufferGenericCreate:xIsMessageBuffer <- $r2
	.save	{r4, r5, r6, r7, lr}
	push	{r4, r5, r6, r7, lr}
	.cfi_def_cfa_offset 20
	.cfi_offset lr, -4
	.cfi_offset r7, -8
	.cfi_offset r6, -12
	.cfi_offset r5, -16
	.cfi_offset r4, -20
	.pad	#4
	sub	sp, #4
	.cfi_def_cfa_offset 24
	mov	r4, r1
.Ltmp0:
	@DEBUG_VALUE: xStreamBufferGenericCreate:xTriggerLevelBytes <- $r4
	mov	r5, r0
.Ltmp1:
	@DEBUG_VALUE: xStreamBufferGenericCreate:xBufferSizeBytes <- $r5
	.loc	5 231 13 prologue_end           @ ../../../../../../kernel/freertos/Source/stream_buffer.c:231:13
	cmp	r2, #1
	bne	.LBB0_4
.Ltmp2:
@ %bb.1:
	@DEBUG_VALUE: xStreamBufferGenericCreate:xBufferSizeBytes <- $r5
	@DEBUG_VALUE: xStreamBufferGenericCreate:xTriggerLevelBytes <- $r4
	@DEBUG_VALUE: xStreamBufferGenericCreate:xIsMessageBuffer <- $r2
	@DEBUG_VALUE: xStreamBufferGenericCreate:ucFlags <- 1
	.loc	5 235 13                        @ ../../../../../../kernel/freertos/Source/stream_buffer.c:235:13
	cmp	r5, #4
	bhi	.LBB0_8
.Ltmp3:
@ %bb.2:
	@DEBUG_VALUE: xStreamBufferGenericCreate:ucFlags <- 1
	@DEBUG_VALUE: xStreamBufferGenericCreate:xBufferSizeBytes <- $r5
	@DEBUG_VALUE: xStreamBufferGenericCreate:xTriggerLevelBytes <- $r4
	@DEBUG_VALUE: xStreamBufferGenericCreate:xIsMessageBuffer <- $r2
	.loc	5 235 13 is_stmt 0              @ ../../../../../../kernel/freertos/Source/stream_buffer.c:235:13
	@APP
	cpsid i
	@NO_APP
.Ltmp4:
.LBB0_3:                                @ =>This Inner Loop Header: Depth=1
	@DEBUG_VALUE: xStreamBufferGenericCreate:ucFlags <- 1
	@DEBUG_VALUE: xStreamBufferGenericCreate:xBufferSizeBytes <- $r5
	@DEBUG_VALUE: xStreamBufferGenericCreate:xTriggerLevelBytes <- $r4
	@DEBUG_VALUE: xStreamBufferGenericCreate:xIsMessageBuffer <- $r2
	.loc	5 235 13                        @ ../../../../../../kernel/freertos/Source/stream_buffer.c:235:13
	b	.LBB0_3
.Ltmp5:
.LBB0_4:
	@DEBUG_VALUE: xStreamBufferGenericCreate:xBufferSizeBytes <- $r5
	@DEBUG_VALUE: xStreamBufferGenericCreate:xTriggerLevelBytes <- $r4
	@DEBUG_VALUE: xStreamBufferGenericCreate:xIsMessageBuffer <- $r2
	@DEBUG_VALUE: xStreamBufferGenericCreate:ucFlags <- 0
	.loc	5 241 13 is_stmt 1              @ ../../../../../../kernel/freertos/Source/stream_buffer.c:241:13
	cmp	r5, #0
	beq	.LBB0_15
.Ltmp6:
@ %bb.5:
	@DEBUG_VALUE: xStreamBufferGenericCreate:ucFlags <- 0
	@DEBUG_VALUE: xStreamBufferGenericCreate:xBufferSizeBytes <- $r5
	@DEBUG_VALUE: xStreamBufferGenericCreate:xTriggerLevelBytes <- $r4
	@DEBUG_VALUE: xStreamBufferGenericCreate:xIsMessageBuffer <- $r2
	.loc	5 0 13 is_stmt 0                @ ../../../../../../kernel/freertos/Source/stream_buffer.c:0:13
	movs	r1, #0
.Ltmp7:
	@DEBUG_VALUE: xStreamBufferGenericCreate:ucFlags <- $r1
	.loc	5 244 9 is_stmt 1               @ ../../../../../../kernel/freertos/Source/stream_buffer.c:244:9
	cmp	r4, r5
	bls	.LBB0_9
.Ltmp8:
.LBB0_6:
	@DEBUG_VALUE: xStreamBufferGenericCreate:ucFlags <- $r1
	@DEBUG_VALUE: xStreamBufferGenericCreate:xBufferSizeBytes <- $r5
	@DEBUG_VALUE: xStreamBufferGenericCreate:xTriggerLevelBytes <- $r4
	@DEBUG_VALUE: xStreamBufferGenericCreate:xIsMessageBuffer <- $r2
	.loc	5 244 9 is_stmt 0               @ ../../../../../../kernel/freertos/Source/stream_buffer.c:244:9
	@APP
	cpsid i
	@NO_APP
.Ltmp9:
.LBB0_7:                                @ =>This Inner Loop Header: Depth=1
	@DEBUG_VALUE: xStreamBufferGenericCreate:ucFlags <- $r1
	@DEBUG_VALUE: xStreamBufferGenericCreate:xBufferSizeBytes <- $r5
	@DEBUG_VALUE: xStreamBufferGenericCreate:xTriggerLevelBytes <- $r4
	@DEBUG_VALUE: xStreamBufferGenericCreate:xIsMessageBuffer <- $r2
	.loc	5 244 9                         @ ../../../../../../kernel/freertos/Source/stream_buffer.c:244:9
	b	.LBB0_7
.Ltmp10:
.LBB0_8:
	@DEBUG_VALUE: xStreamBufferGenericCreate:ucFlags <- 1
	@DEBUG_VALUE: xStreamBufferGenericCreate:xBufferSizeBytes <- $r5
	@DEBUG_VALUE: xStreamBufferGenericCreate:xTriggerLevelBytes <- $r4
	@DEBUG_VALUE: xStreamBufferGenericCreate:xIsMessageBuffer <- $r2
	.loc	5 0 9                           @ ../../../../../../kernel/freertos/Source/stream_buffer.c:0:9
	movs	r1, #1
.Ltmp11:
	@DEBUG_VALUE: xStreamBufferGenericCreate:ucFlags <- $r1
	.loc	5 244 9                         @ ../../../../../../kernel/freertos/Source/stream_buffer.c:244:9
	cmp	r4, r5
	bhi	.LBB0_6
.Ltmp12:
.LBB0_9:
	@DEBUG_VALUE: xStreamBufferGenericCreate:ucFlags <- $r1
	@DEBUG_VALUE: xStreamBufferGenericCreate:xBufferSizeBytes <- $r5
	@DEBUG_VALUE: xStreamBufferGenericCreate:xTriggerLevelBytes <- $r4
	@DEBUG_VALUE: xStreamBufferGenericCreate:xIsMessageBuffer <- $r2
	.loc	5 248 13 is_stmt 1              @ ../../../../../../kernel/freertos/Source/stream_buffer.c:248:13
	cmp	r4, #1
	bhi	.LBB0_11
.Ltmp13:
@ %bb.10:
	@DEBUG_VALUE: xStreamBufferGenericCreate:ucFlags <- $r1
	@DEBUG_VALUE: xStreamBufferGenericCreate:xBufferSizeBytes <- $r5
	@DEBUG_VALUE: xStreamBufferGenericCreate:xTriggerLevelBytes <- $r4
	@DEBUG_VALUE: xStreamBufferGenericCreate:xIsMessageBuffer <- $r2
	.loc	5 0 13 is_stmt 0                @ ../../../../../../kernel/freertos/Source/stream_buffer.c:0:13
	movs	r4, #1
.Ltmp14:
	@DEBUG_VALUE: xStreamBufferGenericCreate:xTriggerLevelBytes <- [DW_OP_LLVM_entry_value 1] $r1
.LBB0_11:
	@DEBUG_VALUE: xStreamBufferGenericCreate:ucFlags <- $r1
	@DEBUG_VALUE: xStreamBufferGenericCreate:xBufferSizeBytes <- $r5
	@DEBUG_VALUE: xStreamBufferGenericCreate:xIsMessageBuffer <- $r2
	@DEBUG_VALUE: xStreamBufferGenericCreate:xTriggerLevelBytes <- $r4
	movs	r0, #37
	mvns	r0, r0
	movs	r7, #0
	.loc	5 261 13 is_stmt 1              @ ../../../../../../kernel/freertos/Source/stream_buffer.c:261:13
	cmp	r5, r0
	bhi	.LBB0_14
.Ltmp15:
@ %bb.12:
	@DEBUG_VALUE: xStreamBufferGenericCreate:ucFlags <- $r1
	@DEBUG_VALUE: xStreamBufferGenericCreate:xBufferSizeBytes <- $r5
	@DEBUG_VALUE: xStreamBufferGenericCreate:xTriggerLevelBytes <- $r4
	@DEBUG_VALUE: xStreamBufferGenericCreate:xIsMessageBuffer <- $r2
	.loc	5 0 13 is_stmt 0                @ ../../../../../../kernel/freertos/Source/stream_buffer.c:0:13
	str	r1, [sp]                        @ 4-byte Spill
.Ltmp16:
	@DEBUG_VALUE: xStreamBufferGenericCreate:ucFlags <- [$sp+0]
	.loc	5 261 55                        @ ../../../../../../kernel/freertos/Source/stream_buffer.c:261:55
	mov	r0, r5
	adds	r0, #37
.Ltmp17:
	.loc	5 264 48 is_stmt 1              @ ../../../../../../kernel/freertos/Source/stream_buffer.c:264:48
	bl	pvPortMalloc
.Ltmp18:
	@DEBUG_VALUE: xStreamBufferGenericCreate:xIsMessageBuffer <- [DW_OP_LLVM_entry_value 1] $r2
	@DEBUG_VALUE: xStreamBufferGenericCreate:pucAllocatedMemory <- $r0
	.loc	5 272 13                        @ ../../../../../../kernel/freertos/Source/stream_buffer.c:272:13
	cmp	r0, #0
.Ltmp19:
	@DEBUG_VALUE: xStreamBufferGenericCreate:xBufferSizeBytes <- [DW_OP_plus_uconst 1, DW_OP_stack_value] undef
	beq	.LBB0_14
.Ltmp20:
@ %bb.13:
	@DEBUG_VALUE: xStreamBufferGenericCreate:pucAllocatedMemory <- $r0
	@DEBUG_VALUE: xStreamBufferGenericCreate:xIsMessageBuffer <- [DW_OP_LLVM_entry_value 1] $r2
	@DEBUG_VALUE: xStreamBufferGenericCreate:ucFlags <- [$sp+0]
	@DEBUG_VALUE: xStreamBufferGenericCreate:xTriggerLevelBytes <- $r4
	.loc	5 0 0 is_stmt 0                 @ ../../../../../../kernel/freertos/Source/stream_buffer.c:0:0
	mov	r6, r0
.Ltmp21:
	@DEBUG_VALUE: xStreamBufferGenericCreate:pucAllocatedMemory <- $r6
	@DEBUG_VALUE: prvInitialiseNewStreamBuffer:pxStreamBuffer <- $r6
	@DEBUG_VALUE: prvInitialiseNewStreamBuffer:xBufferSizeBytes <- undef
	@DEBUG_VALUE: prvInitialiseNewStreamBuffer:xTriggerLevelBytes <- $r4
	@DEBUG_VALUE: prvInitialiseNewStreamBuffer:ucFlags <- [$sp+0]
	@DEBUG_VALUE: xWriteValue <- 85
	.loc	5 275 62 is_stmt 1              @ ../../../../../../kernel/freertos/Source/stream_buffer.c:275:62
	mov	r7, r0
	adds	r7, #36
.Ltmp22:
	.loc	5 261 51                        @ ../../../../../../kernel/freertos/Source/stream_buffer.c:261:51
	adds	r5, r5, #1
.Ltmp23:
	@DEBUG_VALUE: xStreamBufferGenericCreate:xBufferSizeBytes <- $r5
	.loc	5 0 51 is_stmt 0                @ ../../../../../../kernel/freertos/Source/stream_buffer.c:0:51
	movs	r2, #85
.Ltmp24:
	@DEBUG_VALUE: prvInitialiseNewStreamBuffer:pucBuffer <- $r7
	.loc	5 1275 13 is_stmt 1             @ ../../../../../../kernel/freertos/Source/stream_buffer.c:1275:13
	mov	r0, r7
	@DEBUG_VALUE: xWriteValue <- 85
	@DEBUG_VALUE: prvInitialiseNewStreamBuffer:ucFlags <- [$sp+0]
	mov	r1, r5
	bl	__aeabi_memset
.Ltmp25:
	.loc	5 0 13 is_stmt 0                @ ../../../../../../kernel/freertos/Source/stream_buffer.c:0:13
	movs	r1, #36
.Ltmp26:
	.loc	5 1279 14 is_stmt 1             @ ../../../../../../kernel/freertos/Source/stream_buffer.c:1279:14
	mov	r0, r6
	bl	__aeabi_memclr
.Ltmp27:
	.loc	5 1283 29                       @ ../../../../../../kernel/freertos/Source/stream_buffer.c:1283:29
	ldr	r0, [sp]                        @ 4-byte Reload
.Ltmp28:
	@DEBUG_VALUE: xStreamBufferGenericCreate:ucFlags <- $r0
	@DEBUG_VALUE: prvInitialiseNewStreamBuffer:ucFlags <- $r0
	strb	r0, [r6, #28]
	.loc	5 1281 29                       @ ../../../../../../kernel/freertos/Source/stream_buffer.c:1281:29
	str	r5, [r6, #8]
	.loc	5 1282 40                       @ ../../../../../../kernel/freertos/Source/stream_buffer.c:1282:40
	str	r4, [r6, #12]
	.loc	5 1280 31                       @ ../../../../../../kernel/freertos/Source/stream_buffer.c:1280:31
	str	r7, [r6, #24]
	mov	r7, r6
.Ltmp29:
	@DEBUG_VALUE: xStreamBufferGenericCreate:pucAllocatedMemory <- $r7
	@DEBUG_VALUE: prvInitialiseNewStreamBuffer:pxStreamBuffer <- $r7
.LBB0_14:
	@DEBUG_VALUE: xStreamBufferGenericCreate:xTriggerLevelBytes <- $r4
	.loc	5 287 9                         @ ../../../../../../kernel/freertos/Source/stream_buffer.c:287:9
	mov	r0, r7
	.loc	5 287 9 epilogue_begin is_stmt 0 @ ../../../../../../kernel/freertos/Source/stream_buffer.c:287:9
	add	sp, #4
	pop	{r4, r5, r6, r7, pc}
.Ltmp30:
.LBB0_15:
	@DEBUG_VALUE: xStreamBufferGenericCreate:ucFlags <- 0
	@DEBUG_VALUE: xStreamBufferGenericCreate:xBufferSizeBytes <- $r5
	@DEBUG_VALUE: xStreamBufferGenericCreate:xTriggerLevelBytes <- $r4
	@DEBUG_VALUE: xStreamBufferGenericCreate:xIsMessageBuffer <- $r2
	.loc	5 241 13 is_stmt 1              @ ../../../../../../kernel/freertos/Source/stream_buffer.c:241:13
	@APP
	cpsid i
	@NO_APP
.Ltmp31:
.LBB0_16:                               @ =>This Inner Loop Header: Depth=1
	@DEBUG_VALUE: xStreamBufferGenericCreate:ucFlags <- 0
	@DEBUG_VALUE: xStreamBufferGenericCreate:xBufferSizeBytes <- $r5
	@DEBUG_VALUE: xStreamBufferGenericCreate:xTriggerLevelBytes <- $r4
	@DEBUG_VALUE: xStreamBufferGenericCreate:xIsMessageBuffer <- $r2
	.loc	5 241 13 is_stmt 0              @ ../../../../../../kernel/freertos/Source/stream_buffer.c:241:13
	b	.LBB0_16
.Ltmp32:
.Lfunc_end0:
	.size	xStreamBufferGenericCreate, .Lfunc_end0-xStreamBufferGenericCreate
	.cfi_endproc
	.cantunwind
	.fnend
                                        @ -- End function
	.section	.text.xStreamBufferGenericCreateStatic,"ax",%progbits
	.hidden	xStreamBufferGenericCreateStatic @ -- Begin function xStreamBufferGenericCreateStatic
	.globl	xStreamBufferGenericCreateStatic
	.p2align	1
	.type	xStreamBufferGenericCreateStatic,%function
	.code	16                              @ @xStreamBufferGenericCreateStatic
	.thumb_func
xStreamBufferGenericCreateStatic:
.Lfunc_begin1:
	.loc	5 300 0 is_stmt 1               @ ../../../../../../kernel/freertos/Source/stream_buffer.c:300:0
	.fnstart
	.cfi_startproc
@ %bb.0:
	@DEBUG_VALUE: xStreamBufferGenericCreateStatic:xBufferSizeBytes <- $r0
	@DEBUG_VALUE: xStreamBufferGenericCreateStatic:xTriggerLevelBytes <- $r1
	@DEBUG_VALUE: xStreamBufferGenericCreateStatic:xIsMessageBuffer <- $r2
	@DEBUG_VALUE: xStreamBufferGenericCreateStatic:pucStreamBufferStorageArea <- $r3
	@DEBUG_VALUE: xStreamBufferGenericCreateStatic:pucStreamBufferStorageArea <- $r3
	@DEBUG_VALUE: xStreamBufferGenericCreateStatic:xTriggerLevelBytes <- $r1
	@DEBUG_VALUE: xStreamBufferGenericCreateStatic:xBufferSizeBytes <- $r0
	.save	{r4, r5, r6, r7, lr}
	push	{r4, r5, r6, r7, lr}
	.cfi_def_cfa_offset 20
	.cfi_offset lr, -4
	.cfi_offset r7, -8
	.cfi_offset r6, -12
	.cfi_offset r5, -16
	.cfi_offset r4, -20
	.pad	#12
	sub	sp, #12
	.cfi_def_cfa_offset 32
.Ltmp33:
	@DEBUG_VALUE: xStreamBufferGenericCreateStatic:pxStaticStreamBuffer <- [DW_OP_plus_uconst 32] [$sp+0]
	@DEBUG_VALUE: xStreamBufferGenericCreateStatic:pxStreamBuffer <- undef
	.loc	5 305 9 prologue_end            @ ../../../../../../kernel/freertos/Source/stream_buffer.c:305:9
	cmp	r3, #0
	beq	.LBB1_5
.Ltmp34:
@ %bb.1:
	@DEBUG_VALUE: xStreamBufferGenericCreateStatic:pxStaticStreamBuffer <- [DW_OP_plus_uconst 32] [$sp+0]
	@DEBUG_VALUE: xStreamBufferGenericCreateStatic:pucStreamBufferStorageArea <- $r3
	@DEBUG_VALUE: xStreamBufferGenericCreateStatic:xIsMessageBuffer <- $r2
	@DEBUG_VALUE: xStreamBufferGenericCreateStatic:xTriggerLevelBytes <- $r1
	@DEBUG_VALUE: xStreamBufferGenericCreateStatic:xBufferSizeBytes <- $r0
	@DEBUG_VALUE: xStreamBufferGenericCreateStatic:pucStreamBufferStorageArea <- $r3
	@DEBUG_VALUE: xStreamBufferGenericCreateStatic:xTriggerLevelBytes <- $r1
	@DEBUG_VALUE: xStreamBufferGenericCreateStatic:xBufferSizeBytes <- $r0
	.loc	5 0 9 is_stmt 0                 @ ../../../../../../kernel/freertos/Source/stream_buffer.c:0:9
	ldr	r7, [sp, #32]
.Ltmp35:
	@DEBUG_VALUE: xStreamBufferGenericCreateStatic:pxStreamBuffer <- $r7
	.loc	5 306 9 is_stmt 1               @ ../../../../../../kernel/freertos/Source/stream_buffer.c:306:9
	cmp	r7, #0
	beq	.LBB1_7
.Ltmp36:
@ %bb.2:
	@DEBUG_VALUE: xStreamBufferGenericCreateStatic:pxStreamBuffer <- $r7
	@DEBUG_VALUE: xStreamBufferGenericCreateStatic:pxStaticStreamBuffer <- [DW_OP_plus_uconst 32] [$sp+0]
	@DEBUG_VALUE: xStreamBufferGenericCreateStatic:pucStreamBufferStorageArea <- $r3
	@DEBUG_VALUE: xStreamBufferGenericCreateStatic:xIsMessageBuffer <- $r2
	@DEBUG_VALUE: xStreamBufferGenericCreateStatic:xTriggerLevelBytes <- $r1
	@DEBUG_VALUE: xStreamBufferGenericCreateStatic:xBufferSizeBytes <- $r0
	@DEBUG_VALUE: xStreamBufferGenericCreateStatic:pucStreamBufferStorageArea <- $r3
	.loc	5 0 9 is_stmt 0                 @ ../../../../../../kernel/freertos/Source/stream_buffer.c:0:9
	mov	r5, r1
.Ltmp37:
	@DEBUG_VALUE: xStreamBufferGenericCreateStatic:xTriggerLevelBytes <- $r5
	mov	r6, r0
.Ltmp38:
	@DEBUG_VALUE: xStreamBufferGenericCreateStatic:xBufferSizeBytes <- $r6
	.loc	5 307 9 is_stmt 1               @ ../../../../../../kernel/freertos/Source/stream_buffer.c:307:9
	cmp	r1, r0
	bls	.LBB1_9
.Ltmp39:
@ %bb.3:
	@DEBUG_VALUE: xStreamBufferGenericCreateStatic:xBufferSizeBytes <- $r6
	@DEBUG_VALUE: xStreamBufferGenericCreateStatic:xTriggerLevelBytes <- $r5
	@DEBUG_VALUE: xStreamBufferGenericCreateStatic:pxStreamBuffer <- $r7
	@DEBUG_VALUE: xStreamBufferGenericCreateStatic:pxStaticStreamBuffer <- [DW_OP_plus_uconst 32] [$sp+0]
	@DEBUG_VALUE: xStreamBufferGenericCreateStatic:pucStreamBufferStorageArea <- $r3
	@DEBUG_VALUE: xStreamBufferGenericCreateStatic:xIsMessageBuffer <- $r2
	.loc	5 307 9 is_stmt 0               @ ../../../../../../kernel/freertos/Source/stream_buffer.c:307:9
	@APP
	cpsid i
	@NO_APP
.Ltmp40:
.LBB1_4:                                @ =>This Inner Loop Header: Depth=1
	@DEBUG_VALUE: xStreamBufferGenericCreateStatic:xBufferSizeBytes <- $r6
	@DEBUG_VALUE: xStreamBufferGenericCreateStatic:xTriggerLevelBytes <- $r5
	@DEBUG_VALUE: xStreamBufferGenericCreateStatic:pxStreamBuffer <- $r7
	@DEBUG_VALUE: xStreamBufferGenericCreateStatic:pxStaticStreamBuffer <- [DW_OP_plus_uconst 32] [$sp+0]
	@DEBUG_VALUE: xStreamBufferGenericCreateStatic:pucStreamBufferStorageArea <- $r3
	@DEBUG_VALUE: xStreamBufferGenericCreateStatic:xIsMessageBuffer <- $r2
	.loc	5 307 9                         @ ../../../../../../kernel/freertos/Source/stream_buffer.c:307:9
	b	.LBB1_4
.Ltmp41:
.LBB1_5:
	@DEBUG_VALUE: xStreamBufferGenericCreateStatic:pxStaticStreamBuffer <- [DW_OP_plus_uconst 32] [$sp+0]
	@DEBUG_VALUE: xStreamBufferGenericCreateStatic:pucStreamBufferStorageArea <- $r3
	@DEBUG_VALUE: xStreamBufferGenericCreateStatic:xIsMessageBuffer <- $r2
	@DEBUG_VALUE: xStreamBufferGenericCreateStatic:xTriggerLevelBytes <- $r1
	@DEBUG_VALUE: xStreamBufferGenericCreateStatic:xBufferSizeBytes <- $r0
	.loc	5 305 9 is_stmt 1               @ ../../../../../../kernel/freertos/Source/stream_buffer.c:305:9
	@APP
	cpsid i
	@NO_APP
.Ltmp42:
.LBB1_6:                                @ =>This Inner Loop Header: Depth=1
	@DEBUG_VALUE: xStreamBufferGenericCreateStatic:pxStaticStreamBuffer <- [DW_OP_plus_uconst 32] [$sp+0]
	@DEBUG_VALUE: xStreamBufferGenericCreateStatic:pucStreamBufferStorageArea <- $r3
	@DEBUG_VALUE: xStreamBufferGenericCreateStatic:xIsMessageBuffer <- $r2
	@DEBUG_VALUE: xStreamBufferGenericCreateStatic:xTriggerLevelBytes <- $r1
	@DEBUG_VALUE: xStreamBufferGenericCreateStatic:xBufferSizeBytes <- $r0
	.loc	5 305 9 is_stmt 0               @ ../../../../../../kernel/freertos/Source/stream_buffer.c:305:9
	b	.LBB1_6
.Ltmp43:
.LBB1_7:
	@DEBUG_VALUE: xStreamBufferGenericCreateStatic:pxStreamBuffer <- $r7
	@DEBUG_VALUE: xStreamBufferGenericCreateStatic:pxStaticStreamBuffer <- [DW_OP_plus_uconst 32] [$sp+0]
	@DEBUG_VALUE: xStreamBufferGenericCreateStatic:pucStreamBufferStorageArea <- $r3
	@DEBUG_VALUE: xStreamBufferGenericCreateStatic:xIsMessageBuffer <- $r2
	@DEBUG_VALUE: xStreamBufferGenericCreateStatic:xTriggerLevelBytes <- $r1
	@DEBUG_VALUE: xStreamBufferGenericCreateStatic:xBufferSizeBytes <- $r0
	.loc	5 306 9 is_stmt 1               @ ../../../../../../kernel/freertos/Source/stream_buffer.c:306:9
	@APP
	cpsid i
	@NO_APP
.Ltmp44:
.LBB1_8:                                @ =>This Inner Loop Header: Depth=1
	@DEBUG_VALUE: xStreamBufferGenericCreateStatic:pxStreamBuffer <- $r7
	@DEBUG_VALUE: xStreamBufferGenericCreateStatic:pxStaticStreamBuffer <- [DW_OP_plus_uconst 32] [$sp+0]
	@DEBUG_VALUE: xStreamBufferGenericCreateStatic:pucStreamBufferStorageArea <- $r3
	@DEBUG_VALUE: xStreamBufferGenericCreateStatic:xIsMessageBuffer <- $r2
	@DEBUG_VALUE: xStreamBufferGenericCreateStatic:xTriggerLevelBytes <- $r1
	@DEBUG_VALUE: xStreamBufferGenericCreateStatic:xBufferSizeBytes <- $r0
	.loc	5 306 9 is_stmt 0               @ ../../../../../../kernel/freertos/Source/stream_buffer.c:306:9
	b	.LBB1_8
.Ltmp45:
.LBB1_9:
	@DEBUG_VALUE: xStreamBufferGenericCreateStatic:xBufferSizeBytes <- $r6
	@DEBUG_VALUE: xStreamBufferGenericCreateStatic:xTriggerLevelBytes <- $r5
	@DEBUG_VALUE: xStreamBufferGenericCreateStatic:pxStreamBuffer <- $r7
	@DEBUG_VALUE: xStreamBufferGenericCreateStatic:pxStaticStreamBuffer <- [DW_OP_plus_uconst 32] [$sp+0]
	@DEBUG_VALUE: xStreamBufferGenericCreateStatic:pucStreamBufferStorageArea <- $r3
	@DEBUG_VALUE: xStreamBufferGenericCreateStatic:xIsMessageBuffer <- $r2
	@DEBUG_VALUE: xStreamBufferGenericCreateStatic:pucStreamBufferStorageArea <- $r3
	@DEBUG_VALUE: xStreamBufferGenericCreateStatic:xTriggerLevelBytes <- undef
	@DEBUG_VALUE: xStreamBufferGenericCreateStatic:ucFlags <- undef
	.loc	5 331 9 is_stmt 1               @ ../../../../../../kernel/freertos/Source/stream_buffer.c:331:9
	cmp	r6, #4
	bhi	.LBB1_12
.Ltmp46:
@ %bb.10:
	@DEBUG_VALUE: xStreamBufferGenericCreateStatic:xBufferSizeBytes <- $r6
	@DEBUG_VALUE: xStreamBufferGenericCreateStatic:pxStreamBuffer <- $r7
	@DEBUG_VALUE: xStreamBufferGenericCreateStatic:pxStaticStreamBuffer <- [DW_OP_plus_uconst 32] [$sp+0]
	@DEBUG_VALUE: xStreamBufferGenericCreateStatic:pucStreamBufferStorageArea <- $r3
	@DEBUG_VALUE: xStreamBufferGenericCreateStatic:xIsMessageBuffer <- $r2
	.loc	5 331 9 is_stmt 0               @ ../../../../../../kernel/freertos/Source/stream_buffer.c:331:9
	@APP
	cpsid i
	@NO_APP
.Ltmp47:
.LBB1_11:                               @ =>This Inner Loop Header: Depth=1
	@DEBUG_VALUE: xStreamBufferGenericCreateStatic:xBufferSizeBytes <- $r6
	@DEBUG_VALUE: xStreamBufferGenericCreateStatic:pxStreamBuffer <- $r7
	@DEBUG_VALUE: xStreamBufferGenericCreateStatic:pxStaticStreamBuffer <- [DW_OP_plus_uconst 32] [$sp+0]
	@DEBUG_VALUE: xStreamBufferGenericCreateStatic:pucStreamBufferStorageArea <- $r3
	@DEBUG_VALUE: xStreamBufferGenericCreateStatic:xIsMessageBuffer <- $r2
	.loc	5 331 9                         @ ../../../../../../kernel/freertos/Source/stream_buffer.c:331:9
	b	.LBB1_11
.Ltmp48:
.LBB1_12:
	@DEBUG_VALUE: xStreamBufferGenericCreateStatic:xBufferSizeBytes <- $r6
	@DEBUG_VALUE: xStreamBufferGenericCreateStatic:pxStreamBuffer <- $r7
	@DEBUG_VALUE: xStreamBufferGenericCreateStatic:pxStaticStreamBuffer <- [DW_OP_plus_uconst 32] [$sp+0]
	@DEBUG_VALUE: xStreamBufferGenericCreateStatic:pucStreamBufferStorageArea <- $r3
	@DEBUG_VALUE: xStreamBufferGenericCreateStatic:xIsMessageBuffer <- $r2
	@DEBUG_VALUE: xStreamBufferGenericCreateStatic:pucStreamBufferStorageArea <- $r3
	.loc	5 0 9                           @ ../../../../../../kernel/freertos/Source/stream_buffer.c:0:9
	movs	r0, #36
.Ltmp49:
	.loc	5 338 33 is_stmt 1              @ ../../../../../../kernel/freertos/Source/stream_buffer.c:338:33
	str	r0, [sp, #8]
.Ltmp50:
	.loc	5 339 17                        @ ../../../../../../kernel/freertos/Source/stream_buffer.c:339:17
	ldr	r0, [sp, #8]
.Ltmp51:
	.loc	5 339 17 is_stmt 0              @ ../../../../../../kernel/freertos/Source/stream_buffer.c:339:17
	cmp	r0, #36
	bne	.LBB1_15
.Ltmp52:
@ %bb.13:
	@DEBUG_VALUE: xStreamBufferGenericCreateStatic:xBufferSizeBytes <- $r6
	@DEBUG_VALUE: xStreamBufferGenericCreateStatic:pxStreamBuffer <- $r7
	@DEBUG_VALUE: xStreamBufferGenericCreateStatic:pxStaticStreamBuffer <- [DW_OP_plus_uconst 32] [$sp+0]
	@DEBUG_VALUE: xStreamBufferGenericCreateStatic:pucStreamBufferStorageArea <- $r3
	@DEBUG_VALUE: xStreamBufferGenericCreateStatic:xIsMessageBuffer <- $r2
	.loc	5 0 17                          @ ../../../../../../kernel/freertos/Source/stream_buffer.c:0:17
	mov	r4, r3
.Ltmp53:
	@DEBUG_VALUE: xStreamBufferGenericCreateStatic:pucStreamBufferStorageArea <- $r4
	@DEBUG_VALUE: prvInitialiseNewStreamBuffer:pxStreamBuffer <- $r7
	@DEBUG_VALUE: prvInitialiseNewStreamBuffer:pucBuffer <- $r4
	@DEBUG_VALUE: prvInitialiseNewStreamBuffer:xBufferSizeBytes <- $r6
	@DEBUG_VALUE: xWriteValue <- 85
	str	r2, [sp, #4]                    @ 4-byte Spill
.Ltmp54:
	@DEBUG_VALUE: xStreamBufferGenericCreateStatic:xIsMessageBuffer <- [DW_OP_plus_uconst 4] [$sp+0]
	movs	r2, #85
.Ltmp55:
	.loc	5 1275 13 is_stmt 1             @ ../../../../../../kernel/freertos/Source/stream_buffer.c:1275:13
	mov	r0, r3
	mov	r1, r6
	bl	__aeabi_memset
.Ltmp56:
	.loc	5 0 13 is_stmt 0                @ ../../../../../../kernel/freertos/Source/stream_buffer.c:0:13
	movs	r1, #36
.Ltmp57:
	.loc	5 1279 14 is_stmt 1             @ ../../../../../../kernel/freertos/Source/stream_buffer.c:1279:14
	mov	r0, r7
	bl	__aeabi_memclr
.Ltmp58:
	.loc	5 0 14 is_stmt 0                @ ../../../../../../kernel/freertos/Source/stream_buffer.c:0:14
	ldr	r0, [sp, #4]                    @ 4-byte Reload
.Ltmp59:
	@DEBUG_VALUE: xStreamBufferGenericCreateStatic:xIsMessageBuffer <- $r0
	cmp	r0, #0
	beq	.LBB1_17
.Ltmp60:
@ %bb.14:
	@DEBUG_VALUE: xStreamBufferGenericCreateStatic:xIsMessageBuffer <- $r0
	@DEBUG_VALUE: xWriteValue <- 85
	@DEBUG_VALUE: prvInitialiseNewStreamBuffer:xBufferSizeBytes <- $r6
	@DEBUG_VALUE: prvInitialiseNewStreamBuffer:pucBuffer <- $r4
	@DEBUG_VALUE: prvInitialiseNewStreamBuffer:pxStreamBuffer <- $r7
	@DEBUG_VALUE: xStreamBufferGenericCreateStatic:pucStreamBufferStorageArea <- $r4
	@DEBUG_VALUE: xStreamBufferGenericCreateStatic:xBufferSizeBytes <- $r6
	@DEBUG_VALUE: xStreamBufferGenericCreateStatic:pxStreamBuffer <- $r7
	@DEBUG_VALUE: xStreamBufferGenericCreateStatic:pxStaticStreamBuffer <- [DW_OP_plus_uconst 32] [$sp+0]
	movs	r0, #3
.Ltmp61:
	@DEBUG_VALUE: xStreamBufferGenericCreateStatic:xIsMessageBuffer <- [DW_OP_LLVM_entry_value 1] $r2
	b	.LBB1_18
.Ltmp62:
.LBB1_15:
	@DEBUG_VALUE: xStreamBufferGenericCreateStatic:xBufferSizeBytes <- $r6
	@DEBUG_VALUE: xStreamBufferGenericCreateStatic:pxStreamBuffer <- $r7
	@DEBUG_VALUE: xStreamBufferGenericCreateStatic:pxStaticStreamBuffer <- [DW_OP_plus_uconst 32] [$sp+0]
	@DEBUG_VALUE: xStreamBufferGenericCreateStatic:pucStreamBufferStorageArea <- $r3
	@DEBUG_VALUE: xStreamBufferGenericCreateStatic:xIsMessageBuffer <- $r2
	.loc	5 339 17 is_stmt 1              @ ../../../../../../kernel/freertos/Source/stream_buffer.c:339:17
	@APP
	cpsid i
	@NO_APP
.Ltmp63:
.LBB1_16:                               @ =>This Inner Loop Header: Depth=1
	@DEBUG_VALUE: xStreamBufferGenericCreateStatic:xBufferSizeBytes <- $r6
	@DEBUG_VALUE: xStreamBufferGenericCreateStatic:pxStreamBuffer <- $r7
	@DEBUG_VALUE: xStreamBufferGenericCreateStatic:pxStaticStreamBuffer <- [DW_OP_plus_uconst 32] [$sp+0]
	@DEBUG_VALUE: xStreamBufferGenericCreateStatic:pucStreamBufferStorageArea <- $r3
	@DEBUG_VALUE: xStreamBufferGenericCreateStatic:xIsMessageBuffer <- $r2
	.loc	5 339 17 is_stmt 0              @ ../../../../../../kernel/freertos/Source/stream_buffer.c:339:17
	b	.LBB1_16
.Ltmp64:
.LBB1_17:
	@DEBUG_VALUE: xStreamBufferGenericCreateStatic:xIsMessageBuffer <- $r0
	@DEBUG_VALUE: xWriteValue <- 85
	@DEBUG_VALUE: prvInitialiseNewStreamBuffer:xBufferSizeBytes <- $r6
	@DEBUG_VALUE: prvInitialiseNewStreamBuffer:pucBuffer <- $r4
	@DEBUG_VALUE: prvInitialiseNewStreamBuffer:pxStreamBuffer <- $r7
	@DEBUG_VALUE: xStreamBufferGenericCreateStatic:pucStreamBufferStorageArea <- $r4
	@DEBUG_VALUE: xStreamBufferGenericCreateStatic:xBufferSizeBytes <- $r6
	@DEBUG_VALUE: xStreamBufferGenericCreateStatic:pxStreamBuffer <- $r7
	@DEBUG_VALUE: xStreamBufferGenericCreateStatic:pxStaticStreamBuffer <- [DW_OP_plus_uconst 32] [$sp+0]
	.loc	5 0 17                          @ ../../../../../../kernel/freertos/Source/stream_buffer.c:0:17
	movs	r0, #2
.Ltmp65:
	@DEBUG_VALUE: xStreamBufferGenericCreateStatic:xIsMessageBuffer <- [DW_OP_LLVM_entry_value 1] $r2
.LBB1_18:
	@DEBUG_VALUE: xStreamBufferGenericCreateStatic:xIsMessageBuffer <- [DW_OP_LLVM_entry_value 1] $r2
	@DEBUG_VALUE: xStreamBufferGenericCreateStatic:pucStreamBufferStorageArea <- $r4
	@DEBUG_VALUE: xStreamBufferGenericCreateStatic:xBufferSizeBytes <- $r6
	@DEBUG_VALUE: xStreamBufferGenericCreateStatic:pxStreamBuffer <- $r7
	@DEBUG_VALUE: xStreamBufferGenericCreateStatic:pxStaticStreamBuffer <- [DW_OP_plus_uconst 32] [$sp+0]
	@DEBUG_VALUE: xStreamBufferGenericCreateStatic:ucFlags <- $r0
	@DEBUG_VALUE: prvInitialiseNewStreamBuffer:ucFlags <- $r0
	.loc	5 353 37 is_stmt 1              @ ../../../../../../kernel/freertos/Source/stream_buffer.c:353:37
	strb	r0, [r7, #28]
.Ltmp66:
	.loc	5 311 13                        @ ../../../../../../kernel/freertos/Source/stream_buffer.c:311:13
	cmp	r5, #1
	bhi	.LBB1_20
.Ltmp67:
@ %bb.19:
	@DEBUG_VALUE: prvInitialiseNewStreamBuffer:ucFlags <- $r0
	@DEBUG_VALUE: xStreamBufferGenericCreateStatic:ucFlags <- $r0
	@DEBUG_VALUE: xStreamBufferGenericCreateStatic:xIsMessageBuffer <- [DW_OP_LLVM_entry_value 1] $r2
	@DEBUG_VALUE: xStreamBufferGenericCreateStatic:pucStreamBufferStorageArea <- $r4
	@DEBUG_VALUE: xStreamBufferGenericCreateStatic:xBufferSizeBytes <- $r6
	@DEBUG_VALUE: xStreamBufferGenericCreateStatic:pxStreamBuffer <- $r7
	@DEBUG_VALUE: xStreamBufferGenericCreateStatic:pxStaticStreamBuffer <- [DW_OP_plus_uconst 32] [$sp+0]
	.loc	5 0 13 is_stmt 0                @ ../../../../../../kernel/freertos/Source/stream_buffer.c:0:13
	movs	r5, #1
.Ltmp68:
.LBB1_20:
	@DEBUG_VALUE: prvInitialiseNewStreamBuffer:ucFlags <- $r0
	@DEBUG_VALUE: xStreamBufferGenericCreateStatic:ucFlags <- $r0
	@DEBUG_VALUE: xStreamBufferGenericCreateStatic:xIsMessageBuffer <- [DW_OP_LLVM_entry_value 1] $r2
	@DEBUG_VALUE: xStreamBufferGenericCreateStatic:pucStreamBufferStorageArea <- $r4
	@DEBUG_VALUE: xStreamBufferGenericCreateStatic:xBufferSizeBytes <- $r6
	@DEBUG_VALUE: xStreamBufferGenericCreateStatic:pxStreamBuffer <- $r7
	@DEBUG_VALUE: xStreamBufferGenericCreateStatic:pxStaticStreamBuffer <- [DW_OP_plus_uconst 32] [$sp+0]
	@DEBUG_VALUE: xStreamBufferGenericCreateStatic:xTriggerLevelBytes <- $r5
	@DEBUG_VALUE: prvInitialiseNewStreamBuffer:xTriggerLevelBytes <- $r5
	.loc	5 1281 29 is_stmt 1             @ ../../../../../../kernel/freertos/Source/stream_buffer.c:1281:29
	str	r6, [r7, #8]
	.loc	5 1282 40                       @ ../../../../../../kernel/freertos/Source/stream_buffer.c:1282:40
	str	r5, [r7, #12]
	.loc	5 1280 31                       @ ../../../../../../kernel/freertos/Source/stream_buffer.c:1280:31
	str	r4, [r7, #24]
.Ltmp69:
	@DEBUG_VALUE: xStreamBufferGenericCreateStatic:xReturn <- $r7
	.loc	5 365 9                         @ ../../../../../../kernel/freertos/Source/stream_buffer.c:365:9
	mov	r0, r7
.Ltmp70:
	.loc	5 365 9 epilogue_begin is_stmt 0 @ ../../../../../../kernel/freertos/Source/stream_buffer.c:365:9
	add	sp, #12
	pop	{r4, r5, r6, r7, pc}
.Ltmp71:
.Lfunc_end1:
	.size	xStreamBufferGenericCreateStatic, .Lfunc_end1-xStreamBufferGenericCreateStatic
	.cfi_endproc
	.cantunwind
	.fnend
                                        @ -- End function
	.section	.text.vStreamBufferDelete,"ax",%progbits
	.hidden	vStreamBufferDelete             @ -- Begin function vStreamBufferDelete
	.globl	vStreamBufferDelete
	.p2align	1
	.type	vStreamBufferDelete,%function
	.code	16                              @ @vStreamBufferDelete
	.thumb_func
vStreamBufferDelete:
.Lfunc_begin2:
	.loc	5 372 0 is_stmt 1               @ ../../../../../../kernel/freertos/Source/stream_buffer.c:372:0
	.fnstart
	.cfi_startproc
@ %bb.0:
	@DEBUG_VALUE: vStreamBufferDelete:xStreamBuffer <- $r0
	.save	{r7, lr}
	push	{r7, lr}
	.cfi_def_cfa_offset 8
	.cfi_offset lr, -4
	.cfi_offset r7, -8
.Ltmp72:
	@DEBUG_VALUE: vStreamBufferDelete:pxStreamBuffer <- $r0
	.loc	5 375 5 prologue_end            @ ../../../../../../kernel/freertos/Source/stream_buffer.c:375:5
	cmp	r0, #0
	beq	.LBB2_3
.Ltmp73:
@ %bb.1:
	@DEBUG_VALUE: vStreamBufferDelete:pxStreamBuffer <- $r0
	@DEBUG_VALUE: vStreamBufferDelete:xStreamBuffer <- $r0
	.loc	5 379 27                        @ ../../../../../../kernel/freertos/Source/stream_buffer.c:379:27
	ldrb	r1, [r0, #28]
.Ltmp74:
	.loc	5 379 9 is_stmt 0               @ ../../../../../../kernel/freertos/Source/stream_buffer.c:379:9
	lsls	r1, r1, #30
	bmi	.LBB2_5
.Ltmp75:
@ %bb.2:
	@DEBUG_VALUE: vStreamBufferDelete:pxStreamBuffer <- $r0
	@DEBUG_VALUE: vStreamBufferDelete:xStreamBuffer <- $r0
	.loc	5 385 17 is_stmt 1              @ ../../../../../../kernel/freertos/Source/stream_buffer.c:385:17
	bl	vPortFree
.Ltmp76:
	@DEBUG_VALUE: vStreamBufferDelete:xStreamBuffer <- [DW_OP_LLVM_entry_value 1] $r0
	.loc	5 401 1 epilogue_begin          @ ../../../../../../kernel/freertos/Source/stream_buffer.c:401:1
	pop	{r7, pc}
.Ltmp77:
.LBB2_3:
	@DEBUG_VALUE: vStreamBufferDelete:pxStreamBuffer <- $r0
	@DEBUG_VALUE: vStreamBufferDelete:xStreamBuffer <- $r0
	.loc	5 375 5                         @ ../../../../../../kernel/freertos/Source/stream_buffer.c:375:5
	@APP
	cpsid i
	@NO_APP
.Ltmp78:
.LBB2_4:                                @ =>This Inner Loop Header: Depth=1
	@DEBUG_VALUE: vStreamBufferDelete:pxStreamBuffer <- $r0
	@DEBUG_VALUE: vStreamBufferDelete:xStreamBuffer <- $r0
	.loc	5 375 5 is_stmt 0               @ ../../../../../../kernel/freertos/Source/stream_buffer.c:375:5
	b	.LBB2_4
.Ltmp79:
.LBB2_5:
	@DEBUG_VALUE: vStreamBufferDelete:pxStreamBuffer <- $r0
	@DEBUG_VALUE: vStreamBufferDelete:xStreamBuffer <- $r0
	.loc	5 0 5                           @ ../../../../../../kernel/freertos/Source/stream_buffer.c:0:5
	movs	r1, #36
.Ltmp80:
	.loc	5 399 18 is_stmt 1              @ ../../../../../../kernel/freertos/Source/stream_buffer.c:399:18
	bl	__aeabi_memclr4
.Ltmp81:
	@DEBUG_VALUE: vStreamBufferDelete:xStreamBuffer <- [DW_OP_LLVM_entry_value 1] $r0
	.loc	5 401 1 epilogue_begin          @ ../../../../../../kernel/freertos/Source/stream_buffer.c:401:1
	pop	{r7, pc}
.Ltmp82:
.Lfunc_end2:
	.size	vStreamBufferDelete, .Lfunc_end2-vStreamBufferDelete
	.cfi_endproc
	.cantunwind
	.fnend
                                        @ -- End function
	.section	.text.xStreamBufferReset,"ax",%progbits
	.hidden	xStreamBufferReset              @ -- Begin function xStreamBufferReset
	.globl	xStreamBufferReset
	.p2align	1
	.type	xStreamBufferReset,%function
	.code	16                              @ @xStreamBufferReset
	.thumb_func
xStreamBufferReset:
.Lfunc_begin3:
	.loc	5 405 0                         @ ../../../../../../kernel/freertos/Source/stream_buffer.c:405:0
	.fnstart
	.cfi_startproc
@ %bb.0:
	@DEBUG_VALUE: xStreamBufferReset:xStreamBuffer <- $r0
	@DEBUG_VALUE: xStreamBufferReset:xStreamBuffer <- $r0
	.save	{r4, r5, r6, r7, lr}
	push	{r4, r5, r6, r7, lr}
	.cfi_def_cfa_offset 20
	.cfi_offset lr, -4
	.cfi_offset r7, -8
	.cfi_offset r6, -12
	.cfi_offset r5, -16
	.cfi_offset r4, -20
	.pad	#12
	sub	sp, #12
	.cfi_def_cfa_offset 32
.Ltmp83:
	@DEBUG_VALUE: xStreamBufferReset:pxStreamBuffer <- $r0
	@DEBUG_VALUE: xStreamBufferReset:xReturn <- 0
	@DEBUG_VALUE: xStreamBufferReset:pxStreamBuffer <- $r0
	.loc	5 413 5 prologue_end            @ ../../../../../../kernel/freertos/Source/stream_buffer.c:413:5
	cmp	r0, #0
	beq	.LBB3_5
.Ltmp84:
@ %bb.1:
	@DEBUG_VALUE: xStreamBufferReset:xReturn <- 0
	@DEBUG_VALUE: xStreamBufferReset:pxStreamBuffer <- $r0
	@DEBUG_VALUE: xStreamBufferReset:xStreamBuffer <- $r0
	.loc	5 0 5 is_stmt 0                 @ ../../../../../../kernel/freertos/Source/stream_buffer.c:0:5
	mov	r4, r0
.Ltmp85:
	@DEBUG_VALUE: xStreamBufferReset:xStreamBuffer <- $r4
	@DEBUG_VALUE: xStreamBufferReset:pxStreamBuffer <- $r4
	.loc	5 419 52 is_stmt 1              @ ../../../../../../kernel/freertos/Source/stream_buffer.c:419:52
	ldr	r7, [r0, #32]
.Ltmp86:
	@DEBUG_VALUE: xStreamBufferReset:uxStreamBufferNumber <- $r7
	.loc	5 424 5                         @ ../../../../../../kernel/freertos/Source/stream_buffer.c:424:5
	bl	vPortEnterCritical
.Ltmp87:
	.loc	5 426 29                        @ ../../../../../../kernel/freertos/Source/stream_buffer.c:426:29
	ldr	r0, [r4, #16]
	movs	r5, #0
.Ltmp88:
	.loc	5 426 13 is_stmt 0              @ ../../../../../../kernel/freertos/Source/stream_buffer.c:426:13
	cmp	r0, #0
	bne	.LBB3_4
.Ltmp89:
@ %bb.2:
	@DEBUG_VALUE: xStreamBufferReset:uxStreamBufferNumber <- $r7
	@DEBUG_VALUE: xStreamBufferReset:pxStreamBuffer <- $r4
	@DEBUG_VALUE: xStreamBufferReset:xStreamBuffer <- $r4
	@DEBUG_VALUE: xStreamBufferReset:xReturn <- 0
	.loc	5 428 33 is_stmt 1              @ ../../../../../../kernel/freertos/Source/stream_buffer.c:428:33
	ldr	r0, [r4, #20]
.Ltmp90:
	.loc	5 428 17 is_stmt 0              @ ../../../../../../kernel/freertos/Source/stream_buffer.c:428:17
	cmp	r0, #0
	bne	.LBB3_4
.Ltmp91:
@ %bb.3:
	@DEBUG_VALUE: xStreamBufferReset:uxStreamBufferNumber <- $r7
	@DEBUG_VALUE: xStreamBufferReset:pxStreamBuffer <- $r4
	@DEBUG_VALUE: xStreamBufferReset:xStreamBuffer <- $r4
	@DEBUG_VALUE: xStreamBufferReset:xReturn <- 0
	.loc	5 432 63 is_stmt 1              @ ../../../../../../kernel/freertos/Source/stream_buffer.c:432:63
	ldr	r5, [r4, #8]
	.loc	5 433 63                        @ ../../../../../../kernel/freertos/Source/stream_buffer.c:433:63
	ldr	r0, [r4, #12]
	.loc	5 434 63                        @ ../../../../../../kernel/freertos/Source/stream_buffer.c:434:63
	str	r0, [sp, #8]                    @ 4-byte Spill
	ldrb	r0, [r4, #28]
	.loc	5 431 63                        @ ../../../../../../kernel/freertos/Source/stream_buffer.c:431:63
	str	r0, [sp, #4]                    @ 4-byte Spill
	ldr	r6, [r4, #24]
.Ltmp92:
	@DEBUG_VALUE: xWriteValue <- 85
	@DEBUG_VALUE: prvInitialiseNewStreamBuffer:xTriggerLevelBytes <- [DW_OP_plus_uconst 8] [$sp+0]
	@DEBUG_VALUE: prvInitialiseNewStreamBuffer:xBufferSizeBytes <- $r5
	@DEBUG_VALUE: prvInitialiseNewStreamBuffer:pucBuffer <- $r6
	@DEBUG_VALUE: prvInitialiseNewStreamBuffer:pxStreamBuffer <- $r4
	@DEBUG_VALUE: prvInitialiseNewStreamBuffer:ucFlags <- [DW_OP_plus_uconst 4] [$sp+0]
	.loc	5 0 63 is_stmt 0                @ ../../../../../../kernel/freertos/Source/stream_buffer.c:0:63
	movs	r2, #85
.Ltmp93:
	.loc	5 1275 13 is_stmt 1             @ ../../../../../../kernel/freertos/Source/stream_buffer.c:1275:13
	mov	r0, r6
	mov	r1, r5
	bl	__aeabi_memset
.Ltmp94:
	.loc	5 0 13 is_stmt 0                @ ../../../../../../kernel/freertos/Source/stream_buffer.c:0:13
	movs	r1, #32
.Ltmp95:
	.loc	5 1279 14 is_stmt 1             @ ../../../../../../kernel/freertos/Source/stream_buffer.c:1279:14
	mov	r0, r4
	bl	__aeabi_memclr
.Ltmp96:
	@DEBUG_VALUE: xStreamBufferReset:xReturn <- 1
	.loc	5 439 62                        @ ../../../../../../kernel/freertos/Source/stream_buffer.c:439:62
	str	r7, [r4, #32]
.Ltmp97:
	.loc	5 1283 29                       @ ../../../../../../kernel/freertos/Source/stream_buffer.c:1283:29
	ldr	r0, [sp, #4]                    @ 4-byte Reload
	strb	r0, [r4, #28]
	@DEBUG_VALUE: prvInitialiseNewStreamBuffer:xTriggerLevelBytes <- [DW_OP_plus_uconst 8] [$sp+0]
.Ltmp98:
	@DEBUG_VALUE: prvInitialiseNewStreamBuffer:ucFlags <- $r0
	.loc	5 1281 29                       @ ../../../../../../kernel/freertos/Source/stream_buffer.c:1281:29
	str	r5, [r4, #8]
	.loc	5 1282 40                       @ ../../../../../../kernel/freertos/Source/stream_buffer.c:1282:40
	ldr	r0, [sp, #8]                    @ 4-byte Reload
.Ltmp99:
	@DEBUG_VALUE: prvInitialiseNewStreamBuffer:xTriggerLevelBytes <- $r0
	str	r0, [r4, #12]
	.loc	5 1280 31                       @ ../../../../../../kernel/freertos/Source/stream_buffer.c:1280:31
	str	r6, [r4, #24]
	movs	r5, #1
.Ltmp100:
.LBB3_4:
	@DEBUG_VALUE: xStreamBufferReset:uxStreamBufferNumber <- $r7
	@DEBUG_VALUE: xStreamBufferReset:pxStreamBuffer <- $r4
	@DEBUG_VALUE: xStreamBufferReset:xStreamBuffer <- $r4
	@DEBUG_VALUE: xStreamBufferReset:xReturn <- $r5
	.loc	5 447 5                         @ ../../../../../../kernel/freertos/Source/stream_buffer.c:447:5
	bl	vPortExitCritical
.Ltmp101:
	.loc	5 449 5                         @ ../../../../../../kernel/freertos/Source/stream_buffer.c:449:5
	mov	r0, r5
	.loc	5 449 5 epilogue_begin is_stmt 0 @ ../../../../../../kernel/freertos/Source/stream_buffer.c:449:5
	add	sp, #12
	pop	{r4, r5, r6, r7, pc}
.Ltmp102:
.LBB3_5:
	@DEBUG_VALUE: xStreamBufferReset:xReturn <- 0
	@DEBUG_VALUE: xStreamBufferReset:pxStreamBuffer <- $r0
	@DEBUG_VALUE: xStreamBufferReset:xStreamBuffer <- $r0
	.loc	5 413 5 is_stmt 1               @ ../../../../../../kernel/freertos/Source/stream_buffer.c:413:5
	@APP
	cpsid i
	@NO_APP
.Ltmp103:
.LBB3_6:                                @ =>This Inner Loop Header: Depth=1
	@DEBUG_VALUE: xStreamBufferReset:xReturn <- 0
	@DEBUG_VALUE: xStreamBufferReset:pxStreamBuffer <- $r0
	@DEBUG_VALUE: xStreamBufferReset:xStreamBuffer <- $r0
	.loc	5 413 5 is_stmt 0               @ ../../../../../../kernel/freertos/Source/stream_buffer.c:413:5
	b	.LBB3_6
.Ltmp104:
.Lfunc_end3:
	.size	xStreamBufferReset, .Lfunc_end3-xStreamBufferReset
	.cfi_endproc
	.cantunwind
	.fnend
                                        @ -- End function
	.section	.text.xStreamBufferSetTriggerLevel,"ax",%progbits
	.hidden	xStreamBufferSetTriggerLevel    @ -- Begin function xStreamBufferSetTriggerLevel
	.globl	xStreamBufferSetTriggerLevel
	.p2align	1
	.type	xStreamBufferSetTriggerLevel,%function
	.code	16                              @ @xStreamBufferSetTriggerLevel
	.thumb_func
xStreamBufferSetTriggerLevel:
.Lfunc_begin4:
	.fnstart
	.cfi_startproc
@ %bb.0:
	@DEBUG_VALUE: xStreamBufferSetTriggerLevel:xStreamBuffer <- $r0
	@DEBUG_VALUE: xStreamBufferSetTriggerLevel:xTriggerLevel <- $r1
	@DEBUG_VALUE: xStreamBufferSetTriggerLevel:pxStreamBuffer <- $r0
	.loc	5 459 5 prologue_end is_stmt 1  @ ../../../../../../kernel/freertos/Source/stream_buffer.c:459:5
	cmp	r0, #0
	beq	.LBB4_5
.Ltmp105:
@ %bb.1:
	@DEBUG_VALUE: xStreamBufferSetTriggerLevel:pxStreamBuffer <- $r0
	@DEBUG_VALUE: xStreamBufferSetTriggerLevel:xTriggerLevel <- $r1
	@DEBUG_VALUE: xStreamBufferSetTriggerLevel:xStreamBuffer <- $r0
	.loc	5 462 9                         @ ../../../../../../kernel/freertos/Source/stream_buffer.c:462:9
	cmp	r1, #1
	bhi	.LBB4_3
.Ltmp106:
@ %bb.2:
	@DEBUG_VALUE: xStreamBufferSetTriggerLevel:pxStreamBuffer <- $r0
	@DEBUG_VALUE: xStreamBufferSetTriggerLevel:xTriggerLevel <- $r1
	@DEBUG_VALUE: xStreamBufferSetTriggerLevel:xStreamBuffer <- $r0
	.loc	5 0 9 is_stmt 0                 @ ../../../../../../kernel/freertos/Source/stream_buffer.c:0:9
	movs	r1, #1
.Ltmp107:
	@DEBUG_VALUE: xStreamBufferSetTriggerLevel:xTriggerLevel <- [DW_OP_LLVM_entry_value 1] $r1
.LBB4_3:
	@DEBUG_VALUE: xStreamBufferSetTriggerLevel:pxStreamBuffer <- $r0
	@DEBUG_VALUE: xStreamBufferSetTriggerLevel:xStreamBuffer <- $r0
	@DEBUG_VALUE: xStreamBufferSetTriggerLevel:xTriggerLevel <- $r1
	.loc	5 469 42 is_stmt 1              @ ../../../../../../kernel/freertos/Source/stream_buffer.c:469:42
	ldr	r2, [r0, #8]
.Ltmp108:
	.loc	5 469 9 is_stmt 0               @ ../../../../../../kernel/freertos/Source/stream_buffer.c:469:9
	cmp	r1, r2
	bls	.LBB4_7
.Ltmp109:
@ %bb.4:
	@DEBUG_VALUE: xStreamBufferSetTriggerLevel:pxStreamBuffer <- $r0
	@DEBUG_VALUE: xStreamBufferSetTriggerLevel:xTriggerLevel <- $r1
	@DEBUG_VALUE: xStreamBufferSetTriggerLevel:xStreamBuffer <- $r0
	.loc	5 0 9                           @ ../../../../../../kernel/freertos/Source/stream_buffer.c:0:9
	movs	r0, #0
.Ltmp110:
	@DEBUG_VALUE: xStreamBufferSetTriggerLevel:xStreamBuffer <- [DW_OP_LLVM_entry_value 1] $r0
	@DEBUG_VALUE: xStreamBufferSetTriggerLevel:xReturn <- $r0
	.loc	5 479 5 is_stmt 1               @ ../../../../../../kernel/freertos/Source/stream_buffer.c:479:5
	bx	lr
.Ltmp111:
.LBB4_5:
	@DEBUG_VALUE: xStreamBufferSetTriggerLevel:pxStreamBuffer <- $r0
	@DEBUG_VALUE: xStreamBufferSetTriggerLevel:xTriggerLevel <- $r1
	@DEBUG_VALUE: xStreamBufferSetTriggerLevel:xStreamBuffer <- $r0
	.loc	5 459 5                         @ ../../../../../../kernel/freertos/Source/stream_buffer.c:459:5
	@APP
	cpsid i
	@NO_APP
.Ltmp112:
.LBB4_6:                                @ =>This Inner Loop Header: Depth=1
	@DEBUG_VALUE: xStreamBufferSetTriggerLevel:pxStreamBuffer <- $r0
	@DEBUG_VALUE: xStreamBufferSetTriggerLevel:xTriggerLevel <- $r1
	@DEBUG_VALUE: xStreamBufferSetTriggerLevel:xStreamBuffer <- $r0
	.loc	5 459 5 is_stmt 0               @ ../../../../../../kernel/freertos/Source/stream_buffer.c:459:5
	b	.LBB4_6
.Ltmp113:
.LBB4_7:
	@DEBUG_VALUE: xStreamBufferSetTriggerLevel:pxStreamBuffer <- $r0
	@DEBUG_VALUE: xStreamBufferSetTriggerLevel:xTriggerLevel <- $r1
	@DEBUG_VALUE: xStreamBufferSetTriggerLevel:xStreamBuffer <- $r0
	.loc	5 471 44 is_stmt 1              @ ../../../../../../kernel/freertos/Source/stream_buffer.c:471:44
	str	r1, [r0, #12]
	movs	r0, #1
.Ltmp114:
	@DEBUG_VALUE: xStreamBufferSetTriggerLevel:xStreamBuffer <- [DW_OP_LLVM_entry_value 1] $r0
	@DEBUG_VALUE: xStreamBufferSetTriggerLevel:xReturn <- 1
	@DEBUG_VALUE: xStreamBufferSetTriggerLevel:xReturn <- $r0
	.loc	5 479 5                         @ ../../../../../../kernel/freertos/Source/stream_buffer.c:479:5
	bx	lr
.Ltmp115:
.Lfunc_end4:
	.size	xStreamBufferSetTriggerLevel, .Lfunc_end4-xStreamBufferSetTriggerLevel
	.cfi_endproc
	.cantunwind
	.fnend
                                        @ -- End function
	.section	.text.xStreamBufferSpacesAvailable,"ax",%progbits
	.hidden	xStreamBufferSpacesAvailable    @ -- Begin function xStreamBufferSpacesAvailable
	.globl	xStreamBufferSpacesAvailable
	.p2align	1
	.type	xStreamBufferSpacesAvailable,%function
	.code	16                              @ @xStreamBufferSpacesAvailable
	.thumb_func
xStreamBufferSpacesAvailable:
.Lfunc_begin5:
	.fnstart
	.cfi_startproc
@ %bb.0:
	@DEBUG_VALUE: xStreamBufferSpacesAvailable:xStreamBuffer <- $r0
	@DEBUG_VALUE: xStreamBufferSpacesAvailable:pxStreamBuffer <- $r0
	.loc	5 488 5 prologue_end            @ ../../../../../../kernel/freertos/Source/stream_buffer.c:488:5
	cmp	r0, #0
	beq	.LBB5_4
.Ltmp116:
@ %bb.1:
	@DEBUG_VALUE: xStreamBufferSpacesAvailable:pxStreamBuffer <- $r0
	@DEBUG_VALUE: xStreamBufferSpacesAvailable:xStreamBuffer <- $r0
	.loc	5 490 30                        @ ../../../../../../kernel/freertos/Source/stream_buffer.c:490:30
	ldr	r1, [r0, #8]
	.loc	5 490 56 is_stmt 0              @ ../../../../../../kernel/freertos/Source/stream_buffer.c:490:56
	ldr	r2, [r0]
	.loc	5 490 38                        @ ../../../../../../kernel/freertos/Source/stream_buffer.c:490:38
	adds	r2, r2, r1
.Ltmp117:
	@DEBUG_VALUE: xStreamBufferSpacesAvailable:xSpace <- $r2
	.loc	5 491 31 is_stmt 1              @ ../../../../../../kernel/freertos/Source/stream_buffer.c:491:31
	ldr	r0, [r0, #4]
.Ltmp118:
	@DEBUG_VALUE: xStreamBufferSpacesAvailable:xStreamBuffer <- [DW_OP_LLVM_entry_value 1] $r0
	@DEBUG_VALUE: xStreamBufferSpacesAvailable:xSpace <- [DW_OP_LLVM_arg 0, DW_OP_LLVM_arg 1, DW_OP_minus, DW_OP_stack_value] $r2, $r0
	.loc	5 492 12                        @ ../../../../../../kernel/freertos/Source/stream_buffer.c:492:12
	mvns	r0, r0
.Ltmp119:
	adds	r0, r2, r0
.Ltmp120:
	@DEBUG_VALUE: xStreamBufferSpacesAvailable:xSpace <- $r0
	.loc	5 494 9                         @ ../../../../../../kernel/freertos/Source/stream_buffer.c:494:9
	subs	r1, r0, r1
	blo	.LBB5_3
.Ltmp121:
@ %bb.2:
	@DEBUG_VALUE: xStreamBufferSpacesAvailable:xSpace <- $r0
	@DEBUG_VALUE: xStreamBufferSpacesAvailable:xStreamBuffer <- [DW_OP_LLVM_entry_value 1] $r0
	.loc	5 0 9 is_stmt 0                 @ ../../../../../../kernel/freertos/Source/stream_buffer.c:0:9
	mov	r0, r1
.Ltmp122:
.LBB5_3:
	@DEBUG_VALUE: xStreamBufferSpacesAvailable:xStreamBuffer <- [DW_OP_LLVM_entry_value 1] $r0
	@DEBUG_VALUE: xStreamBufferSpacesAvailable:xSpace <- $r0
	.loc	5 503 5 is_stmt 1               @ ../../../../../../kernel/freertos/Source/stream_buffer.c:503:5
	bx	lr
.Ltmp123:
.LBB5_4:
	@DEBUG_VALUE: xStreamBufferSpacesAvailable:pxStreamBuffer <- $r0
	@DEBUG_VALUE: xStreamBufferSpacesAvailable:xStreamBuffer <- $r0
	.loc	5 488 5                         @ ../../../../../../kernel/freertos/Source/stream_buffer.c:488:5
	@APP
	cpsid i
	@NO_APP
.Ltmp124:
.LBB5_5:                                @ =>This Inner Loop Header: Depth=1
	@DEBUG_VALUE: xStreamBufferSpacesAvailable:pxStreamBuffer <- $r0
	@DEBUG_VALUE: xStreamBufferSpacesAvailable:xStreamBuffer <- $r0
	.loc	5 488 5 is_stmt 0               @ ../../../../../../kernel/freertos/Source/stream_buffer.c:488:5
	b	.LBB5_5
.Ltmp125:
.Lfunc_end5:
	.size	xStreamBufferSpacesAvailable, .Lfunc_end5-xStreamBufferSpacesAvailable
	.cfi_endproc
	.cantunwind
	.fnend
                                        @ -- End function
	.section	.text.xStreamBufferBytesAvailable,"ax",%progbits
	.hidden	xStreamBufferBytesAvailable     @ -- Begin function xStreamBufferBytesAvailable
	.globl	xStreamBufferBytesAvailable
	.p2align	1
	.type	xStreamBufferBytesAvailable,%function
	.code	16                              @ @xStreamBufferBytesAvailable
	.thumb_func
xStreamBufferBytesAvailable:
.Lfunc_begin6:
	.fnstart
	.cfi_startproc
@ %bb.0:
	@DEBUG_VALUE: xStreamBufferBytesAvailable:xStreamBuffer <- $r0
	@DEBUG_VALUE: xStreamBufferBytesAvailable:pxStreamBuffer <- $r0
	.loc	5 512 5 prologue_end is_stmt 1  @ ../../../../../../kernel/freertos/Source/stream_buffer.c:512:5
	cmp	r0, #0
	beq	.LBB6_4
.Ltmp126:
@ %bb.1:
	@DEBUG_VALUE: xStreamBufferBytesAvailable:pxStreamBuffer <- $r0
	@DEBUG_VALUE: xStreamBufferBytesAvailable:xStreamBuffer <- $r0
	@DEBUG_VALUE: prvBytesInBuffer:pxStreamBuffer <- $r0
	.loc	5 1244 30                       @ ../../../../../../kernel/freertos/Source/stream_buffer.c:1244:30
	ldr	r1, [r0, #8]
	.loc	5 1244 56 is_stmt 0             @ ../../../../../../kernel/freertos/Source/stream_buffer.c:1244:56
	ldr	r2, [r0, #4]
	.loc	5 1244 38                       @ ../../../../../../kernel/freertos/Source/stream_buffer.c:1244:38
	adds	r2, r2, r1
.Ltmp127:
	@DEBUG_VALUE: prvBytesInBuffer:xCount <- $r2
	.loc	5 1245 31 is_stmt 1             @ ../../../../../../kernel/freertos/Source/stream_buffer.c:1245:31
	ldr	r0, [r0]
.Ltmp128:
	@DEBUG_VALUE: xStreamBufferBytesAvailable:xStreamBuffer <- [DW_OP_LLVM_entry_value 1] $r0
	.loc	5 1245 12 is_stmt 0             @ ../../../../../../kernel/freertos/Source/stream_buffer.c:1245:12
	subs	r0, r2, r0
.Ltmp129:
	@DEBUG_VALUE: prvBytesInBuffer:xCount <- $r0
	.loc	5 1247 9 is_stmt 1              @ ../../../../../../kernel/freertos/Source/stream_buffer.c:1247:9
	subs	r1, r0, r1
	blo	.LBB6_3
.Ltmp130:
@ %bb.2:
	@DEBUG_VALUE: prvBytesInBuffer:xCount <- $r0
	@DEBUG_VALUE: xStreamBufferBytesAvailable:xStreamBuffer <- [DW_OP_LLVM_entry_value 1] $r0
	.loc	5 0 9 is_stmt 0                 @ ../../../../../../kernel/freertos/Source/stream_buffer.c:0:9
	mov	r0, r1
.Ltmp131:
.LBB6_3:
	@DEBUG_VALUE: xStreamBufferBytesAvailable:xStreamBuffer <- [DW_OP_LLVM_entry_value 1] $r0
	@DEBUG_VALUE: prvBytesInBuffer:xCount <- $r0
	@DEBUG_VALUE: xStreamBufferBytesAvailable:xReturn <- $r0
	.loc	5 515 5 is_stmt 1               @ ../../../../../../kernel/freertos/Source/stream_buffer.c:515:5
	bx	lr
.Ltmp132:
.LBB6_4:
	@DEBUG_VALUE: xStreamBufferBytesAvailable:pxStreamBuffer <- $r0
	@DEBUG_VALUE: xStreamBufferBytesAvailable:xStreamBuffer <- $r0
	.loc	5 512 5                         @ ../../../../../../kernel/freertos/Source/stream_buffer.c:512:5
	@APP
	cpsid i
	@NO_APP
.Ltmp133:
.LBB6_5:                                @ =>This Inner Loop Header: Depth=1
	@DEBUG_VALUE: xStreamBufferBytesAvailable:pxStreamBuffer <- $r0
	@DEBUG_VALUE: xStreamBufferBytesAvailable:xStreamBuffer <- $r0
	.loc	5 512 5 is_stmt 0               @ ../../../../../../kernel/freertos/Source/stream_buffer.c:512:5
	b	.LBB6_5
.Ltmp134:
.Lfunc_end6:
	.size	xStreamBufferBytesAvailable, .Lfunc_end6-xStreamBufferBytesAvailable
	.cfi_endproc
	.cantunwind
	.fnend
                                        @ -- End function
	.section	.text.xStreamBufferSend,"ax",%progbits
	.hidden	xStreamBufferSend               @ -- Begin function xStreamBufferSend
	.globl	xStreamBufferSend
	.p2align	1
	.type	xStreamBufferSend,%function
	.code	16                              @ @xStreamBufferSend
	.thumb_func
xStreamBufferSend:
.Lfunc_begin7:
	.loc	5 523 0 is_stmt 1               @ ../../../../../../kernel/freertos/Source/stream_buffer.c:523:0
	.fnstart
	.cfi_startproc
@ %bb.0:
	@DEBUG_VALUE: xStreamBufferSend:xStreamBuffer <- $r0
	@DEBUG_VALUE: xStreamBufferSend:pvTxData <- $r1
	@DEBUG_VALUE: xStreamBufferSend:xDataLengthBytes <- $r2
	@DEBUG_VALUE: xStreamBufferSend:xStreamBuffer <- $r0
	.save	{r4, r5, r6, r7, lr}
	push	{r4, r5, r6, r7, lr}
	.cfi_def_cfa_offset 20
	.cfi_offset lr, -4
	.cfi_offset r7, -8
	.cfi_offset r6, -12
	.cfi_offset r5, -16
	.cfi_offset r4, -20
	.pad	#28
	sub	sp, #28
	.cfi_def_cfa_offset 48
	str	r3, [sp, #24]
.Ltmp135:
	@DEBUG_VALUE: xStreamBufferSend:xMaxReportedSpace <- 0
	@DEBUG_VALUE: xStreamBufferSend:xRequiredSpace <- undef
	@DEBUG_VALUE: xStreamBufferSend:xSpace <- 0
	@DEBUG_VALUE: xStreamBufferSend:pxStreamBuffer <- undef
	.loc	5 530 5 prologue_end            @ ../../../../../../kernel/freertos/Source/stream_buffer.c:530:5
	cmp	r1, #0
	beq	.LBB7_5
.Ltmp136:
@ %bb.1:
	@DEBUG_VALUE: xStreamBufferSend:xSpace <- 0
	@DEBUG_VALUE: xStreamBufferSend:xMaxReportedSpace <- 0
	@DEBUG_VALUE: xStreamBufferSend:xDataLengthBytes <- $r2
	@DEBUG_VALUE: xStreamBufferSend:pvTxData <- $r1
	@DEBUG_VALUE: xStreamBufferSend:xStreamBuffer <- $r0
	.loc	5 0 5 is_stmt 0                 @ ../../../../../../kernel/freertos/Source/stream_buffer.c:0:5
	mov	r4, r0
.Ltmp137:
	@DEBUG_VALUE: xStreamBufferSend:xStreamBuffer <- $r4
	.loc	5 531 5 is_stmt 1               @ ../../../../../../kernel/freertos/Source/stream_buffer.c:531:5
	cmp	r0, #0
	beq	.LBB7_7
.Ltmp138:
@ %bb.2:
	@DEBUG_VALUE: xStreamBufferSend:xStreamBuffer <- $r4
	@DEBUG_VALUE: xStreamBufferSend:xSpace <- 0
	@DEBUG_VALUE: xStreamBufferSend:xMaxReportedSpace <- 0
	@DEBUG_VALUE: xStreamBufferSend:xDataLengthBytes <- $r2
	@DEBUG_VALUE: xStreamBufferSend:pvTxData <- $r1
	.loc	5 535 41                        @ ../../../../../../kernel/freertos/Source/stream_buffer.c:535:41
	ldr	r0, [r4, #8]
	.loc	5 535 49 is_stmt 0              @ ../../../../../../kernel/freertos/Source/stream_buffer.c:535:49
	subs	r6, r0, #1
.Ltmp139:
	@DEBUG_VALUE: xStreamBufferSend:xMaxReportedSpace <- $r6
	.loc	5 541 27 is_stmt 1              @ ../../../../../../kernel/freertos/Source/stream_buffer.c:541:27
	ldrb	r5, [r4, #28]
.Ltmp140:
	.loc	5 541 9 is_stmt 0               @ ../../../../../../kernel/freertos/Source/stream_buffer.c:541:9
	lsls	r5, r5, #31
	bne	.LBB7_9
.Ltmp141:
@ %bb.3:
	@DEBUG_VALUE: xStreamBufferSend:xMaxReportedSpace <- $r6
	@DEBUG_VALUE: xStreamBufferSend:xStreamBuffer <- $r4
	@DEBUG_VALUE: xStreamBufferSend:xSpace <- 0
	@DEBUG_VALUE: xStreamBufferSend:xDataLengthBytes <- $r2
	@DEBUG_VALUE: xStreamBufferSend:pvTxData <- $r1
	.loc	5 566 13 is_stmt 1              @ ../../../../../../kernel/freertos/Source/stream_buffer.c:566:13
	cmp	r6, r2
	blo	.LBB7_15
.Ltmp142:
@ %bb.4:
	@DEBUG_VALUE: xStreamBufferSend:xMaxReportedSpace <- $r6
	@DEBUG_VALUE: xStreamBufferSend:xStreamBuffer <- $r4
	@DEBUG_VALUE: xStreamBufferSend:xSpace <- 0
	@DEBUG_VALUE: xStreamBufferSend:xDataLengthBytes <- $r2
	@DEBUG_VALUE: xStreamBufferSend:pvTxData <- $r1
	.loc	5 0 13 is_stmt 0                @ ../../../../../../kernel/freertos/Source/stream_buffer.c:0:13
	mov	r6, r2
.Ltmp143:
	b	.LBB7_15
.Ltmp144:
.LBB7_5:
	@DEBUG_VALUE: xStreamBufferSend:xSpace <- 0
	@DEBUG_VALUE: xStreamBufferSend:xMaxReportedSpace <- 0
	@DEBUG_VALUE: xStreamBufferSend:xDataLengthBytes <- $r2
	@DEBUG_VALUE: xStreamBufferSend:pvTxData <- $r1
	@DEBUG_VALUE: xStreamBufferSend:xStreamBuffer <- $r0
	.loc	5 530 5 is_stmt 1               @ ../../../../../../kernel/freertos/Source/stream_buffer.c:530:5
	@APP
	cpsid i
	@NO_APP
.Ltmp145:
.LBB7_6:                                @ =>This Inner Loop Header: Depth=1
	@DEBUG_VALUE: xStreamBufferSend:xSpace <- 0
	@DEBUG_VALUE: xStreamBufferSend:xMaxReportedSpace <- 0
	@DEBUG_VALUE: xStreamBufferSend:xDataLengthBytes <- $r2
	@DEBUG_VALUE: xStreamBufferSend:pvTxData <- $r1
	@DEBUG_VALUE: xStreamBufferSend:xStreamBuffer <- $r0
	.loc	5 530 5 is_stmt 0               @ ../../../../../../kernel/freertos/Source/stream_buffer.c:530:5
	b	.LBB7_6
.Ltmp146:
.LBB7_7:
	@DEBUG_VALUE: xStreamBufferSend:xStreamBuffer <- $r4
	@DEBUG_VALUE: xStreamBufferSend:xSpace <- 0
	@DEBUG_VALUE: xStreamBufferSend:xMaxReportedSpace <- 0
	@DEBUG_VALUE: xStreamBufferSend:xDataLengthBytes <- $r2
	@DEBUG_VALUE: xStreamBufferSend:pvTxData <- $r1
	.loc	5 531 5 is_stmt 1               @ ../../../../../../kernel/freertos/Source/stream_buffer.c:531:5
	@APP
	cpsid i
	@NO_APP
.Ltmp147:
.LBB7_8:                                @ =>This Inner Loop Header: Depth=1
	@DEBUG_VALUE: xStreamBufferSend:xStreamBuffer <- $r4
	@DEBUG_VALUE: xStreamBufferSend:xSpace <- 0
	@DEBUG_VALUE: xStreamBufferSend:xMaxReportedSpace <- 0
	@DEBUG_VALUE: xStreamBufferSend:xDataLengthBytes <- $r2
	@DEBUG_VALUE: xStreamBufferSend:pvTxData <- $r1
	.loc	5 531 5 is_stmt 0               @ ../../../../../../kernel/freertos/Source/stream_buffer.c:531:5
	b	.LBB7_8
.Ltmp148:
.LBB7_9:
	@DEBUG_VALUE: xStreamBufferSend:xMaxReportedSpace <- $r6
	@DEBUG_VALUE: xStreamBufferSend:xStreamBuffer <- $r4
	@DEBUG_VALUE: xStreamBufferSend:xSpace <- 0
	@DEBUG_VALUE: xStreamBufferSend:xDataLengthBytes <- $r2
	@DEBUG_VALUE: xStreamBufferSend:pvTxData <- $r1
	@DEBUG_VALUE: xStreamBufferSend:xRequiredSpace <- undef
	.loc	5 0 5                           @ ../../../../../../kernel/freertos/Source/stream_buffer.c:0:5
	movs	r5, #3
	mvns	r5, r5
.Ltmp149:
	.loc	5 546 9 is_stmt 1               @ ../../../../../../kernel/freertos/Source/stream_buffer.c:546:9
	cmp	r2, r5
	blo	.LBB7_12
.Ltmp150:
@ %bb.10:
	@DEBUG_VALUE: xStreamBufferSend:xMaxReportedSpace <- $r6
	@DEBUG_VALUE: xStreamBufferSend:xStreamBuffer <- $r4
	@DEBUG_VALUE: xStreamBufferSend:xSpace <- 0
	@DEBUG_VALUE: xStreamBufferSend:xDataLengthBytes <- $r2
	@DEBUG_VALUE: xStreamBufferSend:pvTxData <- $r1
	.loc	5 546 9 is_stmt 0               @ ../../../../../../kernel/freertos/Source/stream_buffer.c:546:9
	@APP
	cpsid i
	@NO_APP
.Ltmp151:
.LBB7_11:                               @ =>This Inner Loop Header: Depth=1
	@DEBUG_VALUE: xStreamBufferSend:xMaxReportedSpace <- $r6
	@DEBUG_VALUE: xStreamBufferSend:xStreamBuffer <- $r4
	@DEBUG_VALUE: xStreamBufferSend:xSpace <- 0
	@DEBUG_VALUE: xStreamBufferSend:xDataLengthBytes <- $r2
	@DEBUG_VALUE: xStreamBufferSend:pvTxData <- $r1
	.loc	5 546 9                         @ ../../../../../../kernel/freertos/Source/stream_buffer.c:546:9
	b	.LBB7_11
.Ltmp152:
.LBB7_12:
	@DEBUG_VALUE: xStreamBufferSend:xMaxReportedSpace <- $r6
	@DEBUG_VALUE: xStreamBufferSend:xStreamBuffer <- $r4
	@DEBUG_VALUE: xStreamBufferSend:xSpace <- 0
	@DEBUG_VALUE: xStreamBufferSend:xDataLengthBytes <- $r2
	@DEBUG_VALUE: xStreamBufferSend:pvTxData <- $r1
	.loc	5 0 0                           @ ../../../../../../kernel/freertos/Source/stream_buffer.c:0:0
	adds	r5, r2, #4
.Ltmp153:
	@DEBUG_VALUE: xStreamBufferSend:xRequiredSpace <- $r5
	.loc	5 550 13 is_stmt 1              @ ../../../../../../kernel/freertos/Source/stream_buffer.c:550:13
	cmp	r5, r6
	bls	.LBB7_14
.Ltmp154:
@ %bb.13:
	@DEBUG_VALUE: xStreamBufferSend:xRequiredSpace <- $r5
	@DEBUG_VALUE: xStreamBufferSend:xMaxReportedSpace <- $r6
	@DEBUG_VALUE: xStreamBufferSend:xStreamBuffer <- $r4
	@DEBUG_VALUE: xStreamBufferSend:xSpace <- 0
	@DEBUG_VALUE: xStreamBufferSend:xDataLengthBytes <- $r2
	@DEBUG_VALUE: xStreamBufferSend:pvTxData <- $r1
	.loc	5 0 13 is_stmt 0                @ ../../../../../../kernel/freertos/Source/stream_buffer.c:0:13
	str	r1, [sp, #8]                    @ 4-byte Spill
.Ltmp155:
	@DEBUG_VALUE: xStreamBufferSend:pvTxData <- [DW_OP_plus_uconst 8] [$sp+0]
	str	r2, [sp, #12]                   @ 4-byte Spill
.Ltmp156:
	@DEBUG_VALUE: xStreamBufferSend:xDataLengthBytes <- [DW_OP_plus_uconst 12] [$sp+0]
	movs	r2, #0
.Ltmp157:
	.loc	5 554 26 is_stmt 1              @ ../../../../../../kernel/freertos/Source/stream_buffer.c:554:26
	str	r2, [sp, #24]
	@DEBUG_VALUE: xStreamBufferSend:xRequiredSpace <- $r5
	b	.LBB7_27
.Ltmp158:
.LBB7_14:
	@DEBUG_VALUE: xStreamBufferSend:xRequiredSpace <- $r5
	@DEBUG_VALUE: xStreamBufferSend:xMaxReportedSpace <- $r6
	@DEBUG_VALUE: xStreamBufferSend:xStreamBuffer <- $r4
	@DEBUG_VALUE: xStreamBufferSend:xSpace <- 0
	@DEBUG_VALUE: xStreamBufferSend:xDataLengthBytes <- $r2
	@DEBUG_VALUE: xStreamBufferSend:pvTxData <- $r1
	.loc	5 0 26 is_stmt 0                @ ../../../../../../kernel/freertos/Source/stream_buffer.c:0:26
	mov	r6, r5
.Ltmp159:
	@DEBUG_VALUE: xStreamBufferSend:xRequiredSpace <- $r6
.LBB7_15:
	@DEBUG_VALUE: xStreamBufferSend:xStreamBuffer <- $r4
	@DEBUG_VALUE: xStreamBufferSend:xSpace <- 0
	@DEBUG_VALUE: xStreamBufferSend:xDataLengthBytes <- $r2
	@DEBUG_VALUE: xStreamBufferSend:pvTxData <- $r1
	@DEBUG_VALUE: xStreamBufferSend:xRequiredSpace <- $r6
	.loc	5 576 9 is_stmt 1               @ ../../../../../../kernel/freertos/Source/stream_buffer.c:576:9
	cmp	r3, #0
	str	r2, [sp, #12]                   @ 4-byte Spill
.Ltmp160:
	@DEBUG_VALUE: xStreamBufferSend:xDataLengthBytes <- [DW_OP_plus_uconst 12] [$sp+0]
	str	r1, [sp, #8]                    @ 4-byte Spill
.Ltmp161:
	@DEBUG_VALUE: xStreamBufferSend:pvTxData <- [DW_OP_plus_uconst 8] [$sp+0]
	beq	.LBB7_26
.Ltmp162:
@ %bb.16:
	@DEBUG_VALUE: xStreamBufferSend:xDataLengthBytes <- [DW_OP_plus_uconst 12] [$sp+0]
	@DEBUG_VALUE: xStreamBufferSend:pvTxData <- [DW_OP_plus_uconst 8] [$sp+0]
	@DEBUG_VALUE: xStreamBufferSend:xRequiredSpace <- $r6
	@DEBUG_VALUE: xStreamBufferSend:xStreamBuffer <- $r4
	@DEBUG_VALUE: xStreamBufferSend:xSpace <- 0
	.loc	5 0 9 is_stmt 0                 @ ../../../../../../kernel/freertos/Source/stream_buffer.c:0:9
	add	r0, sp, #16
.Ltmp163:
	.loc	5 578 9 is_stmt 1               @ ../../../../../../kernel/freertos/Source/stream_buffer.c:578:9
	bl	vTaskSetTimeOutState
.Ltmp164:
.LBB7_17:                               @ =>This Inner Loop Header: Depth=1
	@DEBUG_VALUE: xStreamBufferSend:xDataLengthBytes <- [DW_OP_plus_uconst 12] [$sp+0]
	@DEBUG_VALUE: xStreamBufferSend:pvTxData <- [DW_OP_plus_uconst 8] [$sp+0]
	@DEBUG_VALUE: xStreamBufferSend:xRequiredSpace <- $r6
	@DEBUG_VALUE: xStreamBufferSend:xStreamBuffer <- $r4
	.loc	5 584 13                        @ ../../../../../../kernel/freertos/Source/stream_buffer.c:584:13
	bl	vPortEnterCritical
.Ltmp165:
	@DEBUG_VALUE: xStreamBufferSpacesAvailable:pxStreamBuffer <- $r4
	@DEBUG_VALUE: xStreamBufferSpacesAvailable:xStreamBuffer <- $r4
	.loc	5 490 30                        @ ../../../../../../kernel/freertos/Source/stream_buffer.c:490:30
	ldr	r0, [r4, #8]
	.loc	5 490 56 is_stmt 0              @ ../../../../../../kernel/freertos/Source/stream_buffer.c:490:56
	ldr	r1, [r4]
	.loc	5 490 38                        @ ../../../../../../kernel/freertos/Source/stream_buffer.c:490:38
	adds	r1, r1, r0
.Ltmp166:
	@DEBUG_VALUE: xStreamBufferSpacesAvailable:xSpace <- $r1
	.loc	5 491 31 is_stmt 1              @ ../../../../../../kernel/freertos/Source/stream_buffer.c:491:31
	ldr	r2, [r4, #4]
.Ltmp167:
	@DEBUG_VALUE: xStreamBufferSpacesAvailable:xSpace <- [DW_OP_LLVM_arg 0, DW_OP_LLVM_arg 1, DW_OP_minus, DW_OP_stack_value] $r1, $r2
	.loc	5 492 12                        @ ../../../../../../kernel/freertos/Source/stream_buffer.c:492:12
	mvns	r2, r2
.Ltmp168:
	adds	r7, r1, r2
.Ltmp169:
	@DEBUG_VALUE: xStreamBufferSpacesAvailable:xSpace <- $r7
	.loc	5 494 9                         @ ../../../../../../kernel/freertos/Source/stream_buffer.c:494:9
	subs	r0, r7, r0
	blo	.LBB7_19
.Ltmp170:
@ %bb.18:                               @   in Loop: Header=BB7_17 Depth=1
	@DEBUG_VALUE: xStreamBufferSpacesAvailable:xSpace <- $r7
	@DEBUG_VALUE: xStreamBufferSpacesAvailable:xStreamBuffer <- $r4
	@DEBUG_VALUE: xStreamBufferSpacesAvailable:pxStreamBuffer <- $r4
	@DEBUG_VALUE: xStreamBufferSend:xDataLengthBytes <- [DW_OP_plus_uconst 12] [$sp+0]
	@DEBUG_VALUE: xStreamBufferSend:pvTxData <- [DW_OP_plus_uconst 8] [$sp+0]
	@DEBUG_VALUE: xStreamBufferSend:xRequiredSpace <- $r6
	@DEBUG_VALUE: xStreamBufferSend:xStreamBuffer <- $r4
	.loc	5 0 9 is_stmt 0                 @ ../../../../../../kernel/freertos/Source/stream_buffer.c:0:9
	mov	r7, r0
.Ltmp171:
.LBB7_19:                               @   in Loop: Header=BB7_17 Depth=1
	@DEBUG_VALUE: xStreamBufferSend:xDataLengthBytes <- [DW_OP_plus_uconst 12] [$sp+0]
	@DEBUG_VALUE: xStreamBufferSend:pvTxData <- [DW_OP_plus_uconst 8] [$sp+0]
	@DEBUG_VALUE: xStreamBufferSend:xRequiredSpace <- $r6
	@DEBUG_VALUE: xStreamBufferSend:xStreamBuffer <- $r4
	@DEBUG_VALUE: xStreamBufferSend:xSpace <- $r7
	@DEBUG_VALUE: xStreamBufferSpacesAvailable:xSpace <- $r7
	.loc	5 588 21 is_stmt 1              @ ../../../../../../kernel/freertos/Source/stream_buffer.c:588:21
	cmp	r7, r6
	bhs	.LBB7_24
.Ltmp172:
@ %bb.20:                               @   in Loop: Header=BB7_17 Depth=1
	@DEBUG_VALUE: xStreamBufferSend:xSpace <- $r7
	@DEBUG_VALUE: xStreamBufferSend:xDataLengthBytes <- [DW_OP_plus_uconst 12] [$sp+0]
	@DEBUG_VALUE: xStreamBufferSend:pvTxData <- [DW_OP_plus_uconst 8] [$sp+0]
	@DEBUG_VALUE: xStreamBufferSend:xRequiredSpace <- $r6
	@DEBUG_VALUE: xStreamBufferSend:xStreamBuffer <- $r4
	.loc	5 0 21 is_stmt 0                @ ../../../../../../kernel/freertos/Source/stream_buffer.c:0:21
	movs	r5, #0
.Ltmp173:
	.loc	5 591 30 is_stmt 1              @ ../../../../../../kernel/freertos/Source/stream_buffer.c:591:30
	mov	r0, r5
	mov	r1, r5
	bl	xTaskGenericNotifyStateClear
.Ltmp174:
	.loc	5 594 21                        @ ../../../../../../kernel/freertos/Source/stream_buffer.c:594:21
	ldr	r0, [r4, #20]
.Ltmp175:
	.loc	5 594 21 is_stmt 0              @ ../../../../../../kernel/freertos/Source/stream_buffer.c:594:21
	cmp	r0, #0
	bne	.LBB7_37
.Ltmp176:
@ %bb.21:                               @   in Loop: Header=BB7_17 Depth=1
	@DEBUG_VALUE: xStreamBufferSend:xSpace <- $r7
	@DEBUG_VALUE: xStreamBufferSend:xDataLengthBytes <- [DW_OP_plus_uconst 12] [$sp+0]
	@DEBUG_VALUE: xStreamBufferSend:pvTxData <- [DW_OP_plus_uconst 8] [$sp+0]
	@DEBUG_VALUE: xStreamBufferSend:xRequiredSpace <- $r6
	@DEBUG_VALUE: xStreamBufferSend:xStreamBuffer <- $r4
	.loc	5 595 58 is_stmt 1              @ ../../../../../../kernel/freertos/Source/stream_buffer.c:595:58
	bl	xTaskGetCurrentTaskHandle
.Ltmp177:
	.loc	5 595 56 is_stmt 0              @ ../../../../../../kernel/freertos/Source/stream_buffer.c:595:56
	str	r0, [r4, #20]
.Ltmp178:
	.loc	5 603 13 is_stmt 1              @ ../../../../../../kernel/freertos/Source/stream_buffer.c:603:13
	bl	vPortExitCritical
.Ltmp179:
	.loc	5 606 22                        @ ../../../../../../kernel/freertos/Source/stream_buffer.c:606:22
	ldr	r0, [sp, #24]
	str	r0, [sp]
	mov	r0, r5
	mov	r1, r5
	mov	r2, r5
	mov	r3, r5
	bl	xTaskGenericNotifyWait
.Ltmp180:
	.loc	5 607 48                        @ ../../../../../../kernel/freertos/Source/stream_buffer.c:607:48
	str	r5, [r4, #20]
	add	r0, sp, #16
	add	r1, sp, #24
.Ltmp181:
	.loc	5 608 18                        @ ../../../../../../kernel/freertos/Source/stream_buffer.c:608:18
	bl	xTaskCheckForTimeOut
.Ltmp182:
	.loc	5 608 9 is_stmt 0               @ ../../../../../../kernel/freertos/Source/stream_buffer.c:608:9
	cmp	r0, #0
	beq	.LBB7_17
.Ltmp183:
@ %bb.22:
	@DEBUG_VALUE: xStreamBufferSend:xSpace <- $r7
	@DEBUG_VALUE: xStreamBufferSend:xDataLengthBytes <- [DW_OP_plus_uconst 12] [$sp+0]
	@DEBUG_VALUE: xStreamBufferSend:pvTxData <- [DW_OP_plus_uconst 8] [$sp+0]
	@DEBUG_VALUE: xStreamBufferSend:xRequiredSpace <- $r6
	@DEBUG_VALUE: xStreamBufferSend:xStreamBuffer <- $r4
	@DEBUG_VALUE: xStreamBufferSend:xSpace <- $r7
	.loc	5 615 9 is_stmt 1               @ ../../../../../../kernel/freertos/Source/stream_buffer.c:615:9
	cmp	r7, #0
	beq	.LBB7_25
.Ltmp184:
.LBB7_23:
	@DEBUG_VALUE: xStreamBufferSend:xSpace <- $r7
	@DEBUG_VALUE: xStreamBufferSend:xDataLengthBytes <- [DW_OP_plus_uconst 12] [$sp+0]
	@DEBUG_VALUE: xStreamBufferSend:pvTxData <- [DW_OP_plus_uconst 8] [$sp+0]
	@DEBUG_VALUE: xStreamBufferSend:xRequiredSpace <- $r6
	@DEBUG_VALUE: xStreamBufferSend:xStreamBuffer <- $r4
	.loc	5 0 9 is_stmt 0                 @ ../../../../../../kernel/freertos/Source/stream_buffer.c:0:9
	mov	r5, r6
.Ltmp185:
	@DEBUG_VALUE: xStreamBufferSend:xRequiredSpace <- $r5
	b	.LBB7_29
.Ltmp186:
.LBB7_24:
	@DEBUG_VALUE: xStreamBufferSend:xSpace <- $r7
	@DEBUG_VALUE: xStreamBufferSend:xDataLengthBytes <- [DW_OP_plus_uconst 12] [$sp+0]
	@DEBUG_VALUE: xStreamBufferSend:pvTxData <- [DW_OP_plus_uconst 8] [$sp+0]
	@DEBUG_VALUE: xStreamBufferSend:xRequiredSpace <- $r6
	@DEBUG_VALUE: xStreamBufferSend:xStreamBuffer <- $r4
	.loc	5 599 21 is_stmt 1              @ ../../../../../../kernel/freertos/Source/stream_buffer.c:599:21
	bl	vPortExitCritical
.Ltmp187:
	@DEBUG_VALUE: xStreamBufferSend:xSpace <- $r7
	.loc	5 615 9                         @ ../../../../../../kernel/freertos/Source/stream_buffer.c:615:9
	cmp	r7, #0
	bne	.LBB7_23
.Ltmp188:
.LBB7_25:
	@DEBUG_VALUE: xStreamBufferSend:xSpace <- $r7
	@DEBUG_VALUE: xStreamBufferSend:xDataLengthBytes <- [DW_OP_plus_uconst 12] [$sp+0]
	@DEBUG_VALUE: xStreamBufferSend:pvTxData <- [DW_OP_plus_uconst 8] [$sp+0]
	@DEBUG_VALUE: xStreamBufferSend:xRequiredSpace <- $r6
	@DEBUG_VALUE: xStreamBufferSend:xStreamBuffer <- $r4
	.loc	5 490 30                        @ ../../../../../../kernel/freertos/Source/stream_buffer.c:490:30
	ldr	r0, [r4, #8]
.Ltmp189:
.LBB7_26:
	@DEBUG_VALUE: xStreamBufferSend:xDataLengthBytes <- [DW_OP_plus_uconst 12] [$sp+0]
	@DEBUG_VALUE: xStreamBufferSend:pvTxData <- [DW_OP_plus_uconst 8] [$sp+0]
	@DEBUG_VALUE: xStreamBufferSend:xRequiredSpace <- $r6
	@DEBUG_VALUE: xStreamBufferSend:xStreamBuffer <- $r4
	.loc	5 0 30 is_stmt 0                @ ../../../../../../kernel/freertos/Source/stream_buffer.c:0:30
	mov	r5, r6
.Ltmp190:
	@DEBUG_VALUE: xStreamBufferSend:xRequiredSpace <- $r5
.LBB7_27:
	@DEBUG_VALUE: xStreamBufferSend:xDataLengthBytes <- [DW_OP_plus_uconst 12] [$sp+0]
	@DEBUG_VALUE: xStreamBufferSend:pvTxData <- [DW_OP_plus_uconst 8] [$sp+0]
	@DEBUG_VALUE: xStreamBufferSend:xRequiredSpace <- $r5
	@DEBUG_VALUE: xStreamBufferSend:xStreamBuffer <- $r4
	@DEBUG_VALUE: xStreamBufferSpacesAvailable:xStreamBuffer <- $r4
	@DEBUG_VALUE: xStreamBufferSpacesAvailable:pxStreamBuffer <- $r4
	.loc	5 490 56                        @ ../../../../../../kernel/freertos/Source/stream_buffer.c:490:56
	ldr	r2, [r4]
	.loc	5 490 38                        @ ../../../../../../kernel/freertos/Source/stream_buffer.c:490:38
	adds	r2, r2, r0
.Ltmp191:
	@DEBUG_VALUE: xStreamBufferSpacesAvailable:xSpace <- $r2
	.loc	5 491 31 is_stmt 1              @ ../../../../../../kernel/freertos/Source/stream_buffer.c:491:31
	ldr	r3, [r4, #4]
.Ltmp192:
	@DEBUG_VALUE: xStreamBufferSpacesAvailable:xSpace <- [DW_OP_LLVM_arg 0, DW_OP_LLVM_arg 1, DW_OP_minus, DW_OP_stack_value] $r2, $r3
	.loc	5 492 12                        @ ../../../../../../kernel/freertos/Source/stream_buffer.c:492:12
	mvns	r3, r3
.Ltmp193:
	adds	r7, r2, r3
.Ltmp194:
	@DEBUG_VALUE: xStreamBufferSpacesAvailable:xSpace <- $r7
	.loc	5 494 9                         @ ../../../../../../kernel/freertos/Source/stream_buffer.c:494:9
	subs	r0, r7, r0
	blo	.LBB7_29
.Ltmp195:
@ %bb.28:
	@DEBUG_VALUE: xStreamBufferSpacesAvailable:xSpace <- $r7
	@DEBUG_VALUE: xStreamBufferSpacesAvailable:pxStreamBuffer <- $r4
	@DEBUG_VALUE: xStreamBufferSpacesAvailable:xStreamBuffer <- $r4
	@DEBUG_VALUE: xStreamBufferSend:xDataLengthBytes <- [DW_OP_plus_uconst 12] [$sp+0]
	@DEBUG_VALUE: xStreamBufferSend:pvTxData <- [DW_OP_plus_uconst 8] [$sp+0]
	@DEBUG_VALUE: xStreamBufferSend:xRequiredSpace <- $r5
	@DEBUG_VALUE: xStreamBufferSend:xStreamBuffer <- $r4
	.loc	5 0 9 is_stmt 0                 @ ../../../../../../kernel/freertos/Source/stream_buffer.c:0:9
	mov	r7, r0
.Ltmp196:
.LBB7_29:
	@DEBUG_VALUE: xStreamBufferSend:xDataLengthBytes <- [DW_OP_plus_uconst 12] [$sp+0]
	@DEBUG_VALUE: xStreamBufferSend:pvTxData <- [DW_OP_plus_uconst 8] [$sp+0]
	@DEBUG_VALUE: xStreamBufferSend:xRequiredSpace <- $r5
	@DEBUG_VALUE: xStreamBufferSend:xStreamBuffer <- $r4
	@DEBUG_VALUE: xStreamBufferSend:xSpace <- $r7
	@DEBUG_VALUE: xStreamBufferSpacesAvailable:xSpace <- $r7
	ldr	r2, [sp, #12]                   @ 4-byte Reload
.Ltmp197:
	@DEBUG_VALUE: xStreamBufferSend:xDataLengthBytes <- $r2
	@DEBUG_VALUE: xStreamBufferSend:xSpace <- $r7
	.loc	5 624 15 is_stmt 1              @ ../../../../../../kernel/freertos/Source/stream_buffer.c:624:15
	str	r5, [sp]
	mov	r0, r4
	ldr	r1, [sp, #8]                    @ 4-byte Reload
.Ltmp198:
	@DEBUG_VALUE: xStreamBufferSend:pvTxData <- $r1
	mov	r3, r7
	bl	prvWriteMessageToBuffer
.Ltmp199:
	@DEBUG_VALUE: xStreamBufferSend:pvTxData <- [DW_OP_LLVM_entry_value 1] $r1
	mov	r5, r0
.Ltmp200:
	@DEBUG_VALUE: xStreamBufferSend:xReturn <- $r5
	.loc	5 626 9                         @ ../../../../../../kernel/freertos/Source/stream_buffer.c:626:9
	cmp	r0, #0
	beq	.LBB7_36
.Ltmp201:
@ %bb.30:
	@DEBUG_VALUE: xStreamBufferSend:xReturn <- $r5
	@DEBUG_VALUE: xStreamBufferSend:pvTxData <- [DW_OP_LLVM_entry_value 1] $r1
	@DEBUG_VALUE: xStreamBufferSend:xSpace <- $r7
	@DEBUG_VALUE: xStreamBufferSend:xStreamBuffer <- $r4
	@DEBUG_VALUE: prvBytesInBuffer:pxStreamBuffer <- $r4
	.loc	5 1244 30                       @ ../../../../../../kernel/freertos/Source/stream_buffer.c:1244:30
	ldr	r1, [r4, #8]
	.loc	5 1244 56 is_stmt 0             @ ../../../../../../kernel/freertos/Source/stream_buffer.c:1244:56
	ldr	r0, [r4, #4]
	.loc	5 1244 38                       @ ../../../../../../kernel/freertos/Source/stream_buffer.c:1244:38
	adds	r0, r0, r1
.Ltmp202:
	@DEBUG_VALUE: prvBytesInBuffer:xCount <- $r0
	.loc	5 1245 31 is_stmt 1             @ ../../../../../../kernel/freertos/Source/stream_buffer.c:1245:31
	ldr	r2, [r4]
	.loc	5 1245 12 is_stmt 0             @ ../../../../../../kernel/freertos/Source/stream_buffer.c:1245:12
	subs	r0, r0, r2
.Ltmp203:
	@DEBUG_VALUE: prvBytesInBuffer:xCount <- $r0
	.loc	5 1247 9 is_stmt 1              @ ../../../../../../kernel/freertos/Source/stream_buffer.c:1247:9
	subs	r1, r0, r1
	blo	.LBB7_32
.Ltmp204:
@ %bb.31:
	@DEBUG_VALUE: prvBytesInBuffer:xCount <- $r0
	@DEBUG_VALUE: prvBytesInBuffer:pxStreamBuffer <- $r4
	@DEBUG_VALUE: xStreamBufferSend:xReturn <- $r5
	@DEBUG_VALUE: xStreamBufferSend:pvTxData <- [DW_OP_LLVM_entry_value 1] $r1
	@DEBUG_VALUE: xStreamBufferSend:xSpace <- $r7
	@DEBUG_VALUE: xStreamBufferSend:xStreamBuffer <- $r4
	.loc	5 0 9 is_stmt 0                 @ ../../../../../../kernel/freertos/Source/stream_buffer.c:0:9
	mov	r0, r1
.Ltmp205:
.LBB7_32:
	@DEBUG_VALUE: xStreamBufferSend:xReturn <- $r5
	@DEBUG_VALUE: xStreamBufferSend:pvTxData <- [DW_OP_LLVM_entry_value 1] $r1
	@DEBUG_VALUE: xStreamBufferSend:xSpace <- $r7
	@DEBUG_VALUE: xStreamBufferSend:xStreamBuffer <- $r4
	@DEBUG_VALUE: prvBytesInBuffer:xCount <- $r0
	.loc	5 631 67 is_stmt 1              @ ../../../../../../kernel/freertos/Source/stream_buffer.c:631:67
	ldr	r1, [r4, #12]
.Ltmp206:
	.loc	5 631 13 is_stmt 0              @ ../../../../../../kernel/freertos/Source/stream_buffer.c:631:13
	cmp	r0, r1
	blo	.LBB7_36
.Ltmp207:
@ %bb.33:
	@DEBUG_VALUE: xStreamBufferSend:xReturn <- $r5
	@DEBUG_VALUE: xStreamBufferSend:pvTxData <- [DW_OP_LLVM_entry_value 1] $r1
	@DEBUG_VALUE: xStreamBufferSend:xSpace <- $r7
	@DEBUG_VALUE: xStreamBufferSend:xStreamBuffer <- $r4
	.loc	5 633 13 is_stmt 1              @ ../../../../../../kernel/freertos/Source/stream_buffer.c:633:13
	bl	vTaskSuspendAll
.Ltmp208:
	.loc	5 633 13 is_stmt 0              @ ../../../../../../kernel/freertos/Source/stream_buffer.c:633:13
	ldr	r0, [r4, #16]
.Ltmp209:
	.loc	5 633 13                        @ ../../../../../../kernel/freertos/Source/stream_buffer.c:633:13
	cmp	r0, #0
	beq	.LBB7_35
.Ltmp210:
@ %bb.34:
	@DEBUG_VALUE: xStreamBufferSend:xReturn <- $r5
	@DEBUG_VALUE: xStreamBufferSend:pvTxData <- [DW_OP_LLVM_entry_value 1] $r1
	@DEBUG_VALUE: xStreamBufferSend:xSpace <- $r7
	@DEBUG_VALUE: xStreamBufferSend:xStreamBuffer <- $r4
	.loc	5 633 13                        @ ../../../../../../kernel/freertos/Source/stream_buffer.c:633:13
	ldr	r0, [r4, #16]
	movs	r6, #0
	str	r6, [sp]
	mov	r1, r6
	mov	r2, r6
	mov	r3, r6
	bl	xTaskGenericNotify
.Ltmp211:
	str	r6, [r4, #16]
.Ltmp212:
.LBB7_35:
	@DEBUG_VALUE: xStreamBufferSend:xReturn <- $r5
	@DEBUG_VALUE: xStreamBufferSend:pvTxData <- [DW_OP_LLVM_entry_value 1] $r1
	@DEBUG_VALUE: xStreamBufferSend:xSpace <- $r7
	@DEBUG_VALUE: xStreamBufferSend:xStreamBuffer <- $r4
	.loc	5 633 13                        @ ../../../../../../kernel/freertos/Source/stream_buffer.c:633:13
	bl	xTaskResumeAll
.Ltmp213:
.LBB7_36:
	@DEBUG_VALUE: xStreamBufferSend:xReturn <- $r5
	@DEBUG_VALUE: xStreamBufferSend:pvTxData <- [DW_OP_LLVM_entry_value 1] $r1
	@DEBUG_VALUE: xStreamBufferSend:xSpace <- $r7
	@DEBUG_VALUE: xStreamBufferSend:xStreamBuffer <- $r4
	.loc	5 646 5 is_stmt 1               @ ../../../../../../kernel/freertos/Source/stream_buffer.c:646:5
	mov	r0, r5
	.loc	5 646 5 epilogue_begin is_stmt 0 @ ../../../../../../kernel/freertos/Source/stream_buffer.c:646:5
	add	sp, #28
	pop	{r4, r5, r6, r7, pc}
.Ltmp214:
.LBB7_37:
	@DEBUG_VALUE: xStreamBufferSend:xSpace <- $r7
	@DEBUG_VALUE: xStreamBufferSend:xDataLengthBytes <- [DW_OP_plus_uconst 12] [$sp+0]
	@DEBUG_VALUE: xStreamBufferSend:pvTxData <- [DW_OP_plus_uconst 8] [$sp+0]
	@DEBUG_VALUE: xStreamBufferSend:xRequiredSpace <- $r6
	@DEBUG_VALUE: xStreamBufferSend:xStreamBuffer <- $r4
	.loc	5 594 21 is_stmt 1              @ ../../../../../../kernel/freertos/Source/stream_buffer.c:594:21
	@APP
	cpsid i
	@NO_APP
.Ltmp215:
.LBB7_38:                               @ =>This Inner Loop Header: Depth=1
	@DEBUG_VALUE: xStreamBufferSend:xSpace <- $r7
	@DEBUG_VALUE: xStreamBufferSend:xDataLengthBytes <- [DW_OP_plus_uconst 12] [$sp+0]
	@DEBUG_VALUE: xStreamBufferSend:pvTxData <- [DW_OP_plus_uconst 8] [$sp+0]
	@DEBUG_VALUE: xStreamBufferSend:xRequiredSpace <- $r6
	@DEBUG_VALUE: xStreamBufferSend:xStreamBuffer <- $r4
	.loc	5 594 21 is_stmt 0              @ ../../../../../../kernel/freertos/Source/stream_buffer.c:594:21
	b	.LBB7_38
.Ltmp216:
.Lfunc_end7:
	.size	xStreamBufferSend, .Lfunc_end7-xStreamBufferSend
	.cfi_endproc
	.cantunwind
	.fnend
                                        @ -- End function
	.section	.text.prvWriteMessageToBuffer,"ax",%progbits
	.p2align	1                               @ -- Begin function prvWriteMessageToBuffer
	.type	prvWriteMessageToBuffer,%function
	.code	16                              @ @prvWriteMessageToBuffer
	.thumb_func
prvWriteMessageToBuffer:
.Lfunc_begin8:
	.loc	5 706 0 is_stmt 1               @ ../../../../../../kernel/freertos/Source/stream_buffer.c:706:0
	.fnstart
	.cfi_startproc
@ %bb.0:
	@DEBUG_VALUE: prvWriteMessageToBuffer:pxStreamBuffer <- $r0
	@DEBUG_VALUE: prvWriteMessageToBuffer:pvTxData <- $r1
	@DEBUG_VALUE: prvWriteMessageToBuffer:xSpace <- $r3
	.save	{r4, r5, r6, r7, lr}
	push	{r4, r5, r6, r7, lr}
	.cfi_def_cfa_offset 20
	.cfi_offset lr, -4
	.cfi_offset r7, -8
	.cfi_offset r6, -12
	.cfi_offset r5, -16
	.cfi_offset r4, -20
	.pad	#12
	sub	sp, #12
	.cfi_def_cfa_offset 32
.Ltmp217:
	@DEBUG_VALUE: prvWriteMessageToBuffer:xRequiredSpace <- [DW_OP_plus_uconst 32] [$sp+0]
	mov	r5, r0
.Ltmp218:
	@DEBUG_VALUE: prvWriteMessageToBuffer:xDataLengthBytes <- [DW_OP_plus_uconst 8, DW_OP_deref] $sp
	@DEBUG_VALUE: prvWriteMessageToBuffer:pxStreamBuffer <- $r5
	str	r2, [sp, #8]
	movs	r0, #0
.Ltmp219:
	.loc	5 710 9 prologue_end            @ ../../../../../../kernel/freertos/Source/stream_buffer.c:710:9
	cmp	r3, #0
	beq	.LBB8_28
.Ltmp220:
@ %bb.1:
	@DEBUG_VALUE: prvWriteMessageToBuffer:pxStreamBuffer <- $r5
	@DEBUG_VALUE: prvWriteMessageToBuffer:xDataLengthBytes <- [DW_OP_plus_uconst 8, DW_OP_deref] $sp
	@DEBUG_VALUE: prvWriteMessageToBuffer:xRequiredSpace <- [DW_OP_plus_uconst 32] [$sp+0]
	@DEBUG_VALUE: prvWriteMessageToBuffer:xSpace <- $r3
	@DEBUG_VALUE: prvWriteMessageToBuffer:pvTxData <- $r1
	.loc	5 0 9 is_stmt 0                 @ ../../../../../../kernel/freertos/Source/stream_buffer.c:0:9
	mov	r4, r2
.Ltmp221:
	.loc	5 716 32 is_stmt 1              @ ../../../../../../kernel/freertos/Source/stream_buffer.c:716:32
	ldrb	r2, [r5, #28]
.Ltmp222:
	.loc	5 716 14 is_stmt 0              @ ../../../../../../kernel/freertos/Source/stream_buffer.c:716:14
	lsls	r2, r2, #31
	bne	.LBB8_10
.Ltmp223:
@ %bb.2:
	@DEBUG_VALUE: prvWriteMessageToBuffer:pxStreamBuffer <- $r5
	@DEBUG_VALUE: prvWriteMessageToBuffer:xDataLengthBytes <- [DW_OP_plus_uconst 8, DW_OP_deref] $sp
	@DEBUG_VALUE: prvWriteMessageToBuffer:xRequiredSpace <- [DW_OP_plus_uconst 32] [$sp+0]
	@DEBUG_VALUE: prvWriteMessageToBuffer:xSpace <- $r3
	@DEBUG_VALUE: prvWriteMessageToBuffer:pvTxData <- $r1
	@DEBUG_VALUE: prvWriteMessageToBuffer:xShouldWrite <- 1
	.loc	5 722 28 is_stmt 1              @ ../../../../../../kernel/freertos/Source/stream_buffer.c:722:28
	cmp	r4, r3
	blo	.LBB8_4
.Ltmp224:
@ %bb.3:
	@DEBUG_VALUE: prvWriteMessageToBuffer:xShouldWrite <- 1
	@DEBUG_VALUE: prvWriteMessageToBuffer:pxStreamBuffer <- $r5
	@DEBUG_VALUE: prvWriteMessageToBuffer:xDataLengthBytes <- [DW_OP_plus_uconst 8, DW_OP_deref] $sp
	@DEBUG_VALUE: prvWriteMessageToBuffer:xRequiredSpace <- [DW_OP_plus_uconst 32] [$sp+0]
	@DEBUG_VALUE: prvWriteMessageToBuffer:xSpace <- $r3
	@DEBUG_VALUE: prvWriteMessageToBuffer:pvTxData <- $r1
	.loc	5 0 28 is_stmt 0                @ ../../../../../../kernel/freertos/Source/stream_buffer.c:0:28
	mov	r4, r3
.Ltmp225:
	@DEBUG_VALUE: prvWriteMessageToBuffer:xSpace <- $r4
.LBB8_4:
	@DEBUG_VALUE: prvWriteMessageToBuffer:xShouldWrite <- 1
	@DEBUG_VALUE: prvWriteMessageToBuffer:pxStreamBuffer <- $r5
	@DEBUG_VALUE: prvWriteMessageToBuffer:xDataLengthBytes <- [DW_OP_plus_uconst 8, DW_OP_deref] $sp
	@DEBUG_VALUE: prvWriteMessageToBuffer:xRequiredSpace <- [DW_OP_plus_uconst 32] [$sp+0]
	@DEBUG_VALUE: prvWriteMessageToBuffer:pvTxData <- $r1
	@DEBUG_VALUE: prvWriteMessageToBuffer:xShouldWrite <- undef
	@DEBUG_VALUE: prvWriteBytesToBuffer:pxStreamBuffer <- $r5
	@DEBUG_VALUE: prvWriteBytesToBuffer:pucData <- $r1
	@DEBUG_VALUE: prvWriteBytesToBuffer:xCount <- $r4
	.loc	5 1138 5 is_stmt 1              @ ../../../../../../kernel/freertos/Source/stream_buffer.c:1138:5
	cmp	r4, #0
	beq	.LBB8_33
.Ltmp226:
.LBB8_5:
	@DEBUG_VALUE: prvWriteBytesToBuffer:xCount <- $r4
	@DEBUG_VALUE: prvWriteBytesToBuffer:pucData <- $r1
	@DEBUG_VALUE: prvWriteBytesToBuffer:pxStreamBuffer <- $r5
	@DEBUG_VALUE: prvWriteMessageToBuffer:pxStreamBuffer <- $r5
	@DEBUG_VALUE: prvWriteMessageToBuffer:xDataLengthBytes <- [DW_OP_plus_uconst 8, DW_OP_deref] $sp
	@DEBUG_VALUE: prvWriteMessageToBuffer:xRequiredSpace <- [DW_OP_plus_uconst 32] [$sp+0]
	@DEBUG_VALUE: prvWriteMessageToBuffer:pvTxData <- $r1
	.loc	5 0 5 is_stmt 0                 @ ../../../../../../kernel/freertos/Source/stream_buffer.c:0:5
	str	r1, [sp, #4]                    @ 4-byte Spill
.Ltmp227:
	@DEBUG_VALUE: prvWriteMessageToBuffer:pvTxData <- [DW_OP_plus_uconst 4] [$sp+0]
	.loc	5 1140 33 is_stmt 1             @ ../../../../../../kernel/freertos/Source/stream_buffer.c:1140:33
	ldr	r7, [r5, #4]
.Ltmp228:
	@DEBUG_VALUE: prvWriteBytesToBuffer:xNextHead <- $r7
	.loc	5 1145 20                       @ ../../../../../../kernel/freertos/Source/stream_buffer.c:1145:20
	ldr	r0, [r5, #8]
	subs	r6, r0, r7
	cmp	r6, r4
	mov	r2, r6
	blo	.LBB8_7
.Ltmp229:
@ %bb.6:
	@DEBUG_VALUE: prvWriteBytesToBuffer:xNextHead <- $r7
	@DEBUG_VALUE: prvWriteBytesToBuffer:xCount <- $r4
	@DEBUG_VALUE: prvWriteBytesToBuffer:pucData <- $r1
	@DEBUG_VALUE: prvWriteBytesToBuffer:pxStreamBuffer <- $r5
	@DEBUG_VALUE: prvWriteMessageToBuffer:pvTxData <- [DW_OP_plus_uconst 4] [$sp+0]
	@DEBUG_VALUE: prvWriteMessageToBuffer:pxStreamBuffer <- $r5
	@DEBUG_VALUE: prvWriteMessageToBuffer:xDataLengthBytes <- [DW_OP_plus_uconst 8, DW_OP_deref] $sp
	@DEBUG_VALUE: prvWriteMessageToBuffer:xRequiredSpace <- [DW_OP_plus_uconst 32] [$sp+0]
	.loc	5 0 20 is_stmt 0                @ ../../../../../../kernel/freertos/Source/stream_buffer.c:0:20
	mov	r2, r4
.Ltmp230:
.LBB8_7:
	@DEBUG_VALUE: prvWriteBytesToBuffer:xNextHead <- $r7
	@DEBUG_VALUE: prvWriteBytesToBuffer:xCount <- $r4
	@DEBUG_VALUE: prvWriteBytesToBuffer:pucData <- $r1
	@DEBUG_VALUE: prvWriteBytesToBuffer:pxStreamBuffer <- $r5
	@DEBUG_VALUE: prvWriteMessageToBuffer:pvTxData <- [DW_OP_plus_uconst 4] [$sp+0]
	@DEBUG_VALUE: prvWriteMessageToBuffer:pxStreamBuffer <- $r5
	@DEBUG_VALUE: prvWriteMessageToBuffer:xDataLengthBytes <- [DW_OP_plus_uconst 8, DW_OP_deref] $sp
	@DEBUG_VALUE: prvWriteMessageToBuffer:xRequiredSpace <- [DW_OP_plus_uconst 32] [$sp+0]
	@DEBUG_VALUE: prvWriteBytesToBuffer:xFirstLength <- $r2
	.loc	5 1148 5 is_stmt 1              @ ../../../../../../kernel/freertos/Source/stream_buffer.c:1148:5
	adds	r1, r2, r7
.Ltmp231:
	.loc	5 1148 5 is_stmt 0              @ ../../../../../../kernel/freertos/Source/stream_buffer.c:1148:5
	cmp	r1, r0
	bls	.LBB8_16
.Ltmp232:
@ %bb.8:
	@DEBUG_VALUE: prvWriteBytesToBuffer:xFirstLength <- $r2
	@DEBUG_VALUE: prvWriteBytesToBuffer:xNextHead <- $r7
	@DEBUG_VALUE: prvWriteBytesToBuffer:xCount <- $r4
	@DEBUG_VALUE: prvWriteBytesToBuffer:pxStreamBuffer <- $r5
	@DEBUG_VALUE: prvWriteMessageToBuffer:pvTxData <- [DW_OP_plus_uconst 4] [$sp+0]
	@DEBUG_VALUE: prvWriteMessageToBuffer:pxStreamBuffer <- $r5
	@DEBUG_VALUE: prvWriteMessageToBuffer:xDataLengthBytes <- [DW_OP_plus_uconst 8, DW_OP_deref] $sp
	@DEBUG_VALUE: prvWriteMessageToBuffer:xRequiredSpace <- [DW_OP_plus_uconst 32] [$sp+0]
	.loc	5 1148 5                        @ ../../../../../../kernel/freertos/Source/stream_buffer.c:1148:5
	@APP
	cpsid i
	@NO_APP
.Ltmp233:
.LBB8_9:                                @ =>This Inner Loop Header: Depth=1
	@DEBUG_VALUE: prvWriteBytesToBuffer:xFirstLength <- $r2
	@DEBUG_VALUE: prvWriteBytesToBuffer:xNextHead <- $r7
	@DEBUG_VALUE: prvWriteBytesToBuffer:xCount <- $r4
	@DEBUG_VALUE: prvWriteBytesToBuffer:pxStreamBuffer <- $r5
	@DEBUG_VALUE: prvWriteMessageToBuffer:pvTxData <- [DW_OP_plus_uconst 4] [$sp+0]
	@DEBUG_VALUE: prvWriteMessageToBuffer:pxStreamBuffer <- $r5
	@DEBUG_VALUE: prvWriteMessageToBuffer:xDataLengthBytes <- [DW_OP_plus_uconst 8, DW_OP_deref] $sp
	@DEBUG_VALUE: prvWriteMessageToBuffer:xRequiredSpace <- [DW_OP_plus_uconst 32] [$sp+0]
	.loc	5 1148 5                        @ ../../../../../../kernel/freertos/Source/stream_buffer.c:1148:5
	b	.LBB8_9
.Ltmp234:
.LBB8_10:
	@DEBUG_VALUE: prvWriteMessageToBuffer:pxStreamBuffer <- $r5
	@DEBUG_VALUE: prvWriteMessageToBuffer:xDataLengthBytes <- [DW_OP_plus_uconst 8, DW_OP_deref] $sp
	@DEBUG_VALUE: prvWriteMessageToBuffer:xRequiredSpace <- [DW_OP_plus_uconst 32] [$sp+0]
	@DEBUG_VALUE: prvWriteMessageToBuffer:xSpace <- $r3
	@DEBUG_VALUE: prvWriteMessageToBuffer:pvTxData <- $r1
	.loc	5 0 5                           @ ../../../../../../kernel/freertos/Source/stream_buffer.c:0:5
	ldr	r2, [sp, #32]
.Ltmp235:
	.loc	5 724 14 is_stmt 1              @ ../../../../../../kernel/freertos/Source/stream_buffer.c:724:14
	cmp	r3, r2
	blo	.LBB8_28
.Ltmp236:
@ %bb.11:
	@DEBUG_VALUE: prvWriteMessageToBuffer:pxStreamBuffer <- $r5
	@DEBUG_VALUE: prvWriteMessageToBuffer:xDataLengthBytes <- [DW_OP_plus_uconst 8, DW_OP_deref] $sp
	@DEBUG_VALUE: prvWriteMessageToBuffer:xRequiredSpace <- [DW_OP_plus_uconst 32] [$sp+0]
	@DEBUG_VALUE: prvWriteMessageToBuffer:xSpace <- $r3
	@DEBUG_VALUE: prvWriteMessageToBuffer:pvTxData <- $r1
	@DEBUG_VALUE: prvWriteMessageToBuffer:xShouldWrite <- 1
	@DEBUG_VALUE: prvWriteBytesToBuffer:pxStreamBuffer <- $r5
	@DEBUG_VALUE: prvWriteBytesToBuffer:pucData <- [DW_OP_plus_uconst 8, DW_OP_stack_value] $sp
	@DEBUG_VALUE: prvWriteBytesToBuffer:xCount <- 4
	.loc	5 0 14 is_stmt 0                @ ../../../../../../kernel/freertos/Source/stream_buffer.c:0:14
	str	r1, [sp, #4]                    @ 4-byte Spill
.Ltmp237:
	@DEBUG_VALUE: prvWriteMessageToBuffer:pvTxData <- [DW_OP_plus_uconst 4] [$sp+0]
	.loc	5 1140 33 is_stmt 1             @ ../../../../../../kernel/freertos/Source/stream_buffer.c:1140:33
	ldr	r7, [r5, #4]
.Ltmp238:
	@DEBUG_VALUE: prvWriteBytesToBuffer:xNextHead <- $r7
	.loc	5 1145 20                       @ ../../../../../../kernel/freertos/Source/stream_buffer.c:1145:20
	ldr	r0, [r5, #8]
	subs	r6, r0, r7
	cmp	r6, #4
	mov	r2, r6
	blo	.LBB8_13
.Ltmp239:
@ %bb.12:
	@DEBUG_VALUE: prvWriteBytesToBuffer:xNextHead <- $r7
	@DEBUG_VALUE: prvWriteMessageToBuffer:pvTxData <- [DW_OP_plus_uconst 4] [$sp+0]
	@DEBUG_VALUE: prvWriteBytesToBuffer:xCount <- 4
	@DEBUG_VALUE: prvWriteBytesToBuffer:pucData <- [DW_OP_plus_uconst 8, DW_OP_stack_value] $sp
	@DEBUG_VALUE: prvWriteBytesToBuffer:pxStreamBuffer <- $r5
	@DEBUG_VALUE: prvWriteMessageToBuffer:xShouldWrite <- 1
	@DEBUG_VALUE: prvWriteMessageToBuffer:pxStreamBuffer <- $r5
	@DEBUG_VALUE: prvWriteMessageToBuffer:xDataLengthBytes <- [DW_OP_plus_uconst 8, DW_OP_deref] $sp
	@DEBUG_VALUE: prvWriteMessageToBuffer:xRequiredSpace <- [DW_OP_plus_uconst 32] [$sp+0]
	@DEBUG_VALUE: prvWriteMessageToBuffer:xSpace <- $r3
	.loc	5 0 20 is_stmt 0                @ ../../../../../../kernel/freertos/Source/stream_buffer.c:0:20
	movs	r2, #4
.Ltmp240:
.LBB8_13:
	@DEBUG_VALUE: prvWriteBytesToBuffer:xNextHead <- $r7
	@DEBUG_VALUE: prvWriteMessageToBuffer:pvTxData <- [DW_OP_plus_uconst 4] [$sp+0]
	@DEBUG_VALUE: prvWriteBytesToBuffer:xCount <- 4
	@DEBUG_VALUE: prvWriteBytesToBuffer:pucData <- [DW_OP_plus_uconst 8, DW_OP_stack_value] $sp
	@DEBUG_VALUE: prvWriteBytesToBuffer:pxStreamBuffer <- $r5
	@DEBUG_VALUE: prvWriteMessageToBuffer:xShouldWrite <- 1
	@DEBUG_VALUE: prvWriteMessageToBuffer:pxStreamBuffer <- $r5
	@DEBUG_VALUE: prvWriteMessageToBuffer:xDataLengthBytes <- [DW_OP_plus_uconst 8, DW_OP_deref] $sp
	@DEBUG_VALUE: prvWriteMessageToBuffer:xRequiredSpace <- [DW_OP_plus_uconst 32] [$sp+0]
	@DEBUG_VALUE: prvWriteMessageToBuffer:xSpace <- $r3
	@DEBUG_VALUE: prvWriteBytesToBuffer:xFirstLength <- $r2
	.loc	5 1148 5 is_stmt 1              @ ../../../../../../kernel/freertos/Source/stream_buffer.c:1148:5
	adds	r1, r2, r7
.Ltmp241:
	.loc	5 1148 5 is_stmt 0              @ ../../../../../../kernel/freertos/Source/stream_buffer.c:1148:5
	cmp	r1, r0
	bls	.LBB8_20
.Ltmp242:
@ %bb.14:
	@DEBUG_VALUE: prvWriteBytesToBuffer:xFirstLength <- $r2
	@DEBUG_VALUE: prvWriteBytesToBuffer:xNextHead <- $r7
	@DEBUG_VALUE: prvWriteMessageToBuffer:pvTxData <- [DW_OP_plus_uconst 4] [$sp+0]
	@DEBUG_VALUE: prvWriteBytesToBuffer:xCount <- 4
	@DEBUG_VALUE: prvWriteBytesToBuffer:pucData <- [DW_OP_plus_uconst 8, DW_OP_stack_value] $sp
	@DEBUG_VALUE: prvWriteBytesToBuffer:pxStreamBuffer <- $r5
	@DEBUG_VALUE: prvWriteMessageToBuffer:xShouldWrite <- 1
	@DEBUG_VALUE: prvWriteMessageToBuffer:pxStreamBuffer <- $r5
	@DEBUG_VALUE: prvWriteMessageToBuffer:xDataLengthBytes <- [DW_OP_plus_uconst 8, DW_OP_deref] $sp
	@DEBUG_VALUE: prvWriteMessageToBuffer:xRequiredSpace <- [DW_OP_plus_uconst 32] [$sp+0]
	@DEBUG_VALUE: prvWriteMessageToBuffer:xSpace <- $r3
	.loc	5 1148 5                        @ ../../../../../../kernel/freertos/Source/stream_buffer.c:1148:5
	@APP
	cpsid i
	@NO_APP
.Ltmp243:
.LBB8_15:                               @ =>This Inner Loop Header: Depth=1
	@DEBUG_VALUE: prvWriteBytesToBuffer:xFirstLength <- $r2
	@DEBUG_VALUE: prvWriteBytesToBuffer:xNextHead <- $r7
	@DEBUG_VALUE: prvWriteMessageToBuffer:pvTxData <- [DW_OP_plus_uconst 4] [$sp+0]
	@DEBUG_VALUE: prvWriteBytesToBuffer:xCount <- 4
	@DEBUG_VALUE: prvWriteBytesToBuffer:pucData <- [DW_OP_plus_uconst 8, DW_OP_stack_value] $sp
	@DEBUG_VALUE: prvWriteBytesToBuffer:pxStreamBuffer <- $r5
	@DEBUG_VALUE: prvWriteMessageToBuffer:xShouldWrite <- 1
	@DEBUG_VALUE: prvWriteMessageToBuffer:pxStreamBuffer <- $r5
	@DEBUG_VALUE: prvWriteMessageToBuffer:xDataLengthBytes <- [DW_OP_plus_uconst 8, DW_OP_deref] $sp
	@DEBUG_VALUE: prvWriteMessageToBuffer:xRequiredSpace <- [DW_OP_plus_uconst 32] [$sp+0]
	@DEBUG_VALUE: prvWriteMessageToBuffer:xSpace <- $r3
	.loc	5 1148 5                        @ ../../../../../../kernel/freertos/Source/stream_buffer.c:1148:5
	b	.LBB8_15
.Ltmp244:
.LBB8_16:
	@DEBUG_VALUE: prvWriteBytesToBuffer:xFirstLength <- $r2
	@DEBUG_VALUE: prvWriteBytesToBuffer:xNextHead <- $r7
	@DEBUG_VALUE: prvWriteBytesToBuffer:xCount <- $r4
	@DEBUG_VALUE: prvWriteBytesToBuffer:pxStreamBuffer <- $r5
	@DEBUG_VALUE: prvWriteMessageToBuffer:pvTxData <- [DW_OP_plus_uconst 4] [$sp+0]
	@DEBUG_VALUE: prvWriteMessageToBuffer:pxStreamBuffer <- $r5
	@DEBUG_VALUE: prvWriteMessageToBuffer:xDataLengthBytes <- [DW_OP_plus_uconst 8, DW_OP_deref] $sp
	@DEBUG_VALUE: prvWriteMessageToBuffer:xRequiredSpace <- [DW_OP_plus_uconst 32] [$sp+0]
	.loc	5 1149 54 is_stmt 1             @ ../../../../../../kernel/freertos/Source/stream_buffer.c:1149:54
	ldr	r0, [r5, #24]
	.loc	5 1149 38 is_stmt 0             @ ../../../../../../kernel/freertos/Source/stream_buffer.c:1149:38
	adds	r0, r0, r7
	.loc	5 1149 14                       @ ../../../../../../kernel/freertos/Source/stream_buffer.c:1149:14
	ldr	r1, [sp, #4]                    @ 4-byte Reload
.Ltmp245:
	@DEBUG_VALUE: prvWriteMessageToBuffer:pvTxData <- $r1
	bl	__aeabi_memcpy
.Ltmp246:
	@DEBUG_VALUE: prvWriteMessageToBuffer:pvTxData <- [DW_OP_LLVM_entry_value 1] $r1
	.loc	5 1153 9 is_stmt 1              @ ../../../../../../kernel/freertos/Source/stream_buffer.c:1153:9
	cmp	r4, r6
	bls	.LBB8_25
.Ltmp247:
@ %bb.17:
	@DEBUG_VALUE: prvWriteMessageToBuffer:pvTxData <- [DW_OP_LLVM_entry_value 1] $r1
	@DEBUG_VALUE: prvWriteBytesToBuffer:xNextHead <- $r7
	@DEBUG_VALUE: prvWriteBytesToBuffer:xCount <- $r4
	@DEBUG_VALUE: prvWriteBytesToBuffer:pxStreamBuffer <- $r5
	@DEBUG_VALUE: prvWriteMessageToBuffer:pxStreamBuffer <- $r5
	@DEBUG_VALUE: prvWriteMessageToBuffer:xDataLengthBytes <- [DW_OP_plus_uconst 8, DW_OP_deref] $sp
	@DEBUG_VALUE: prvWriteMessageToBuffer:xRequiredSpace <- [DW_OP_plus_uconst 32] [$sp+0]
	.loc	5 1156 9                        @ ../../../../../../kernel/freertos/Source/stream_buffer.c:1156:9
	subs	r2, r4, r6
	ldr	r0, [r5, #8]
.Ltmp248:
	.loc	5 1156 9 is_stmt 0              @ ../../../../../../kernel/freertos/Source/stream_buffer.c:1156:9
	cmp	r2, r0
	bls	.LBB8_24
.Ltmp249:
@ %bb.18:
	@DEBUG_VALUE: prvWriteMessageToBuffer:pvTxData <- [DW_OP_LLVM_entry_value 1] $r1
	@DEBUG_VALUE: prvWriteBytesToBuffer:xNextHead <- $r7
	@DEBUG_VALUE: prvWriteBytesToBuffer:xCount <- $r4
	@DEBUG_VALUE: prvWriteBytesToBuffer:pxStreamBuffer <- $r5
	@DEBUG_VALUE: prvWriteMessageToBuffer:pxStreamBuffer <- $r5
	@DEBUG_VALUE: prvWriteMessageToBuffer:xDataLengthBytes <- [DW_OP_plus_uconst 8, DW_OP_deref] $sp
	@DEBUG_VALUE: prvWriteMessageToBuffer:xRequiredSpace <- [DW_OP_plus_uconst 32] [$sp+0]
	.loc	5 1156 9                        @ ../../../../../../kernel/freertos/Source/stream_buffer.c:1156:9
	@APP
	cpsid i
	@NO_APP
.Ltmp250:
.LBB8_19:                               @ =>This Inner Loop Header: Depth=1
	@DEBUG_VALUE: prvWriteMessageToBuffer:pvTxData <- [DW_OP_LLVM_entry_value 1] $r1
	@DEBUG_VALUE: prvWriteBytesToBuffer:xNextHead <- $r7
	@DEBUG_VALUE: prvWriteBytesToBuffer:xCount <- $r4
	@DEBUG_VALUE: prvWriteBytesToBuffer:pxStreamBuffer <- $r5
	@DEBUG_VALUE: prvWriteMessageToBuffer:pxStreamBuffer <- $r5
	@DEBUG_VALUE: prvWriteMessageToBuffer:xDataLengthBytes <- [DW_OP_plus_uconst 8, DW_OP_deref] $sp
	@DEBUG_VALUE: prvWriteMessageToBuffer:xRequiredSpace <- [DW_OP_plus_uconst 32] [$sp+0]
	.loc	5 1156 9                        @ ../../../../../../kernel/freertos/Source/stream_buffer.c:1156:9
	b	.LBB8_19
.Ltmp251:
.LBB8_20:
	@DEBUG_VALUE: prvWriteBytesToBuffer:xFirstLength <- $r2
	@DEBUG_VALUE: prvWriteBytesToBuffer:xNextHead <- $r7
	@DEBUG_VALUE: prvWriteMessageToBuffer:pvTxData <- [DW_OP_plus_uconst 4] [$sp+0]
	@DEBUG_VALUE: prvWriteBytesToBuffer:xCount <- 4
	@DEBUG_VALUE: prvWriteBytesToBuffer:pucData <- [DW_OP_plus_uconst 8, DW_OP_stack_value] $sp
	@DEBUG_VALUE: prvWriteBytesToBuffer:pxStreamBuffer <- $r5
	@DEBUG_VALUE: prvWriteMessageToBuffer:xShouldWrite <- 1
	@DEBUG_VALUE: prvWriteMessageToBuffer:pxStreamBuffer <- $r5
	@DEBUG_VALUE: prvWriteMessageToBuffer:xDataLengthBytes <- [DW_OP_plus_uconst 8, DW_OP_deref] $sp
	@DEBUG_VALUE: prvWriteMessageToBuffer:xRequiredSpace <- [DW_OP_plus_uconst 32] [$sp+0]
	@DEBUG_VALUE: prvWriteMessageToBuffer:xSpace <- $r3
	.loc	5 1149 54 is_stmt 1             @ ../../../../../../kernel/freertos/Source/stream_buffer.c:1149:54
	ldr	r0, [r5, #24]
	.loc	5 1149 38 is_stmt 0             @ ../../../../../../kernel/freertos/Source/stream_buffer.c:1149:38
	adds	r0, r0, r7
	add	r1, sp, #8
	.loc	5 1149 14                       @ ../../../../../../kernel/freertos/Source/stream_buffer.c:1149:14
	bl	__aeabi_memcpy
.Ltmp252:
	@DEBUG_VALUE: prvWriteMessageToBuffer:xSpace <- [DW_OP_LLVM_entry_value 1] $r3
	.loc	5 1153 9 is_stmt 1              @ ../../../../../../kernel/freertos/Source/stream_buffer.c:1153:9
	cmp	r6, #3
	bhi	.LBB8_30
.Ltmp253:
@ %bb.21:
	@DEBUG_VALUE: prvWriteMessageToBuffer:xSpace <- [DW_OP_LLVM_entry_value 1] $r3
	@DEBUG_VALUE: prvWriteBytesToBuffer:xNextHead <- $r7
	@DEBUG_VALUE: prvWriteMessageToBuffer:pvTxData <- [DW_OP_plus_uconst 4] [$sp+0]
	@DEBUG_VALUE: prvWriteBytesToBuffer:xCount <- 4
	@DEBUG_VALUE: prvWriteBytesToBuffer:pucData <- [DW_OP_plus_uconst 8, DW_OP_stack_value] $sp
	@DEBUG_VALUE: prvWriteBytesToBuffer:pxStreamBuffer <- $r5
	@DEBUG_VALUE: prvWriteMessageToBuffer:xShouldWrite <- 1
	@DEBUG_VALUE: prvWriteMessageToBuffer:pxStreamBuffer <- $r5
	@DEBUG_VALUE: prvWriteMessageToBuffer:xDataLengthBytes <- [DW_OP_plus_uconst 8, DW_OP_deref] $sp
	@DEBUG_VALUE: prvWriteMessageToBuffer:xRequiredSpace <- [DW_OP_plus_uconst 32] [$sp+0]
	.loc	5 0 9 is_stmt 0                 @ ../../../../../../kernel/freertos/Source/stream_buffer.c:0:9
	movs	r0, #4
.Ltmp254:
	.loc	5 1156 9 is_stmt 1              @ ../../../../../../kernel/freertos/Source/stream_buffer.c:1156:9
	subs	r2, r0, r6
	ldr	r0, [r5, #8]
.Ltmp255:
	.loc	5 1156 9 is_stmt 0              @ ../../../../../../kernel/freertos/Source/stream_buffer.c:1156:9
	cmp	r2, r0
	bls	.LBB8_29
.Ltmp256:
@ %bb.22:
	@DEBUG_VALUE: prvWriteMessageToBuffer:xSpace <- [DW_OP_LLVM_entry_value 1] $r3
	@DEBUG_VALUE: prvWriteBytesToBuffer:xNextHead <- $r7
	@DEBUG_VALUE: prvWriteMessageToBuffer:pvTxData <- [DW_OP_plus_uconst 4] [$sp+0]
	@DEBUG_VALUE: prvWriteBytesToBuffer:xCount <- 4
	@DEBUG_VALUE: prvWriteBytesToBuffer:pucData <- [DW_OP_plus_uconst 8, DW_OP_stack_value] $sp
	@DEBUG_VALUE: prvWriteBytesToBuffer:pxStreamBuffer <- $r5
	@DEBUG_VALUE: prvWriteMessageToBuffer:xShouldWrite <- 1
	@DEBUG_VALUE: prvWriteMessageToBuffer:pxStreamBuffer <- $r5
	@DEBUG_VALUE: prvWriteMessageToBuffer:xDataLengthBytes <- [DW_OP_plus_uconst 8, DW_OP_deref] $sp
	@DEBUG_VALUE: prvWriteMessageToBuffer:xRequiredSpace <- [DW_OP_plus_uconst 32] [$sp+0]
	.loc	5 1156 9                        @ ../../../../../../kernel/freertos/Source/stream_buffer.c:1156:9
	@APP
	cpsid i
	@NO_APP
.Ltmp257:
.LBB8_23:                               @ =>This Inner Loop Header: Depth=1
	@DEBUG_VALUE: prvWriteMessageToBuffer:xSpace <- [DW_OP_LLVM_entry_value 1] $r3
	@DEBUG_VALUE: prvWriteBytesToBuffer:xNextHead <- $r7
	@DEBUG_VALUE: prvWriteMessageToBuffer:pvTxData <- [DW_OP_plus_uconst 4] [$sp+0]
	@DEBUG_VALUE: prvWriteBytesToBuffer:xCount <- 4
	@DEBUG_VALUE: prvWriteBytesToBuffer:pucData <- [DW_OP_plus_uconst 8, DW_OP_stack_value] $sp
	@DEBUG_VALUE: prvWriteBytesToBuffer:pxStreamBuffer <- $r5
	@DEBUG_VALUE: prvWriteMessageToBuffer:xShouldWrite <- 1
	@DEBUG_VALUE: prvWriteMessageToBuffer:pxStreamBuffer <- $r5
	@DEBUG_VALUE: prvWriteMessageToBuffer:xDataLengthBytes <- [DW_OP_plus_uconst 8, DW_OP_deref] $sp
	@DEBUG_VALUE: prvWriteMessageToBuffer:xRequiredSpace <- [DW_OP_plus_uconst 32] [$sp+0]
	.loc	5 1156 9                        @ ../../../../../../kernel/freertos/Source/stream_buffer.c:1156:9
	b	.LBB8_23
.Ltmp258:
.LBB8_24:
	@DEBUG_VALUE: prvWriteMessageToBuffer:pvTxData <- [DW_OP_LLVM_entry_value 1] $r1
	@DEBUG_VALUE: prvWriteBytesToBuffer:xNextHead <- $r7
	@DEBUG_VALUE: prvWriteBytesToBuffer:xCount <- $r4
	@DEBUG_VALUE: prvWriteBytesToBuffer:pxStreamBuffer <- $r5
	@DEBUG_VALUE: prvWriteMessageToBuffer:pxStreamBuffer <- $r5
	@DEBUG_VALUE: prvWriteMessageToBuffer:xDataLengthBytes <- [DW_OP_plus_uconst 8, DW_OP_deref] $sp
	@DEBUG_VALUE: prvWriteMessageToBuffer:xRequiredSpace <- [DW_OP_plus_uconst 32] [$sp+0]
	.loc	5 1157 84 is_stmt 1             @ ../../../../../../kernel/freertos/Source/stream_buffer.c:1157:84
	ldr	r0, [sp, #4]                    @ 4-byte Reload
	adds	r1, r0, r6
	.loc	5 1157 53 is_stmt 0             @ ../../../../../../kernel/freertos/Source/stream_buffer.c:1157:53
	ldr	r0, [r5, #24]
	.loc	5 1157 18                       @ ../../../../../../kernel/freertos/Source/stream_buffer.c:1157:18
	bl	__aeabi_memcpy
.Ltmp259:
.LBB8_25:
	@DEBUG_VALUE: prvWriteMessageToBuffer:pvTxData <- [DW_OP_LLVM_entry_value 1] $r1
	@DEBUG_VALUE: prvWriteBytesToBuffer:xNextHead <- $r7
	@DEBUG_VALUE: prvWriteBytesToBuffer:xCount <- $r4
	@DEBUG_VALUE: prvWriteBytesToBuffer:pxStreamBuffer <- $r5
	@DEBUG_VALUE: prvWriteMessageToBuffer:pxStreamBuffer <- $r5
	@DEBUG_VALUE: prvWriteMessageToBuffer:xDataLengthBytes <- [DW_OP_plus_uconst 8, DW_OP_deref] $sp
	@DEBUG_VALUE: prvWriteMessageToBuffer:xRequiredSpace <- [DW_OP_plus_uconst 32] [$sp+0]
	.loc	5 1164 15 is_stmt 1             @ ../../../../../../kernel/freertos/Source/stream_buffer.c:1164:15
	adds	r0, r7, r4
.Ltmp260:
	@DEBUG_VALUE: prvWriteBytesToBuffer:xNextHead <- $r0
	.loc	5 1166 38                       @ ../../../../../../kernel/freertos/Source/stream_buffer.c:1166:38
	ldr	r1, [r5, #8]
.Ltmp261:
	.loc	5 1166 9 is_stmt 0              @ ../../../../../../kernel/freertos/Source/stream_buffer.c:1166:9
	subs	r1, r0, r1
	blo	.LBB8_27
.Ltmp262:
@ %bb.26:
	@DEBUG_VALUE: prvWriteBytesToBuffer:xNextHead <- $r0
	@DEBUG_VALUE: prvWriteMessageToBuffer:pvTxData <- [DW_OP_LLVM_entry_value 1] $r1
	@DEBUG_VALUE: prvWriteBytesToBuffer:xCount <- $r4
	@DEBUG_VALUE: prvWriteBytesToBuffer:pxStreamBuffer <- $r5
	@DEBUG_VALUE: prvWriteMessageToBuffer:pxStreamBuffer <- $r5
	@DEBUG_VALUE: prvWriteMessageToBuffer:xDataLengthBytes <- [DW_OP_plus_uconst 8, DW_OP_deref] $sp
	@DEBUG_VALUE: prvWriteMessageToBuffer:xRequiredSpace <- [DW_OP_plus_uconst 32] [$sp+0]
	.loc	5 0 9                           @ ../../../../../../kernel/freertos/Source/stream_buffer.c:0:9
	mov	r0, r1
.Ltmp263:
.LBB8_27:
	@DEBUG_VALUE: prvWriteMessageToBuffer:pvTxData <- [DW_OP_LLVM_entry_value 1] $r1
	@DEBUG_VALUE: prvWriteBytesToBuffer:xCount <- $r4
	@DEBUG_VALUE: prvWriteBytesToBuffer:pxStreamBuffer <- $r5
	@DEBUG_VALUE: prvWriteMessageToBuffer:pxStreamBuffer <- $r5
	@DEBUG_VALUE: prvWriteMessageToBuffer:xDataLengthBytes <- [DW_OP_plus_uconst 8, DW_OP_deref] $sp
	@DEBUG_VALUE: prvWriteMessageToBuffer:xRequiredSpace <- [DW_OP_plus_uconst 32] [$sp+0]
	@DEBUG_VALUE: prvWriteBytesToBuffer:xNextHead <- $r0
	.loc	5 1175 27 is_stmt 1             @ ../../../../../../kernel/freertos/Source/stream_buffer.c:1175:27
	str	r0, [r5, #4]
.Ltmp264:
	@DEBUG_VALUE: prvWriteMessageToBuffer:xReturn <- $r4
	.loc	5 0 27 is_stmt 0                @ ../../../../../../kernel/freertos/Source/stream_buffer.c:0:27
	mov	r0, r4
.Ltmp265:
	@DEBUG_VALUE: prvWriteMessageToBuffer:xReturn <- $r0
.LBB8_28:
	@DEBUG_VALUE: prvWriteMessageToBuffer:pxStreamBuffer <- $r5
	@DEBUG_VALUE: prvWriteMessageToBuffer:xDataLengthBytes <- [DW_OP_plus_uconst 8, DW_OP_deref] $sp
	@DEBUG_VALUE: prvWriteMessageToBuffer:xRequiredSpace <- [DW_OP_plus_uconst 32] [$sp+0]
	@DEBUG_VALUE: prvWriteMessageToBuffer:xReturn <- $r0
	.loc	5 749 5 epilogue_begin is_stmt 1 @ ../../../../../../kernel/freertos/Source/stream_buffer.c:749:5
	add	sp, #12
	pop	{r4, r5, r6, r7, pc}
.Ltmp266:
.LBB8_29:
	@DEBUG_VALUE: prvWriteMessageToBuffer:xSpace <- [DW_OP_LLVM_entry_value 1] $r3
	@DEBUG_VALUE: prvWriteBytesToBuffer:xNextHead <- $r7
	@DEBUG_VALUE: prvWriteMessageToBuffer:pvTxData <- [DW_OP_plus_uconst 4] [$sp+0]
	@DEBUG_VALUE: prvWriteBytesToBuffer:xCount <- 4
	@DEBUG_VALUE: prvWriteBytesToBuffer:pucData <- [DW_OP_plus_uconst 8, DW_OP_stack_value] $sp
	@DEBUG_VALUE: prvWriteBytesToBuffer:pxStreamBuffer <- $r5
	@DEBUG_VALUE: prvWriteMessageToBuffer:xShouldWrite <- 1
	@DEBUG_VALUE: prvWriteMessageToBuffer:pxStreamBuffer <- $r5
	@DEBUG_VALUE: prvWriteMessageToBuffer:xDataLengthBytes <- [DW_OP_plus_uconst 8, DW_OP_deref] $sp
	@DEBUG_VALUE: prvWriteMessageToBuffer:xRequiredSpace <- [DW_OP_plus_uconst 32] [$sp+0]
	.loc	5 0 5 is_stmt 0                 @ ../../../../../../kernel/freertos/Source/stream_buffer.c:0:5
	add	r0, sp, #8
.Ltmp267:
	.loc	5 1157 84 is_stmt 1             @ ../../../../../../kernel/freertos/Source/stream_buffer.c:1157:84
	adds	r1, r0, r6
	.loc	5 1157 53 is_stmt 0             @ ../../../../../../kernel/freertos/Source/stream_buffer.c:1157:53
	ldr	r0, [r5, #24]
	.loc	5 1157 18                       @ ../../../../../../kernel/freertos/Source/stream_buffer.c:1157:18
	bl	__aeabi_memcpy
.Ltmp268:
.LBB8_30:
	@DEBUG_VALUE: prvWriteMessageToBuffer:xSpace <- [DW_OP_LLVM_entry_value 1] $r3
	@DEBUG_VALUE: prvWriteBytesToBuffer:xNextHead <- $r7
	@DEBUG_VALUE: prvWriteMessageToBuffer:pvTxData <- [DW_OP_plus_uconst 4] [$sp+0]
	@DEBUG_VALUE: prvWriteBytesToBuffer:xCount <- 4
	@DEBUG_VALUE: prvWriteBytesToBuffer:pucData <- [DW_OP_plus_uconst 8, DW_OP_stack_value] $sp
	@DEBUG_VALUE: prvWriteBytesToBuffer:pxStreamBuffer <- $r5
	@DEBUG_VALUE: prvWriteMessageToBuffer:xShouldWrite <- 1
	@DEBUG_VALUE: prvWriteMessageToBuffer:pxStreamBuffer <- $r5
	@DEBUG_VALUE: prvWriteMessageToBuffer:xDataLengthBytes <- [DW_OP_plus_uconst 8, DW_OP_deref] $sp
	@DEBUG_VALUE: prvWriteMessageToBuffer:xRequiredSpace <- [DW_OP_plus_uconst 32] [$sp+0]
	.loc	5 1166 38 is_stmt 1             @ ../../../../../../kernel/freertos/Source/stream_buffer.c:1166:38
	ldr	r1, [r5, #8]
.Ltmp269:
	.loc	5 1164 15                       @ ../../../../../../kernel/freertos/Source/stream_buffer.c:1164:15
	adds	r0, r7, #4
.Ltmp270:
	@DEBUG_VALUE: prvWriteBytesToBuffer:xNextHead <- $r0
	.loc	5 1166 9                        @ ../../../../../../kernel/freertos/Source/stream_buffer.c:1166:9
	subs	r1, r0, r1
	blo	.LBB8_32
.Ltmp271:
@ %bb.31:
	@DEBUG_VALUE: prvWriteBytesToBuffer:xNextHead <- $r0
	@DEBUG_VALUE: prvWriteMessageToBuffer:xSpace <- [DW_OP_LLVM_entry_value 1] $r3
	@DEBUG_VALUE: prvWriteMessageToBuffer:pvTxData <- [DW_OP_plus_uconst 4] [$sp+0]
	@DEBUG_VALUE: prvWriteBytesToBuffer:xCount <- 4
	@DEBUG_VALUE: prvWriteBytesToBuffer:pucData <- [DW_OP_plus_uconst 8, DW_OP_stack_value] $sp
	@DEBUG_VALUE: prvWriteBytesToBuffer:pxStreamBuffer <- $r5
	@DEBUG_VALUE: prvWriteMessageToBuffer:xShouldWrite <- 1
	@DEBUG_VALUE: prvWriteMessageToBuffer:pxStreamBuffer <- $r5
	@DEBUG_VALUE: prvWriteMessageToBuffer:xDataLengthBytes <- [DW_OP_plus_uconst 8, DW_OP_deref] $sp
	@DEBUG_VALUE: prvWriteMessageToBuffer:xRequiredSpace <- [DW_OP_plus_uconst 32] [$sp+0]
	.loc	5 0 9 is_stmt 0                 @ ../../../../../../kernel/freertos/Source/stream_buffer.c:0:9
	mov	r0, r1
.Ltmp272:
.LBB8_32:
	@DEBUG_VALUE: prvWriteMessageToBuffer:xSpace <- [DW_OP_LLVM_entry_value 1] $r3
	@DEBUG_VALUE: prvWriteMessageToBuffer:pvTxData <- [DW_OP_plus_uconst 4] [$sp+0]
	@DEBUG_VALUE: prvWriteBytesToBuffer:xCount <- 4
	@DEBUG_VALUE: prvWriteBytesToBuffer:pucData <- [DW_OP_plus_uconst 8, DW_OP_stack_value] $sp
	@DEBUG_VALUE: prvWriteBytesToBuffer:pxStreamBuffer <- $r5
	@DEBUG_VALUE: prvWriteMessageToBuffer:xShouldWrite <- 1
	@DEBUG_VALUE: prvWriteMessageToBuffer:pxStreamBuffer <- $r5
	@DEBUG_VALUE: prvWriteMessageToBuffer:xDataLengthBytes <- [DW_OP_plus_uconst 8, DW_OP_deref] $sp
	@DEBUG_VALUE: prvWriteMessageToBuffer:xRequiredSpace <- [DW_OP_plus_uconst 32] [$sp+0]
	@DEBUG_VALUE: prvWriteBytesToBuffer:xNextHead <- $r0
	.loc	5 1175 27 is_stmt 1             @ ../../../../../../kernel/freertos/Source/stream_buffer.c:1175:27
	str	r0, [r5, #4]
	ldr	r1, [sp, #4]                    @ 4-byte Reload
.Ltmp273:
	@DEBUG_VALUE: prvWriteMessageToBuffer:pvTxData <- $r1
	@DEBUG_VALUE: prvWriteMessageToBuffer:xShouldWrite <- undef
	@DEBUG_VALUE: prvWriteBytesToBuffer:pxStreamBuffer <- $r5
	@DEBUG_VALUE: prvWriteBytesToBuffer:pucData <- $r1
	@DEBUG_VALUE: prvWriteBytesToBuffer:xCount <- $r4
	.loc	5 1138 5                        @ ../../../../../../kernel/freertos/Source/stream_buffer.c:1138:5
	cmp	r4, #0
	bne	.LBB8_5
.Ltmp274:
.LBB8_33:
	@DEBUG_VALUE: prvWriteBytesToBuffer:xCount <- $r4
	@DEBUG_VALUE: prvWriteBytesToBuffer:pucData <- $r1
	@DEBUG_VALUE: prvWriteBytesToBuffer:pxStreamBuffer <- $r5
	@DEBUG_VALUE: prvWriteMessageToBuffer:pxStreamBuffer <- $r5
	@DEBUG_VALUE: prvWriteMessageToBuffer:xDataLengthBytes <- [DW_OP_plus_uconst 8, DW_OP_deref] $sp
	@DEBUG_VALUE: prvWriteMessageToBuffer:xRequiredSpace <- [DW_OP_plus_uconst 32] [$sp+0]
	@DEBUG_VALUE: prvWriteMessageToBuffer:pvTxData <- $r1
	.loc	5 1138 5 is_stmt 0              @ ../../../../../../kernel/freertos/Source/stream_buffer.c:1138:5
	@APP
	cpsid i
	@NO_APP
.Ltmp275:
.LBB8_34:                               @ =>This Inner Loop Header: Depth=1
	@DEBUG_VALUE: prvWriteBytesToBuffer:xCount <- $r4
	@DEBUG_VALUE: prvWriteBytesToBuffer:pucData <- $r1
	@DEBUG_VALUE: prvWriteBytesToBuffer:pxStreamBuffer <- $r5
	@DEBUG_VALUE: prvWriteMessageToBuffer:pxStreamBuffer <- $r5
	@DEBUG_VALUE: prvWriteMessageToBuffer:xDataLengthBytes <- [DW_OP_plus_uconst 8, DW_OP_deref] $sp
	@DEBUG_VALUE: prvWriteMessageToBuffer:xRequiredSpace <- [DW_OP_plus_uconst 32] [$sp+0]
	@DEBUG_VALUE: prvWriteMessageToBuffer:pvTxData <- $r1
	.loc	5 1138 5                        @ ../../../../../../kernel/freertos/Source/stream_buffer.c:1138:5
	b	.LBB8_34
.Ltmp276:
.Lfunc_end8:
	.size	prvWriteMessageToBuffer, .Lfunc_end8-prvWriteMessageToBuffer
	.cfi_endproc
	.cantunwind
	.fnend
                                        @ -- End function
	.section	.text.xStreamBufferSendFromISR,"ax",%progbits
	.hidden	xStreamBufferSendFromISR        @ -- Begin function xStreamBufferSendFromISR
	.globl	xStreamBufferSendFromISR
	.p2align	1
	.type	xStreamBufferSendFromISR,%function
	.code	16                              @ @xStreamBufferSendFromISR
	.thumb_func
xStreamBufferSendFromISR:
.Lfunc_begin9:
	.loc	5 654 0 is_stmt 1               @ ../../../../../../kernel/freertos/Source/stream_buffer.c:654:0
	.fnstart
	.cfi_startproc
@ %bb.0:
	@DEBUG_VALUE: xStreamBufferSendFromISR:xStreamBuffer <- $r0
	@DEBUG_VALUE: xStreamBufferSendFromISR:pvTxData <- $r1
	@DEBUG_VALUE: xStreamBufferSendFromISR:xDataLengthBytes <- $r2
	@DEBUG_VALUE: xStreamBufferSendFromISR:pxHigherPriorityTaskWoken <- $r3
	@DEBUG_VALUE: xStreamBufferSendFromISR:pxHigherPriorityTaskWoken <- $r3
	@DEBUG_VALUE: xStreamBufferSendFromISR:xStreamBuffer <- $r0
	.save	{r4, r5, r6, r7, lr}
	push	{r4, r5, r6, r7, lr}
	.cfi_def_cfa_offset 20
	.cfi_offset lr, -4
	.cfi_offset r7, -8
	.cfi_offset r6, -12
	.cfi_offset r5, -16
	.cfi_offset r4, -20
	.pad	#12
	sub	sp, #12
	.cfi_def_cfa_offset 32
.Ltmp277:
	@DEBUG_VALUE: xStreamBufferSendFromISR:pxStreamBuffer <- $r0
	@DEBUG_VALUE: xStreamBufferSendFromISR:xRequiredSpace <- $r2
	@DEBUG_VALUE: xStreamBufferSendFromISR:pxStreamBuffer <- $r0
	.loc	5 659 5 prologue_end            @ ../../../../../../kernel/freertos/Source/stream_buffer.c:659:5
	cmp	r1, #0
	beq	.LBB9_12
.Ltmp278:
@ %bb.1:
	@DEBUG_VALUE: xStreamBufferSendFromISR:xRequiredSpace <- $r2
	@DEBUG_VALUE: xStreamBufferSendFromISR:pxStreamBuffer <- $r0
	@DEBUG_VALUE: xStreamBufferSendFromISR:pxHigherPriorityTaskWoken <- $r3
	@DEBUG_VALUE: xStreamBufferSendFromISR:xDataLengthBytes <- $r2
	@DEBUG_VALUE: xStreamBufferSendFromISR:pvTxData <- $r1
	@DEBUG_VALUE: xStreamBufferSendFromISR:xStreamBuffer <- $r0
	@DEBUG_VALUE: xStreamBufferSendFromISR:pxHigherPriorityTaskWoken <- $r3
	.loc	5 0 5 is_stmt 0                 @ ../../../../../../kernel/freertos/Source/stream_buffer.c:0:5
	mov	r4, r0
.Ltmp279:
	@DEBUG_VALUE: xStreamBufferSendFromISR:xStreamBuffer <- $r4
	@DEBUG_VALUE: xStreamBufferSendFromISR:pxStreamBuffer <- $r4
	.loc	5 660 5 is_stmt 1               @ ../../../../../../kernel/freertos/Source/stream_buffer.c:660:5
	cmp	r0, #0
	beq	.LBB9_14
.Ltmp280:
@ %bb.2:
	@DEBUG_VALUE: xStreamBufferSendFromISR:pxStreamBuffer <- $r4
	@DEBUG_VALUE: xStreamBufferSendFromISR:xStreamBuffer <- $r4
	@DEBUG_VALUE: xStreamBufferSendFromISR:xRequiredSpace <- $r2
	@DEBUG_VALUE: xStreamBufferSendFromISR:pxHigherPriorityTaskWoken <- $r3
	@DEBUG_VALUE: xStreamBufferSendFromISR:xDataLengthBytes <- $r2
	@DEBUG_VALUE: xStreamBufferSendFromISR:pvTxData <- $r1
	.loc	5 0 5 is_stmt 0                 @ ../../../../../../kernel/freertos/Source/stream_buffer.c:0:5
	mov	r5, r3
.Ltmp281:
	@DEBUG_VALUE: xStreamBufferSendFromISR:pxHigherPriorityTaskWoken <- $r5
	.loc	5 666 27 is_stmt 1              @ ../../../../../../kernel/freertos/Source/stream_buffer.c:666:27
	ldrb	r0, [r4, #28]
.Ltmp282:
	.loc	5 666 9 is_stmt 0               @ ../../../../../../kernel/freertos/Source/stream_buffer.c:666:9
	lsls	r0, r0, #31
	lsrs	r0, r0, #29
	adds	r0, r0, r2
.Ltmp283:
	@DEBUG_VALUE: xStreamBufferSendFromISR:xRequiredSpace <- $r0
	.loc	5 490 56 is_stmt 1              @ ../../../../../../kernel/freertos/Source/stream_buffer.c:490:56
	ldr	r3, [r4]
	.loc	5 491 31                        @ ../../../../../../kernel/freertos/Source/stream_buffer.c:491:31
	ldr	r6, [r4, #4]
.Ltmp284:
	@DEBUG_VALUE: xStreamBufferSpacesAvailable:pxStreamBuffer <- $r4
	@DEBUG_VALUE: xStreamBufferSpacesAvailable:xStreamBuffer <- $r4
	.loc	5 490 30                        @ ../../../../../../kernel/freertos/Source/stream_buffer.c:490:30
	ldr	r7, [r4, #8]
.Ltmp285:
	.loc	5 676 15                        @ ../../../../../../kernel/freertos/Source/stream_buffer.c:676:15
	str	r0, [sp]
.Ltmp286:
	.loc	5 490 38                        @ ../../../../../../kernel/freertos/Source/stream_buffer.c:490:38
	adds	r0, r3, r7
.Ltmp287:
	@DEBUG_VALUE: xStreamBufferSpacesAvailable:xSpace <- [DW_OP_LLVM_arg 0, DW_OP_LLVM_arg 1, DW_OP_minus, DW_OP_stack_value] $r0, $r6
	.loc	5 492 12                        @ ../../../../../../kernel/freertos/Source/stream_buffer.c:492:12
	mvns	r3, r6
	adds	r3, r0, r3
.Ltmp288:
	@DEBUG_VALUE: xStreamBufferSpacesAvailable:xSpace <- $r3
	.loc	5 494 9                         @ ../../../../../../kernel/freertos/Source/stream_buffer.c:494:9
	subs	r0, r3, r7
	blo	.LBB9_4
.Ltmp289:
@ %bb.3:
	@DEBUG_VALUE: xStreamBufferSpacesAvailable:xSpace <- $r3
	@DEBUG_VALUE: xStreamBufferSpacesAvailable:xStreamBuffer <- $r4
	@DEBUG_VALUE: xStreamBufferSpacesAvailable:pxStreamBuffer <- $r4
	@DEBUG_VALUE: xStreamBufferSendFromISR:pxHigherPriorityTaskWoken <- $r5
	@DEBUG_VALUE: xStreamBufferSendFromISR:pxStreamBuffer <- $r4
	@DEBUG_VALUE: xStreamBufferSendFromISR:xStreamBuffer <- $r4
	@DEBUG_VALUE: xStreamBufferSendFromISR:xDataLengthBytes <- $r2
	@DEBUG_VALUE: xStreamBufferSendFromISR:pvTxData <- $r1
	.loc	5 0 9 is_stmt 0                 @ ../../../../../../kernel/freertos/Source/stream_buffer.c:0:9
	mov	r3, r0
.Ltmp290:
.LBB9_4:
	@DEBUG_VALUE: xStreamBufferSendFromISR:pxHigherPriorityTaskWoken <- $r5
	@DEBUG_VALUE: xStreamBufferSendFromISR:pxStreamBuffer <- $r4
	@DEBUG_VALUE: xStreamBufferSendFromISR:xStreamBuffer <- $r4
	@DEBUG_VALUE: xStreamBufferSendFromISR:xDataLengthBytes <- $r2
	@DEBUG_VALUE: xStreamBufferSendFromISR:pvTxData <- $r1
	@DEBUG_VALUE: xStreamBufferSpacesAvailable:xSpace <- $r3
	@DEBUG_VALUE: xStreamBufferSendFromISR:xSpace <- $r3
	.loc	5 676 15 is_stmt 1              @ ../../../../../../kernel/freertos/Source/stream_buffer.c:676:15
	mov	r0, r4
	bl	prvWriteMessageToBuffer
.Ltmp291:
	@DEBUG_VALUE: xStreamBufferSendFromISR:xDataLengthBytes <- [DW_OP_LLVM_entry_value 1] $r2
	@DEBUG_VALUE: xStreamBufferSendFromISR:pvTxData <- [DW_OP_LLVM_entry_value 1] $r1
	mov	r6, r0
.Ltmp292:
	@DEBUG_VALUE: xStreamBufferSendFromISR:xReturn <- $r6
	.loc	5 678 9                         @ ../../../../../../kernel/freertos/Source/stream_buffer.c:678:9
	cmp	r0, #0
	beq	.LBB9_11
.Ltmp293:
@ %bb.5:
	@DEBUG_VALUE: xStreamBufferSendFromISR:xReturn <- $r6
	@DEBUG_VALUE: xStreamBufferSendFromISR:xDataLengthBytes <- [DW_OP_LLVM_entry_value 1] $r2
	@DEBUG_VALUE: xStreamBufferSendFromISR:pvTxData <- [DW_OP_LLVM_entry_value 1] $r1
	@DEBUG_VALUE: xStreamBufferSendFromISR:pxHigherPriorityTaskWoken <- $r5
	@DEBUG_VALUE: xStreamBufferSendFromISR:pxStreamBuffer <- $r4
	@DEBUG_VALUE: xStreamBufferSendFromISR:xStreamBuffer <- $r4
	@DEBUG_VALUE: prvBytesInBuffer:pxStreamBuffer <- $r4
	.loc	5 1244 30                       @ ../../../../../../kernel/freertos/Source/stream_buffer.c:1244:30
	ldr	r1, [r4, #8]
	.loc	5 1244 56 is_stmt 0             @ ../../../../../../kernel/freertos/Source/stream_buffer.c:1244:56
	ldr	r0, [r4, #4]
	.loc	5 1244 38                       @ ../../../../../../kernel/freertos/Source/stream_buffer.c:1244:38
	adds	r0, r0, r1
.Ltmp294:
	@DEBUG_VALUE: prvBytesInBuffer:xCount <- $r0
	.loc	5 1245 31 is_stmt 1             @ ../../../../../../kernel/freertos/Source/stream_buffer.c:1245:31
	ldr	r2, [r4]
	.loc	5 1245 12 is_stmt 0             @ ../../../../../../kernel/freertos/Source/stream_buffer.c:1245:12
	subs	r0, r0, r2
.Ltmp295:
	@DEBUG_VALUE: prvBytesInBuffer:xCount <- $r0
	.loc	5 1247 9 is_stmt 1              @ ../../../../../../kernel/freertos/Source/stream_buffer.c:1247:9
	subs	r1, r0, r1
	blo	.LBB9_7
.Ltmp296:
@ %bb.6:
	@DEBUG_VALUE: prvBytesInBuffer:xCount <- $r0
	@DEBUG_VALUE: prvBytesInBuffer:pxStreamBuffer <- $r4
	@DEBUG_VALUE: xStreamBufferSendFromISR:xReturn <- $r6
	@DEBUG_VALUE: xStreamBufferSendFromISR:xDataLengthBytes <- [DW_OP_LLVM_entry_value 1] $r2
	@DEBUG_VALUE: xStreamBufferSendFromISR:pvTxData <- [DW_OP_LLVM_entry_value 1] $r1
	@DEBUG_VALUE: xStreamBufferSendFromISR:pxHigherPriorityTaskWoken <- $r5
	@DEBUG_VALUE: xStreamBufferSendFromISR:pxStreamBuffer <- $r4
	@DEBUG_VALUE: xStreamBufferSendFromISR:xStreamBuffer <- $r4
	.loc	5 0 9 is_stmt 0                 @ ../../../../../../kernel/freertos/Source/stream_buffer.c:0:9
	mov	r0, r1
.Ltmp297:
.LBB9_7:
	@DEBUG_VALUE: xStreamBufferSendFromISR:xReturn <- $r6
	@DEBUG_VALUE: xStreamBufferSendFromISR:xDataLengthBytes <- [DW_OP_LLVM_entry_value 1] $r2
	@DEBUG_VALUE: xStreamBufferSendFromISR:pvTxData <- [DW_OP_LLVM_entry_value 1] $r1
	@DEBUG_VALUE: xStreamBufferSendFromISR:pxHigherPriorityTaskWoken <- $r5
	@DEBUG_VALUE: xStreamBufferSendFromISR:pxStreamBuffer <- $r4
	@DEBUG_VALUE: xStreamBufferSendFromISR:xStreamBuffer <- $r4
	@DEBUG_VALUE: prvBytesInBuffer:xCount <- $r0
	.loc	5 681 67 is_stmt 1              @ ../../../../../../kernel/freertos/Source/stream_buffer.c:681:67
	ldr	r1, [r4, #12]
.Ltmp298:
	.loc	5 681 13 is_stmt 0              @ ../../../../../../kernel/freertos/Source/stream_buffer.c:681:13
	cmp	r0, r1
	blo	.LBB9_11
.Ltmp299:
@ %bb.8:
	@DEBUG_VALUE: xStreamBufferSendFromISR:xReturn <- $r6
	@DEBUG_VALUE: xStreamBufferSendFromISR:xDataLengthBytes <- [DW_OP_LLVM_entry_value 1] $r2
	@DEBUG_VALUE: xStreamBufferSendFromISR:pvTxData <- [DW_OP_LLVM_entry_value 1] $r1
	@DEBUG_VALUE: xStreamBufferSendFromISR:pxHigherPriorityTaskWoken <- $r5
	@DEBUG_VALUE: xStreamBufferSendFromISR:pxStreamBuffer <- $r4
	@DEBUG_VALUE: xStreamBufferSendFromISR:xStreamBuffer <- $r4
	.loc	5 683 13 is_stmt 1              @ ../../../../../../kernel/freertos/Source/stream_buffer.c:683:13
	bl	ulSetInterruptMaskFromISR
.Ltmp300:
	mov	r1, r0
.Ltmp301:
	@DEBUG_VALUE: uxSavedInterruptStatus <- $r1
	.loc	5 683 13 is_stmt 0              @ ../../../../../../kernel/freertos/Source/stream_buffer.c:683:13
	ldr	r0, [r4, #16]
.Ltmp302:
	.loc	5 683 13                        @ ../../../../../../kernel/freertos/Source/stream_buffer.c:683:13
	cmp	r0, #0
	beq	.LBB9_10
.Ltmp303:
@ %bb.9:
	@DEBUG_VALUE: uxSavedInterruptStatus <- $r1
	@DEBUG_VALUE: xStreamBufferSendFromISR:xReturn <- $r6
	@DEBUG_VALUE: xStreamBufferSendFromISR:xDataLengthBytes <- [DW_OP_LLVM_entry_value 1] $r2
	@DEBUG_VALUE: xStreamBufferSendFromISR:pvTxData <- [DW_OP_LLVM_entry_value 1] $r1
	@DEBUG_VALUE: xStreamBufferSendFromISR:pxHigherPriorityTaskWoken <- $r5
	@DEBUG_VALUE: xStreamBufferSendFromISR:pxStreamBuffer <- $r4
	@DEBUG_VALUE: xStreamBufferSendFromISR:xStreamBuffer <- $r4
	.loc	5 683 13                        @ ../../../../../../kernel/freertos/Source/stream_buffer.c:683:13
	ldr	r0, [r4, #16]
	movs	r7, #0
	str	r7, [sp]
	str	r5, [sp, #4]
	mov	r5, r1
.Ltmp304:
	@DEBUG_VALUE: uxSavedInterruptStatus <- $r5
	mov	r1, r7
	mov	r2, r7
	mov	r3, r7
	bl	xTaskGenericNotifyFromISR
.Ltmp305:
	.loc	5 0 13                          @ ../../../../../../kernel/freertos/Source/stream_buffer.c:0:13
	mov	r1, r5
	.loc	5 683 13                        @ ../../../../../../kernel/freertos/Source/stream_buffer.c:683:13
	str	r7, [r4, #16]
.Ltmp306:
.LBB9_10:
	@DEBUG_VALUE: xStreamBufferSendFromISR:xReturn <- $r6
	@DEBUG_VALUE: xStreamBufferSendFromISR:xDataLengthBytes <- [DW_OP_LLVM_entry_value 1] $r2
	@DEBUG_VALUE: xStreamBufferSendFromISR:pvTxData <- [DW_OP_LLVM_entry_value 1] $r1
	@DEBUG_VALUE: xStreamBufferSendFromISR:pxStreamBuffer <- $r4
	@DEBUG_VALUE: xStreamBufferSendFromISR:xStreamBuffer <- $r4
	.loc	5 683 13                        @ ../../../../../../kernel/freertos/Source/stream_buffer.c:683:13
	mov	r0, r1
	bl	vClearInterruptMaskFromISR
.Ltmp307:
.LBB9_11:
	@DEBUG_VALUE: xStreamBufferSendFromISR:xReturn <- $r6
	@DEBUG_VALUE: xStreamBufferSendFromISR:xDataLengthBytes <- [DW_OP_LLVM_entry_value 1] $r2
	@DEBUG_VALUE: xStreamBufferSendFromISR:pvTxData <- [DW_OP_LLVM_entry_value 1] $r1
	@DEBUG_VALUE: xStreamBufferSendFromISR:pxStreamBuffer <- $r4
	@DEBUG_VALUE: xStreamBufferSendFromISR:xStreamBuffer <- $r4
	.loc	5 697 5 is_stmt 1               @ ../../../../../../kernel/freertos/Source/stream_buffer.c:697:5
	mov	r0, r6
	.loc	5 697 5 epilogue_begin is_stmt 0 @ ../../../../../../kernel/freertos/Source/stream_buffer.c:697:5
	add	sp, #12
	pop	{r4, r5, r6, r7, pc}
.Ltmp308:
.LBB9_12:
	@DEBUG_VALUE: xStreamBufferSendFromISR:xRequiredSpace <- $r2
	@DEBUG_VALUE: xStreamBufferSendFromISR:pxStreamBuffer <- $r0
	@DEBUG_VALUE: xStreamBufferSendFromISR:pxHigherPriorityTaskWoken <- $r3
	@DEBUG_VALUE: xStreamBufferSendFromISR:xDataLengthBytes <- $r2
	@DEBUG_VALUE: xStreamBufferSendFromISR:pvTxData <- $r1
	@DEBUG_VALUE: xStreamBufferSendFromISR:xStreamBuffer <- $r0
	.loc	5 659 5 is_stmt 1               @ ../../../../../../kernel/freertos/Source/stream_buffer.c:659:5
	@APP
	cpsid i
	@NO_APP
.Ltmp309:
.LBB9_13:                               @ =>This Inner Loop Header: Depth=1
	@DEBUG_VALUE: xStreamBufferSendFromISR:xRequiredSpace <- $r2
	@DEBUG_VALUE: xStreamBufferSendFromISR:pxStreamBuffer <- $r0
	@DEBUG_VALUE: xStreamBufferSendFromISR:pxHigherPriorityTaskWoken <- $r3
	@DEBUG_VALUE: xStreamBufferSendFromISR:xDataLengthBytes <- $r2
	@DEBUG_VALUE: xStreamBufferSendFromISR:pvTxData <- $r1
	@DEBUG_VALUE: xStreamBufferSendFromISR:xStreamBuffer <- $r0
	.loc	5 659 5 is_stmt 0               @ ../../../../../../kernel/freertos/Source/stream_buffer.c:659:5
	b	.LBB9_13
.Ltmp310:
.LBB9_14:
	@DEBUG_VALUE: xStreamBufferSendFromISR:pxStreamBuffer <- $r4
	@DEBUG_VALUE: xStreamBufferSendFromISR:xStreamBuffer <- $r4
	@DEBUG_VALUE: xStreamBufferSendFromISR:xRequiredSpace <- $r2
	@DEBUG_VALUE: xStreamBufferSendFromISR:pxHigherPriorityTaskWoken <- $r3
	@DEBUG_VALUE: xStreamBufferSendFromISR:xDataLengthBytes <- $r2
	@DEBUG_VALUE: xStreamBufferSendFromISR:pvTxData <- $r1
	.loc	5 660 5 is_stmt 1               @ ../../../../../../kernel/freertos/Source/stream_buffer.c:660:5
	@APP
	cpsid i
	@NO_APP
.Ltmp311:
.LBB9_15:                               @ =>This Inner Loop Header: Depth=1
	@DEBUG_VALUE: xStreamBufferSendFromISR:pxStreamBuffer <- $r4
	@DEBUG_VALUE: xStreamBufferSendFromISR:xStreamBuffer <- $r4
	@DEBUG_VALUE: xStreamBufferSendFromISR:xRequiredSpace <- $r2
	@DEBUG_VALUE: xStreamBufferSendFromISR:pxHigherPriorityTaskWoken <- $r3
	@DEBUG_VALUE: xStreamBufferSendFromISR:xDataLengthBytes <- $r2
	@DEBUG_VALUE: xStreamBufferSendFromISR:pvTxData <- $r1
	.loc	5 660 5 is_stmt 0               @ ../../../../../../kernel/freertos/Source/stream_buffer.c:660:5
	b	.LBB9_15
.Ltmp312:
.Lfunc_end9:
	.size	xStreamBufferSendFromISR, .Lfunc_end9-xStreamBufferSendFromISR
	.cfi_endproc
	.cantunwind
	.fnend
                                        @ -- End function
	.section	.text.xStreamBufferReceive,"ax",%progbits
	.hidden	xStreamBufferReceive            @ -- Begin function xStreamBufferReceive
	.globl	xStreamBufferReceive
	.p2align	1
	.type	xStreamBufferReceive,%function
	.code	16                              @ @xStreamBufferReceive
	.thumb_func
xStreamBufferReceive:
.Lfunc_begin10:
	.loc	5 757 0 is_stmt 1               @ ../../../../../../kernel/freertos/Source/stream_buffer.c:757:0
	.fnstart
	.cfi_startproc
@ %bb.0:
	@DEBUG_VALUE: xStreamBufferReceive:xStreamBuffer <- $r0
	@DEBUG_VALUE: xStreamBufferReceive:pvRxData <- $r1
	@DEBUG_VALUE: xStreamBufferReceive:xBufferLengthBytes <- $r2
	@DEBUG_VALUE: xStreamBufferReceive:xTicksToWait <- $r3
	@DEBUG_VALUE: xStreamBufferReceive:xTicksToWait <- $r3
	@DEBUG_VALUE: xStreamBufferReceive:pvRxData <- $r1
	@DEBUG_VALUE: xStreamBufferReceive:xStreamBuffer <- $r0
	.save	{r4, r5, r6, r7, lr}
	push	{r4, r5, r6, r7, lr}
	.cfi_def_cfa_offset 20
	.cfi_offset lr, -4
	.cfi_offset r7, -8
	.cfi_offset r6, -12
	.cfi_offset r5, -16
	.cfi_offset r4, -20
	.pad	#12
	sub	sp, #12
	.cfi_def_cfa_offset 32
.Ltmp313:
	@DEBUG_VALUE: xStreamBufferReceive:pxStreamBuffer <- $r0
	@DEBUG_VALUE: xStreamBufferReceive:xReceivedLength <- 0
	@DEBUG_VALUE: xStreamBufferReceive:pxStreamBuffer <- $r0
	.loc	5 761 5 prologue_end            @ ../../../../../../kernel/freertos/Source/stream_buffer.c:761:5
	cmp	r1, #0
	beq	.LBB10_7
.Ltmp314:
@ %bb.1:
	@DEBUG_VALUE: xStreamBufferReceive:xReceivedLength <- 0
	@DEBUG_VALUE: xStreamBufferReceive:pxStreamBuffer <- $r0
	@DEBUG_VALUE: xStreamBufferReceive:xTicksToWait <- $r3
	@DEBUG_VALUE: xStreamBufferReceive:xBufferLengthBytes <- $r2
	@DEBUG_VALUE: xStreamBufferReceive:pvRxData <- $r1
	@DEBUG_VALUE: xStreamBufferReceive:xStreamBuffer <- $r0
	@DEBUG_VALUE: xStreamBufferReceive:xTicksToWait <- $r3
	@DEBUG_VALUE: xStreamBufferReceive:pvRxData <- $r1
	.loc	5 0 5 is_stmt 0                 @ ../../../../../../kernel/freertos/Source/stream_buffer.c:0:5
	mov	r4, r0
.Ltmp315:
	@DEBUG_VALUE: xStreamBufferReceive:xStreamBuffer <- $r4
	@DEBUG_VALUE: xStreamBufferReceive:pxStreamBuffer <- $r4
	.loc	5 762 5 is_stmt 1               @ ../../../../../../kernel/freertos/Source/stream_buffer.c:762:5
	cmp	r0, #0
	beq	.LBB10_9
.Ltmp316:
@ %bb.2:
	@DEBUG_VALUE: xStreamBufferReceive:pxStreamBuffer <- $r4
	@DEBUG_VALUE: xStreamBufferReceive:xStreamBuffer <- $r4
	@DEBUG_VALUE: xStreamBufferReceive:xReceivedLength <- 0
	@DEBUG_VALUE: xStreamBufferReceive:xTicksToWait <- $r3
	@DEBUG_VALUE: xStreamBufferReceive:xBufferLengthBytes <- $r2
	@DEBUG_VALUE: xStreamBufferReceive:pvRxData <- $r1
	.loc	5 0 5 is_stmt 0                 @ ../../../../../../kernel/freertos/Source/stream_buffer.c:0:5
	mov	r7, r3
.Ltmp317:
	@DEBUG_VALUE: xStreamBufferReceive:xTicksToWait <- $r7
	mov	r6, r1
.Ltmp318:
	@DEBUG_VALUE: xStreamBufferReceive:pvRxData <- $r6
	.loc	5 769 27 is_stmt 1              @ ../../../../../../kernel/freertos/Source/stream_buffer.c:769:27
	ldrb	r0, [r4, #28]
	lsls	r0, r0, #31
	lsrs	r0, r0, #29
.Ltmp319:
	@DEBUG_VALUE: xStreamBufferReceive:xBytesToStoreMessageLength <- $r0
	.loc	5 778 9                         @ ../../../../../../kernel/freertos/Source/stream_buffer.c:778:9
	str	r0, [sp, #8]                    @ 4-byte Spill
.Ltmp320:
	@DEBUG_VALUE: xStreamBufferReceive:xBytesToStoreMessageLength <- [DW_OP_plus_uconst 8] [$sp+0]
	@DEBUG_VALUE: xStreamBufferReceive:xBytesToStoreMessageLength <- [DW_OP_plus_uconst 8] [$sp+0]
	cmp	r3, #0
	beq	.LBB10_11
.Ltmp321:
@ %bb.3:
	@DEBUG_VALUE: xStreamBufferReceive:xBytesToStoreMessageLength <- [DW_OP_plus_uconst 8] [$sp+0]
	@DEBUG_VALUE: xStreamBufferReceive:pvRxData <- $r6
	@DEBUG_VALUE: xStreamBufferReceive:xTicksToWait <- $r7
	@DEBUG_VALUE: xStreamBufferReceive:pxStreamBuffer <- $r4
	@DEBUG_VALUE: xStreamBufferReceive:xStreamBuffer <- $r4
	@DEBUG_VALUE: xStreamBufferReceive:xReceivedLength <- 0
	@DEBUG_VALUE: xStreamBufferReceive:xBufferLengthBytes <- $r2
	.loc	5 0 9 is_stmt 0                 @ ../../../../../../kernel/freertos/Source/stream_buffer.c:0:9
	str	r2, [sp, #4]                    @ 4-byte Spill
.Ltmp322:
	@DEBUG_VALUE: xStreamBufferReceive:xBufferLengthBytes <- [DW_OP_plus_uconst 4] [$sp+0]
	.loc	5 782 9 is_stmt 1               @ ../../../../../../kernel/freertos/Source/stream_buffer.c:782:9
	bl	vPortEnterCritical
.Ltmp323:
	@DEBUG_VALUE: prvBytesInBuffer:pxStreamBuffer <- $r4
	.loc	5 1244 30                       @ ../../../../../../kernel/freertos/Source/stream_buffer.c:1244:30
	ldr	r0, [r4, #8]
	.loc	5 1244 56 is_stmt 0             @ ../../../../../../kernel/freertos/Source/stream_buffer.c:1244:56
	ldr	r1, [r4, #4]
	.loc	5 1244 38                       @ ../../../../../../kernel/freertos/Source/stream_buffer.c:1244:38
	adds	r1, r1, r0
.Ltmp324:
	@DEBUG_VALUE: prvBytesInBuffer:xCount <- $r1
	.loc	5 1245 31 is_stmt 1             @ ../../../../../../kernel/freertos/Source/stream_buffer.c:1245:31
	ldr	r2, [r4]
	.loc	5 1245 12 is_stmt 0             @ ../../../../../../kernel/freertos/Source/stream_buffer.c:1245:12
	subs	r5, r1, r2
.Ltmp325:
	@DEBUG_VALUE: prvBytesInBuffer:xCount <- $r5
	.loc	5 1247 9 is_stmt 1              @ ../../../../../../kernel/freertos/Source/stream_buffer.c:1247:9
	subs	r0, r5, r0
	blo	.LBB10_5
.Ltmp326:
@ %bb.4:
	@DEBUG_VALUE: prvBytesInBuffer:xCount <- $r5
	@DEBUG_VALUE: prvBytesInBuffer:pxStreamBuffer <- $r4
	@DEBUG_VALUE: xStreamBufferReceive:xBufferLengthBytes <- [DW_OP_plus_uconst 4] [$sp+0]
	@DEBUG_VALUE: xStreamBufferReceive:xBytesToStoreMessageLength <- [DW_OP_plus_uconst 8] [$sp+0]
	@DEBUG_VALUE: xStreamBufferReceive:pvRxData <- $r6
	@DEBUG_VALUE: xStreamBufferReceive:xTicksToWait <- $r7
	@DEBUG_VALUE: xStreamBufferReceive:pxStreamBuffer <- $r4
	@DEBUG_VALUE: xStreamBufferReceive:xStreamBuffer <- $r4
	@DEBUG_VALUE: xStreamBufferReceive:xReceivedLength <- 0
	.loc	5 0 9 is_stmt 0                 @ ../../../../../../kernel/freertos/Source/stream_buffer.c:0:9
	mov	r5, r0
.Ltmp327:
.LBB10_5:
	@DEBUG_VALUE: xStreamBufferReceive:xBufferLengthBytes <- [DW_OP_plus_uconst 4] [$sp+0]
	@DEBUG_VALUE: xStreamBufferReceive:xBytesToStoreMessageLength <- [DW_OP_plus_uconst 8] [$sp+0]
	@DEBUG_VALUE: xStreamBufferReceive:pvRxData <- $r6
	@DEBUG_VALUE: xStreamBufferReceive:xTicksToWait <- $r7
	@DEBUG_VALUE: xStreamBufferReceive:pxStreamBuffer <- $r4
	@DEBUG_VALUE: xStreamBufferReceive:xStreamBuffer <- $r4
	@DEBUG_VALUE: xStreamBufferReceive:xReceivedLength <- 0
	@DEBUG_VALUE: prvBytesInBuffer:xCount <- $r5
	@DEBUG_VALUE: xStreamBufferReceive:xBytesAvailable <- $r5
	.loc	5 791 17 is_stmt 1              @ ../../../../../../kernel/freertos/Source/stream_buffer.c:791:17
	ldr	r0, [sp, #8]                    @ 4-byte Reload
	cmp	r5, r0
	bls	.LBB10_13
.Ltmp328:
@ %bb.6:
	@DEBUG_VALUE: xStreamBufferReceive:xBytesAvailable <- $r5
	@DEBUG_VALUE: xStreamBufferReceive:xBufferLengthBytes <- [DW_OP_plus_uconst 4] [$sp+0]
	@DEBUG_VALUE: xStreamBufferReceive:xBytesToStoreMessageLength <- [DW_OP_plus_uconst 8] [$sp+0]
	@DEBUG_VALUE: xStreamBufferReceive:pvRxData <- $r6
	@DEBUG_VALUE: xStreamBufferReceive:xTicksToWait <- $r7
	@DEBUG_VALUE: xStreamBufferReceive:pxStreamBuffer <- $r4
	@DEBUG_VALUE: xStreamBufferReceive:xStreamBuffer <- $r4
	@DEBUG_VALUE: xStreamBufferReceive:xReceivedLength <- 0
	.loc	5 805 9                         @ ../../../../../../kernel/freertos/Source/stream_buffer.c:805:9
	bl	vPortExitCritical
.Ltmp329:
	.loc	5 0 9 is_stmt 0                 @ ../../../../../../kernel/freertos/Source/stream_buffer.c:0:9
	ldr	r0, [sp, #8]                    @ 4-byte Reload
	ldr	r2, [sp, #4]                    @ 4-byte Reload
.Ltmp330:
	@DEBUG_VALUE: xStreamBufferReceive:xBufferLengthBytes <- $r2
	b	.LBB10_20
.Ltmp331:
.LBB10_7:
	@DEBUG_VALUE: xStreamBufferReceive:xReceivedLength <- 0
	@DEBUG_VALUE: xStreamBufferReceive:pxStreamBuffer <- $r0
	@DEBUG_VALUE: xStreamBufferReceive:xTicksToWait <- $r3
	@DEBUG_VALUE: xStreamBufferReceive:xBufferLengthBytes <- $r2
	@DEBUG_VALUE: xStreamBufferReceive:pvRxData <- $r1
	@DEBUG_VALUE: xStreamBufferReceive:xStreamBuffer <- $r0
	.loc	5 761 5 is_stmt 1               @ ../../../../../../kernel/freertos/Source/stream_buffer.c:761:5
	@APP
	cpsid i
	@NO_APP
.Ltmp332:
.LBB10_8:                               @ =>This Inner Loop Header: Depth=1
	@DEBUG_VALUE: xStreamBufferReceive:xReceivedLength <- 0
	@DEBUG_VALUE: xStreamBufferReceive:pxStreamBuffer <- $r0
	@DEBUG_VALUE: xStreamBufferReceive:xTicksToWait <- $r3
	@DEBUG_VALUE: xStreamBufferReceive:xBufferLengthBytes <- $r2
	@DEBUG_VALUE: xStreamBufferReceive:pvRxData <- $r1
	@DEBUG_VALUE: xStreamBufferReceive:xStreamBuffer <- $r0
	.loc	5 761 5 is_stmt 0               @ ../../../../../../kernel/freertos/Source/stream_buffer.c:761:5
	b	.LBB10_8
.Ltmp333:
.LBB10_9:
	@DEBUG_VALUE: xStreamBufferReceive:pxStreamBuffer <- $r4
	@DEBUG_VALUE: xStreamBufferReceive:xStreamBuffer <- $r4
	@DEBUG_VALUE: xStreamBufferReceive:xReceivedLength <- 0
	@DEBUG_VALUE: xStreamBufferReceive:xTicksToWait <- $r3
	@DEBUG_VALUE: xStreamBufferReceive:xBufferLengthBytes <- $r2
	@DEBUG_VALUE: xStreamBufferReceive:pvRxData <- $r1
	.loc	5 762 5 is_stmt 1               @ ../../../../../../kernel/freertos/Source/stream_buffer.c:762:5
	@APP
	cpsid i
	@NO_APP
.Ltmp334:
.LBB10_10:                              @ =>This Inner Loop Header: Depth=1
	@DEBUG_VALUE: xStreamBufferReceive:pxStreamBuffer <- $r4
	@DEBUG_VALUE: xStreamBufferReceive:xStreamBuffer <- $r4
	@DEBUG_VALUE: xStreamBufferReceive:xReceivedLength <- 0
	@DEBUG_VALUE: xStreamBufferReceive:xTicksToWait <- $r3
	@DEBUG_VALUE: xStreamBufferReceive:xBufferLengthBytes <- $r2
	@DEBUG_VALUE: xStreamBufferReceive:pvRxData <- $r1
	.loc	5 762 5 is_stmt 0               @ ../../../../../../kernel/freertos/Source/stream_buffer.c:762:5
	b	.LBB10_10
.Ltmp335:
.LBB10_11:
	@DEBUG_VALUE: xStreamBufferReceive:xBytesToStoreMessageLength <- [DW_OP_plus_uconst 8] [$sp+0]
	@DEBUG_VALUE: xStreamBufferReceive:pvRxData <- $r6
	@DEBUG_VALUE: xStreamBufferReceive:xTicksToWait <- $r7
	@DEBUG_VALUE: xStreamBufferReceive:pxStreamBuffer <- $r4
	@DEBUG_VALUE: xStreamBufferReceive:xStreamBuffer <- $r4
	@DEBUG_VALUE: xStreamBufferReceive:xReceivedLength <- 0
	@DEBUG_VALUE: xStreamBufferReceive:xBufferLengthBytes <- $r2
	@DEBUG_VALUE: prvBytesInBuffer:pxStreamBuffer <- $r4
	.loc	5 1244 30 is_stmt 1             @ ../../../../../../kernel/freertos/Source/stream_buffer.c:1244:30
	ldr	r0, [r4, #8]
	.loc	5 1244 56 is_stmt 0             @ ../../../../../../kernel/freertos/Source/stream_buffer.c:1244:56
	ldr	r1, [r4, #4]
	.loc	5 1244 38                       @ ../../../../../../kernel/freertos/Source/stream_buffer.c:1244:38
	adds	r1, r1, r0
.Ltmp336:
	@DEBUG_VALUE: prvBytesInBuffer:xCount <- $r1
	.loc	5 1245 31 is_stmt 1             @ ../../../../../../kernel/freertos/Source/stream_buffer.c:1245:31
	ldr	r3, [r4]
	.loc	5 1245 12 is_stmt 0             @ ../../../../../../kernel/freertos/Source/stream_buffer.c:1245:12
	subs	r5, r1, r3
.Ltmp337:
	@DEBUG_VALUE: prvBytesInBuffer:xCount <- $r5
	.loc	5 1247 9 is_stmt 1              @ ../../../../../../kernel/freertos/Source/stream_buffer.c:1247:9
	subs	r0, r5, r0
	blo	.LBB10_19
.Ltmp338:
@ %bb.12:
	@DEBUG_VALUE: prvBytesInBuffer:xCount <- $r5
	@DEBUG_VALUE: prvBytesInBuffer:pxStreamBuffer <- $r4
	@DEBUG_VALUE: xStreamBufferReceive:xBytesToStoreMessageLength <- [DW_OP_plus_uconst 8] [$sp+0]
	@DEBUG_VALUE: xStreamBufferReceive:pvRxData <- $r6
	@DEBUG_VALUE: xStreamBufferReceive:xTicksToWait <- $r7
	@DEBUG_VALUE: xStreamBufferReceive:pxStreamBuffer <- $r4
	@DEBUG_VALUE: xStreamBufferReceive:xStreamBuffer <- $r4
	@DEBUG_VALUE: xStreamBufferReceive:xReceivedLength <- 0
	@DEBUG_VALUE: xStreamBufferReceive:xBufferLengthBytes <- $r2
	.loc	5 0 9 is_stmt 0                 @ ../../../../../../kernel/freertos/Source/stream_buffer.c:0:9
	mov	r5, r0
	b	.LBB10_19
.Ltmp339:
.LBB10_13:
	@DEBUG_VALUE: xStreamBufferReceive:xBytesAvailable <- $r5
	@DEBUG_VALUE: xStreamBufferReceive:xBufferLengthBytes <- [DW_OP_plus_uconst 4] [$sp+0]
	@DEBUG_VALUE: xStreamBufferReceive:xBytesToStoreMessageLength <- [DW_OP_plus_uconst 8] [$sp+0]
	@DEBUG_VALUE: xStreamBufferReceive:pvRxData <- $r6
	@DEBUG_VALUE: xStreamBufferReceive:xTicksToWait <- $r7
	@DEBUG_VALUE: xStreamBufferReceive:pxStreamBuffer <- $r4
	@DEBUG_VALUE: xStreamBufferReceive:xStreamBuffer <- $r4
	@DEBUG_VALUE: xStreamBufferReceive:xReceivedLength <- 0
	movs	r5, #0
.Ltmp340:
	.loc	5 794 26 is_stmt 1              @ ../../../../../../kernel/freertos/Source/stream_buffer.c:794:26
	mov	r0, r5
	mov	r1, r5
	bl	xTaskGenericNotifyStateClear
.Ltmp341:
	.loc	5 797 17                        @ ../../../../../../kernel/freertos/Source/stream_buffer.c:797:17
	ldr	r0, [r4, #16]
.Ltmp342:
	.loc	5 797 17 is_stmt 0              @ ../../../../../../kernel/freertos/Source/stream_buffer.c:797:17
	cmp	r0, #0
	beq	.LBB10_16
.Ltmp343:
@ %bb.14:
	@DEBUG_VALUE: xStreamBufferReceive:xBufferLengthBytes <- [DW_OP_plus_uconst 4] [$sp+0]
	@DEBUG_VALUE: xStreamBufferReceive:xBytesToStoreMessageLength <- [DW_OP_plus_uconst 8] [$sp+0]
	@DEBUG_VALUE: xStreamBufferReceive:pvRxData <- $r6
	@DEBUG_VALUE: xStreamBufferReceive:xTicksToWait <- $r7
	@DEBUG_VALUE: xStreamBufferReceive:pxStreamBuffer <- $r4
	@DEBUG_VALUE: xStreamBufferReceive:xStreamBuffer <- $r4
	@DEBUG_VALUE: xStreamBufferReceive:xReceivedLength <- 0
	.loc	5 797 17                        @ ../../../../../../kernel/freertos/Source/stream_buffer.c:797:17
	@APP
	cpsid i
	@NO_APP
.Ltmp344:
.LBB10_15:                              @ =>This Inner Loop Header: Depth=1
	@DEBUG_VALUE: xStreamBufferReceive:xBufferLengthBytes <- [DW_OP_plus_uconst 4] [$sp+0]
	@DEBUG_VALUE: xStreamBufferReceive:xBytesToStoreMessageLength <- [DW_OP_plus_uconst 8] [$sp+0]
	@DEBUG_VALUE: xStreamBufferReceive:pvRxData <- $r6
	@DEBUG_VALUE: xStreamBufferReceive:xTicksToWait <- $r7
	@DEBUG_VALUE: xStreamBufferReceive:pxStreamBuffer <- $r4
	@DEBUG_VALUE: xStreamBufferReceive:xStreamBuffer <- $r4
	@DEBUG_VALUE: xStreamBufferReceive:xReceivedLength <- 0
	.loc	5 797 17                        @ ../../../../../../kernel/freertos/Source/stream_buffer.c:797:17
	b	.LBB10_15
.Ltmp345:
.LBB10_16:
	@DEBUG_VALUE: xStreamBufferReceive:xBufferLengthBytes <- [DW_OP_plus_uconst 4] [$sp+0]
	@DEBUG_VALUE: xStreamBufferReceive:xBytesToStoreMessageLength <- [DW_OP_plus_uconst 8] [$sp+0]
	@DEBUG_VALUE: xStreamBufferReceive:pvRxData <- $r6
	@DEBUG_VALUE: xStreamBufferReceive:xTicksToWait <- $r7
	@DEBUG_VALUE: xStreamBufferReceive:pxStreamBuffer <- $r4
	@DEBUG_VALUE: xStreamBufferReceive:xStreamBuffer <- $r4
	@DEBUG_VALUE: xStreamBufferReceive:xReceivedLength <- 0
	.loc	5 798 57 is_stmt 1              @ ../../../../../../kernel/freertos/Source/stream_buffer.c:798:57
	bl	xTaskGetCurrentTaskHandle
.Ltmp346:
	.loc	5 798 55 is_stmt 0              @ ../../../../../../kernel/freertos/Source/stream_buffer.c:798:55
	str	r0, [r4, #16]
.Ltmp347:
	.loc	5 805 9 is_stmt 1               @ ../../../../../../kernel/freertos/Source/stream_buffer.c:805:9
	bl	vPortExitCritical
.Ltmp348:
	.loc	5 811 22                        @ ../../../../../../kernel/freertos/Source/stream_buffer.c:811:22
	str	r7, [sp]
	mov	r0, r5
	mov	r1, r5
	mov	r2, r5
	mov	r3, r5
	bl	xTaskGenericNotifyWait
.Ltmp349:
	.loc	5 812 51                        @ ../../../../../../kernel/freertos/Source/stream_buffer.c:812:51
	str	r5, [r4, #16]
.Ltmp350:
	@DEBUG_VALUE: prvBytesInBuffer:pxStreamBuffer <- $r4
	.loc	5 1244 30                       @ ../../../../../../kernel/freertos/Source/stream_buffer.c:1244:30
	ldr	r0, [r4, #8]
	.loc	5 1244 56 is_stmt 0             @ ../../../../../../kernel/freertos/Source/stream_buffer.c:1244:56
	ldr	r1, [r4, #4]
	.loc	5 1244 38                       @ ../../../../../../kernel/freertos/Source/stream_buffer.c:1244:38
	adds	r1, r1, r0
.Ltmp351:
	@DEBUG_VALUE: prvBytesInBuffer:xCount <- $r1
	.loc	5 1245 31 is_stmt 1             @ ../../../../../../kernel/freertos/Source/stream_buffer.c:1245:31
	ldr	r2, [r4]
	.loc	5 1245 12 is_stmt 0             @ ../../../../../../kernel/freertos/Source/stream_buffer.c:1245:12
	subs	r5, r1, r2
.Ltmp352:
	@DEBUG_VALUE: prvBytesInBuffer:xCount <- $r5
	.loc	5 1247 9 is_stmt 1              @ ../../../../../../kernel/freertos/Source/stream_buffer.c:1247:9
	subs	r0, r5, r0
	blo	.LBB10_18
.Ltmp353:
@ %bb.17:
	@DEBUG_VALUE: prvBytesInBuffer:xCount <- $r5
	@DEBUG_VALUE: prvBytesInBuffer:pxStreamBuffer <- $r4
	@DEBUG_VALUE: xStreamBufferReceive:xBufferLengthBytes <- [DW_OP_plus_uconst 4] [$sp+0]
	@DEBUG_VALUE: xStreamBufferReceive:xBytesToStoreMessageLength <- [DW_OP_plus_uconst 8] [$sp+0]
	@DEBUG_VALUE: xStreamBufferReceive:pvRxData <- $r6
	@DEBUG_VALUE: xStreamBufferReceive:xTicksToWait <- $r7
	@DEBUG_VALUE: xStreamBufferReceive:pxStreamBuffer <- $r4
	@DEBUG_VALUE: xStreamBufferReceive:xStreamBuffer <- $r4
	@DEBUG_VALUE: xStreamBufferReceive:xReceivedLength <- 0
	.loc	5 0 9 is_stmt 0                 @ ../../../../../../kernel/freertos/Source/stream_buffer.c:0:9
	mov	r5, r0
.Ltmp354:
.LBB10_18:
	@DEBUG_VALUE: prvBytesInBuffer:pxStreamBuffer <- $r4
	@DEBUG_VALUE: xStreamBufferReceive:xBufferLengthBytes <- [DW_OP_plus_uconst 4] [$sp+0]
	@DEBUG_VALUE: xStreamBufferReceive:xBytesToStoreMessageLength <- [DW_OP_plus_uconst 8] [$sp+0]
	@DEBUG_VALUE: xStreamBufferReceive:pvRxData <- $r6
	@DEBUG_VALUE: xStreamBufferReceive:xTicksToWait <- $r7
	@DEBUG_VALUE: xStreamBufferReceive:pxStreamBuffer <- $r4
	@DEBUG_VALUE: xStreamBufferReceive:xStreamBuffer <- $r4
	@DEBUG_VALUE: xStreamBufferReceive:xReceivedLength <- 0
	@DEBUG_VALUE: xStreamBufferReceive:xBytesAvailable <- $r5
	@DEBUG_VALUE: prvBytesInBuffer:xCount <- $r5
	ldr	r2, [sp, #4]                    @ 4-byte Reload
.Ltmp355:
	@DEBUG_VALUE: xStreamBufferReceive:xBufferLengthBytes <- $r2
.LBB10_19:
	@DEBUG_VALUE: xStreamBufferReceive:xBytesToStoreMessageLength <- [DW_OP_plus_uconst 8] [$sp+0]
	@DEBUG_VALUE: xStreamBufferReceive:pvRxData <- $r6
	@DEBUG_VALUE: xStreamBufferReceive:xTicksToWait <- $r7
	@DEBUG_VALUE: xStreamBufferReceive:pxStreamBuffer <- $r4
	@DEBUG_VALUE: xStreamBufferReceive:xStreamBuffer <- $r4
	@DEBUG_VALUE: xStreamBufferReceive:xReceivedLength <- 0
	@DEBUG_VALUE: xStreamBufferReceive:xBufferLengthBytes <- $r2
	ldr	r0, [sp, #8]                    @ 4-byte Reload
.Ltmp356:
.LBB10_20:
	@DEBUG_VALUE: xStreamBufferReceive:xBytesToStoreMessageLength <- [DW_OP_plus_uconst 8] [$sp+0]
	@DEBUG_VALUE: xStreamBufferReceive:pvRxData <- $r6
	@DEBUG_VALUE: xStreamBufferReceive:xTicksToWait <- $r7
	@DEBUG_VALUE: xStreamBufferReceive:pxStreamBuffer <- $r4
	@DEBUG_VALUE: xStreamBufferReceive:xStreamBuffer <- $r4
	@DEBUG_VALUE: xStreamBufferReceive:xReceivedLength <- 0
	@DEBUG_VALUE: xStreamBufferReceive:xBufferLengthBytes <- $r2
	@DEBUG_VALUE: xStreamBufferReceive:xBytesAvailable <- $r5
	movs	r7, #0
.Ltmp357:
	.loc	5 832 9 is_stmt 1               @ ../../../../../../kernel/freertos/Source/stream_buffer.c:832:9
	cmp	r5, r0
	bls	.LBB10_25
.Ltmp358:
@ %bb.21:
	@DEBUG_VALUE: xStreamBufferReceive:xBytesAvailable <- $r5
	@DEBUG_VALUE: xStreamBufferReceive:xBytesToStoreMessageLength <- [DW_OP_plus_uconst 8] [$sp+0]
	@DEBUG_VALUE: xStreamBufferReceive:pvRxData <- $r6
	@DEBUG_VALUE: xStreamBufferReceive:pxStreamBuffer <- $r4
	@DEBUG_VALUE: xStreamBufferReceive:xStreamBuffer <- $r4
	@DEBUG_VALUE: xStreamBufferReceive:xReceivedLength <- 0
	@DEBUG_VALUE: xStreamBufferReceive:xBufferLengthBytes <- $r2
	.loc	5 834 27                        @ ../../../../../../kernel/freertos/Source/stream_buffer.c:834:27
	str	r0, [sp]
	mov	r0, r4
	mov	r1, r6
	mov	r3, r5
	bl	prvReadMessageFromBuffer
.Ltmp359:
	@DEBUG_VALUE: xStreamBufferReceive:xBufferLengthBytes <- [DW_OP_LLVM_entry_value 1] $r2
	@DEBUG_VALUE: xStreamBufferReceive:xReceivedLength <- $r0
	.loc	5 837 13                        @ ../../../../../../kernel/freertos/Source/stream_buffer.c:837:13
	cmp	r0, #0
	beq	.LBB10_25
.Ltmp360:
@ %bb.22:
	@DEBUG_VALUE: xStreamBufferReceive:xReceivedLength <- $r0
	@DEBUG_VALUE: xStreamBufferReceive:xBufferLengthBytes <- [DW_OP_LLVM_entry_value 1] $r2
	@DEBUG_VALUE: xStreamBufferReceive:xBytesAvailable <- $r5
	@DEBUG_VALUE: xStreamBufferReceive:xBytesToStoreMessageLength <- [DW_OP_plus_uconst 8] [$sp+0]
	@DEBUG_VALUE: xStreamBufferReceive:pvRxData <- $r6
	@DEBUG_VALUE: xStreamBufferReceive:pxStreamBuffer <- $r4
	@DEBUG_VALUE: xStreamBufferReceive:xStreamBuffer <- $r4
	.loc	5 0 0 is_stmt 0                 @ ../../../../../../kernel/freertos/Source/stream_buffer.c:0:0
	mov	r5, r0
.Ltmp361:
	@DEBUG_VALUE: xStreamBufferReceive:xReceivedLength <- $r5
	.loc	5 840 13 is_stmt 1              @ ../../../../../../kernel/freertos/Source/stream_buffer.c:840:13
	bl	vTaskSuspendAll
.Ltmp362:
	.loc	5 840 13 is_stmt 0              @ ../../../../../../kernel/freertos/Source/stream_buffer.c:840:13
	ldr	r0, [r4, #20]
.Ltmp363:
	.loc	5 840 13                        @ ../../../../../../kernel/freertos/Source/stream_buffer.c:840:13
	cmp	r0, #0
	beq	.LBB10_24
.Ltmp364:
@ %bb.23:
	@DEBUG_VALUE: xStreamBufferReceive:xReceivedLength <- $r5
	@DEBUG_VALUE: xStreamBufferReceive:xBufferLengthBytes <- [DW_OP_LLVM_entry_value 1] $r2
	@DEBUG_VALUE: xStreamBufferReceive:xBytesToStoreMessageLength <- [DW_OP_plus_uconst 8] [$sp+0]
	@DEBUG_VALUE: xStreamBufferReceive:pvRxData <- $r6
	@DEBUG_VALUE: xStreamBufferReceive:pxStreamBuffer <- $r4
	@DEBUG_VALUE: xStreamBufferReceive:xStreamBuffer <- $r4
	.loc	5 840 13                        @ ../../../../../../kernel/freertos/Source/stream_buffer.c:840:13
	ldr	r0, [r4, #20]
	movs	r6, #0
.Ltmp365:
	str	r6, [sp]
	mov	r1, r6
	mov	r2, r6
	mov	r3, r6
	bl	xTaskGenericNotify
.Ltmp366:
	str	r6, [r4, #20]
.Ltmp367:
.LBB10_24:
	@DEBUG_VALUE: xStreamBufferReceive:xReceivedLength <- $r5
	@DEBUG_VALUE: xStreamBufferReceive:xBufferLengthBytes <- [DW_OP_LLVM_entry_value 1] $r2
	@DEBUG_VALUE: xStreamBufferReceive:xBytesToStoreMessageLength <- [DW_OP_plus_uconst 8] [$sp+0]
	@DEBUG_VALUE: xStreamBufferReceive:pxStreamBuffer <- $r4
	@DEBUG_VALUE: xStreamBufferReceive:xStreamBuffer <- $r4
	.loc	5 840 13                        @ ../../../../../../kernel/freertos/Source/stream_buffer.c:840:13
	bl	xTaskResumeAll
.Ltmp368:
	.loc	5 0 13                          @ ../../../../../../kernel/freertos/Source/stream_buffer.c:0:13
	mov	r7, r5
.Ltmp369:
	@DEBUG_VALUE: xStreamBufferReceive:xReceivedLength <- $r7
.LBB10_25:
	@DEBUG_VALUE: xStreamBufferReceive:xBytesToStoreMessageLength <- [DW_OP_plus_uconst 8] [$sp+0]
	@DEBUG_VALUE: xStreamBufferReceive:pxStreamBuffer <- $r4
	@DEBUG_VALUE: xStreamBufferReceive:xStreamBuffer <- $r4
	@DEBUG_VALUE: xStreamBufferReceive:xReceivedLength <- $r7
	.loc	5 853 5 is_stmt 1               @ ../../../../../../kernel/freertos/Source/stream_buffer.c:853:5
	mov	r0, r7
	.loc	5 853 5 epilogue_begin is_stmt 0 @ ../../../../../../kernel/freertos/Source/stream_buffer.c:853:5
	add	sp, #12
	pop	{r4, r5, r6, r7, pc}
.Ltmp370:
.Lfunc_end10:
	.size	xStreamBufferReceive, .Lfunc_end10-xStreamBufferReceive
	.cfi_endproc
	.cantunwind
	.fnend
                                        @ -- End function
	.section	.text.prvReadMessageFromBuffer,"ax",%progbits
	.p2align	1                               @ -- Begin function prvReadMessageFromBuffer
	.type	prvReadMessageFromBuffer,%function
	.code	16                              @ @prvReadMessageFromBuffer
	.thumb_func
prvReadMessageFromBuffer:
.Lfunc_begin11:
	.loc	5 964 0 is_stmt 1               @ ../../../../../../kernel/freertos/Source/stream_buffer.c:964:0
	.fnstart
	.cfi_startproc
@ %bb.0:
	@DEBUG_VALUE: prvReadMessageFromBuffer:pxStreamBuffer <- $r0
	@DEBUG_VALUE: prvReadMessageFromBuffer:pvRxData <- $r1
	@DEBUG_VALUE: prvReadMessageFromBuffer:xBufferLengthBytes <- $r2
	@DEBUG_VALUE: prvReadMessageFromBuffer:xBytesAvailable <- $r3
	.save	{r4, r5, r6, r7, lr}
	push	{r4, r5, r6, r7, lr}
	.cfi_def_cfa_offset 20
	.cfi_offset lr, -4
	.cfi_offset r7, -8
	.cfi_offset r6, -12
	.cfi_offset r5, -16
	.cfi_offset r4, -20
	.pad	#36
	sub	sp, #36
	.cfi_def_cfa_offset 56
.Ltmp371:
	@DEBUG_VALUE: prvReadMessageFromBuffer:xBytesToStoreMessageLength <- [DW_OP_plus_uconst 56] [$sp+0]
	mov	r4, r3
.Ltmp372:
	@DEBUG_VALUE: prvReadMessageFromBuffer:xBytesAvailable <- $r4
	mov	r7, r1
.Ltmp373:
	@DEBUG_VALUE: prvReadMessageFromBuffer:pvRxData <- $r7
	mov	r3, r0
.Ltmp374:
	@DEBUG_VALUE: prvReadMessageFromBuffer:pxStreamBuffer <- $r3
	ldr	r6, [sp, #56]
.Ltmp375:
	.loc	5 968 9 prologue_end            @ ../../../../../../kernel/freertos/Source/stream_buffer.c:968:9
	cmp	r6, #0
	beq	.LBB11_16
.Ltmp376:
@ %bb.1:
	@DEBUG_VALUE: prvReadMessageFromBuffer:pxStreamBuffer <- $r3
	@DEBUG_VALUE: prvReadMessageFromBuffer:pvRxData <- $r7
	@DEBUG_VALUE: prvReadMessageFromBuffer:xBytesAvailable <- $r4
	@DEBUG_VALUE: prvReadMessageFromBuffer:xBytesToStoreMessageLength <- [DW_OP_plus_uconst 56] [$sp+0]
	@DEBUG_VALUE: prvReadMessageFromBuffer:xBufferLengthBytes <- $r2
	@DEBUG_VALUE: prvReadBytesFromBuffer:pxStreamBuffer <- $r3
	@DEBUG_VALUE: prvReadBytesFromBuffer:pucData <- [DW_OP_plus_uconst 32, DW_OP_stack_value] $sp
	@DEBUG_VALUE: prvReadBytesFromBuffer:xMaxCount <- $r6
	@DEBUG_VALUE: prvReadBytesFromBuffer:xBytesAvailable <- $r4
	.loc	5 0 9 is_stmt 0                 @ ../../../../../../kernel/freertos/Source/stream_buffer.c:0:9
	str	r7, [sp, #28]                   @ 4-byte Spill
.Ltmp377:
	@DEBUG_VALUE: prvReadMessageFromBuffer:pvRxData <- [DW_OP_plus_uconst 28] [$sp+0]
	.loc	5 1189 14 is_stmt 1             @ ../../../../../../kernel/freertos/Source/stream_buffer.c:1189:14
	cmp	r4, r6
	mov	r7, r4
	blo	.LBB11_3
.Ltmp378:
@ %bb.2:
	@DEBUG_VALUE: prvReadMessageFromBuffer:pvRxData <- [DW_OP_plus_uconst 28] [$sp+0]
	@DEBUG_VALUE: prvReadBytesFromBuffer:xBytesAvailable <- $r4
	@DEBUG_VALUE: prvReadBytesFromBuffer:xMaxCount <- $r6
	@DEBUG_VALUE: prvReadBytesFromBuffer:pucData <- [DW_OP_plus_uconst 32, DW_OP_stack_value] $sp
	@DEBUG_VALUE: prvReadBytesFromBuffer:pxStreamBuffer <- $r3
	@DEBUG_VALUE: prvReadMessageFromBuffer:pxStreamBuffer <- $r3
	@DEBUG_VALUE: prvReadMessageFromBuffer:xBytesAvailable <- $r4
	@DEBUG_VALUE: prvReadMessageFromBuffer:xBytesToStoreMessageLength <- [DW_OP_plus_uconst 56] [$sp+0]
	@DEBUG_VALUE: prvReadMessageFromBuffer:xBufferLengthBytes <- $r2
	.loc	5 0 14 is_stmt 0                @ ../../../../../../kernel/freertos/Source/stream_buffer.c:0:14
	mov	r7, r6
.Ltmp379:
.LBB11_3:
	@DEBUG_VALUE: prvReadMessageFromBuffer:pvRxData <- [DW_OP_plus_uconst 28] [$sp+0]
	@DEBUG_VALUE: prvReadBytesFromBuffer:xBytesAvailable <- $r4
	@DEBUG_VALUE: prvReadBytesFromBuffer:xMaxCount <- $r6
	@DEBUG_VALUE: prvReadBytesFromBuffer:pucData <- [DW_OP_plus_uconst 32, DW_OP_stack_value] $sp
	@DEBUG_VALUE: prvReadBytesFromBuffer:pxStreamBuffer <- $r3
	@DEBUG_VALUE: prvReadMessageFromBuffer:pxStreamBuffer <- $r3
	@DEBUG_VALUE: prvReadMessageFromBuffer:xBytesAvailable <- $r4
	@DEBUG_VALUE: prvReadMessageFromBuffer:xBytesToStoreMessageLength <- [DW_OP_plus_uconst 56] [$sp+0]
	@DEBUG_VALUE: prvReadMessageFromBuffer:xBufferLengthBytes <- $r2
	.loc	5 974 41 is_stmt 1              @ ../../../../../../kernel/freertos/Source/stream_buffer.c:974:41
	ldr	r0, [r3]
.Ltmp380:
	@DEBUG_VALUE: prvReadMessageFromBuffer:xOriginalTail <- $r0
	@DEBUG_VALUE: prvReadBytesFromBuffer:xCount <- $r7
	.loc	5 1191 9                        @ ../../../../../../kernel/freertos/Source/stream_buffer.c:1191:9
	cmp	r7, #0
	beq	.LBB11_9
.Ltmp381:
@ %bb.4:
	@DEBUG_VALUE: prvReadBytesFromBuffer:xCount <- $r7
	@DEBUG_VALUE: prvReadMessageFromBuffer:xOriginalTail <- $r0
	@DEBUG_VALUE: prvReadMessageFromBuffer:pvRxData <- [DW_OP_plus_uconst 28] [$sp+0]
	@DEBUG_VALUE: prvReadBytesFromBuffer:xBytesAvailable <- $r4
	@DEBUG_VALUE: prvReadBytesFromBuffer:xMaxCount <- $r6
	@DEBUG_VALUE: prvReadBytesFromBuffer:pucData <- [DW_OP_plus_uconst 32, DW_OP_stack_value] $sp
	@DEBUG_VALUE: prvReadBytesFromBuffer:pxStreamBuffer <- $r3
	@DEBUG_VALUE: prvReadMessageFromBuffer:pxStreamBuffer <- $r3
	@DEBUG_VALUE: prvReadMessageFromBuffer:xBytesAvailable <- $r4
	@DEBUG_VALUE: prvReadMessageFromBuffer:xBytesToStoreMessageLength <- [DW_OP_plus_uconst 56] [$sp+0]
	@DEBUG_VALUE: prvReadMessageFromBuffer:xBufferLengthBytes <- $r2
	.loc	5 0 9 is_stmt 0                 @ ../../../../../../kernel/freertos/Source/stream_buffer.c:0:9
	str	r0, [sp, #12]                   @ 4-byte Spill
.Ltmp382:
	@DEBUG_VALUE: prvReadMessageFromBuffer:xOriginalTail <- [DW_OP_plus_uconst 12] [$sp+0]
	str	r2, [sp, #20]                   @ 4-byte Spill
.Ltmp383:
	@DEBUG_VALUE: prvReadMessageFromBuffer:xBufferLengthBytes <- [DW_OP_plus_uconst 20] [$sp+0]
	.loc	5 1193 37 is_stmt 1             @ ../../../../../../kernel/freertos/Source/stream_buffer.c:1193:37
	ldr	r0, [r3]
.Ltmp384:
	@DEBUG_VALUE: prvReadBytesFromBuffer:xNextTail <- $r0
	.loc	5 1198 24                       @ ../../../../../../kernel/freertos/Source/stream_buffer.c:1198:24
	ldr	r1, [r3, #8]
	str	r1, [sp, #24]                   @ 4-byte Spill
	subs	r2, r1, r0
	cmp	r2, r7
	str	r2, [sp, #16]                   @ 4-byte Spill
	blo	.LBB11_6
.Ltmp385:
@ %bb.5:
	@DEBUG_VALUE: prvReadBytesFromBuffer:xNextTail <- $r0
	@DEBUG_VALUE: prvReadMessageFromBuffer:xBufferLengthBytes <- [DW_OP_plus_uconst 20] [$sp+0]
	@DEBUG_VALUE: prvReadMessageFromBuffer:xOriginalTail <- [DW_OP_plus_uconst 12] [$sp+0]
	@DEBUG_VALUE: prvReadBytesFromBuffer:xCount <- $r7
	@DEBUG_VALUE: prvReadMessageFromBuffer:pvRxData <- [DW_OP_plus_uconst 28] [$sp+0]
	@DEBUG_VALUE: prvReadBytesFromBuffer:xBytesAvailable <- $r4
	@DEBUG_VALUE: prvReadBytesFromBuffer:xMaxCount <- $r6
	@DEBUG_VALUE: prvReadBytesFromBuffer:pucData <- [DW_OP_plus_uconst 32, DW_OP_stack_value] $sp
	@DEBUG_VALUE: prvReadBytesFromBuffer:pxStreamBuffer <- $r3
	@DEBUG_VALUE: prvReadMessageFromBuffer:pxStreamBuffer <- $r3
	@DEBUG_VALUE: prvReadMessageFromBuffer:xBytesAvailable <- $r4
	@DEBUG_VALUE: prvReadMessageFromBuffer:xBytesToStoreMessageLength <- [DW_OP_plus_uconst 56] [$sp+0]
	.loc	5 0 24 is_stmt 0                @ ../../../../../../kernel/freertos/Source/stream_buffer.c:0:24
	mov	r2, r7
.Ltmp386:
.LBB11_6:
	@DEBUG_VALUE: prvReadBytesFromBuffer:xNextTail <- $r0
	@DEBUG_VALUE: prvReadMessageFromBuffer:xBufferLengthBytes <- [DW_OP_plus_uconst 20] [$sp+0]
	@DEBUG_VALUE: prvReadMessageFromBuffer:xOriginalTail <- [DW_OP_plus_uconst 12] [$sp+0]
	@DEBUG_VALUE: prvReadBytesFromBuffer:xCount <- $r7
	@DEBUG_VALUE: prvReadMessageFromBuffer:pvRxData <- [DW_OP_plus_uconst 28] [$sp+0]
	@DEBUG_VALUE: prvReadBytesFromBuffer:xBytesAvailable <- $r4
	@DEBUG_VALUE: prvReadBytesFromBuffer:xMaxCount <- $r6
	@DEBUG_VALUE: prvReadBytesFromBuffer:pucData <- [DW_OP_plus_uconst 32, DW_OP_stack_value] $sp
	@DEBUG_VALUE: prvReadBytesFromBuffer:pxStreamBuffer <- $r3
	@DEBUG_VALUE: prvReadMessageFromBuffer:pxStreamBuffer <- $r3
	@DEBUG_VALUE: prvReadMessageFromBuffer:xBytesAvailable <- $r4
	@DEBUG_VALUE: prvReadMessageFromBuffer:xBytesToStoreMessageLength <- [DW_OP_plus_uconst 56] [$sp+0]
	@DEBUG_VALUE: prvReadBytesFromBuffer:xFirstLength <- $r2
	mov	r1, r0
.Ltmp387:
	.loc	5 1203 9 is_stmt 1              @ ../../../../../../kernel/freertos/Source/stream_buffer.c:1203:9
	adds	r0, r2, r0
.Ltmp388:
	.loc	5 1203 9 is_stmt 0              @ ../../../../../../kernel/freertos/Source/stream_buffer.c:1203:9
	ldr	r5, [sp, #24]                   @ 4-byte Reload
	cmp	r0, r5
	bls	.LBB11_10
.Ltmp389:
@ %bb.7:
	@DEBUG_VALUE: prvReadBytesFromBuffer:xFirstLength <- $r2
	@DEBUG_VALUE: prvReadMessageFromBuffer:xBufferLengthBytes <- [DW_OP_plus_uconst 20] [$sp+0]
	@DEBUG_VALUE: prvReadMessageFromBuffer:xOriginalTail <- [DW_OP_plus_uconst 12] [$sp+0]
	@DEBUG_VALUE: prvReadBytesFromBuffer:xCount <- $r7
	@DEBUG_VALUE: prvReadMessageFromBuffer:pvRxData <- [DW_OP_plus_uconst 28] [$sp+0]
	@DEBUG_VALUE: prvReadBytesFromBuffer:xBytesAvailable <- $r4
	@DEBUG_VALUE: prvReadBytesFromBuffer:xMaxCount <- $r6
	@DEBUG_VALUE: prvReadBytesFromBuffer:pucData <- [DW_OP_plus_uconst 32, DW_OP_stack_value] $sp
	@DEBUG_VALUE: prvReadBytesFromBuffer:pxStreamBuffer <- $r3
	@DEBUG_VALUE: prvReadMessageFromBuffer:pxStreamBuffer <- $r3
	@DEBUG_VALUE: prvReadMessageFromBuffer:xBytesAvailable <- $r4
	@DEBUG_VALUE: prvReadMessageFromBuffer:xBytesToStoreMessageLength <- [DW_OP_plus_uconst 56] [$sp+0]
	.loc	5 1203 9                        @ ../../../../../../kernel/freertos/Source/stream_buffer.c:1203:9
	@APP
	cpsid i
	@NO_APP
.Ltmp390:
.LBB11_8:                               @ =>This Inner Loop Header: Depth=1
	@DEBUG_VALUE: prvReadBytesFromBuffer:xFirstLength <- $r2
	@DEBUG_VALUE: prvReadMessageFromBuffer:xBufferLengthBytes <- [DW_OP_plus_uconst 20] [$sp+0]
	@DEBUG_VALUE: prvReadMessageFromBuffer:xOriginalTail <- [DW_OP_plus_uconst 12] [$sp+0]
	@DEBUG_VALUE: prvReadBytesFromBuffer:xCount <- $r7
	@DEBUG_VALUE: prvReadMessageFromBuffer:pvRxData <- [DW_OP_plus_uconst 28] [$sp+0]
	@DEBUG_VALUE: prvReadBytesFromBuffer:xBytesAvailable <- $r4
	@DEBUG_VALUE: prvReadBytesFromBuffer:xMaxCount <- $r6
	@DEBUG_VALUE: prvReadBytesFromBuffer:pucData <- [DW_OP_plus_uconst 32, DW_OP_stack_value] $sp
	@DEBUG_VALUE: prvReadBytesFromBuffer:pxStreamBuffer <- $r3
	@DEBUG_VALUE: prvReadMessageFromBuffer:pxStreamBuffer <- $r3
	@DEBUG_VALUE: prvReadMessageFromBuffer:xBytesAvailable <- $r4
	@DEBUG_VALUE: prvReadMessageFromBuffer:xBytesToStoreMessageLength <- [DW_OP_plus_uconst 56] [$sp+0]
	.loc	5 1203 9                        @ ../../../../../../kernel/freertos/Source/stream_buffer.c:1203:9
	b	.LBB11_8
.Ltmp391:
.LBB11_9:
	@DEBUG_VALUE: prvReadMessageFromBuffer:xOriginalTail <- $r0
	@DEBUG_VALUE: prvReadMessageFromBuffer:pvRxData <- [DW_OP_plus_uconst 28] [$sp+0]
	@DEBUG_VALUE: prvReadMessageFromBuffer:pxStreamBuffer <- $r3
	@DEBUG_VALUE: prvReadMessageFromBuffer:xBytesAvailable <- $r4
	@DEBUG_VALUE: prvReadMessageFromBuffer:xBytesToStoreMessageLength <- [DW_OP_plus_uconst 56] [$sp+0]
	@DEBUG_VALUE: prvReadMessageFromBuffer:xBufferLengthBytes <- $r2
	@DEBUG_VALUE: prvReadMessageFromBuffer:xNextMessageLength <- undef
	.loc	5 980 25 is_stmt 1              @ ../../../../../../kernel/freertos/Source/stream_buffer.c:980:25
	subs	r4, r4, r6
.Ltmp392:
	@DEBUG_VALUE: prvReadMessageFromBuffer:xBytesAvailable <- $r4
                                        @ implicit-def: $r2
	.loc	5 0 25 is_stmt 0                @ ../../../../../../kernel/freertos/Source/stream_buffer.c:0:25
	ldr	r7, [sp, #28]                   @ 4-byte Reload
.Ltmp393:
	@DEBUG_VALUE: prvReadMessageFromBuffer:pvRxData <- $r7
	@DEBUG_VALUE: prvReadMessageFromBuffer:xBytesAvailable <- $r4
	@DEBUG_VALUE: prvReadMessageFromBuffer:xNextMessageLength <- $r2
	@DEBUG_VALUE: prvReadBytesFromBuffer:pxStreamBuffer <- $r3
	@DEBUG_VALUE: prvReadBytesFromBuffer:pucData <- $r7
	@DEBUG_VALUE: prvReadBytesFromBuffer:xMaxCount <- $r2
	@DEBUG_VALUE: prvReadBytesFromBuffer:xBytesAvailable <- $r4
	.loc	5 1189 14 is_stmt 1             @ ../../../../../../kernel/freertos/Source/stream_buffer.c:1189:14
	cmp	r4, r2
	bhs	.LBB11_17
	b	.LBB11_18
.Ltmp394:
.LBB11_10:
	@DEBUG_VALUE: prvReadBytesFromBuffer:xFirstLength <- $r2
	@DEBUG_VALUE: prvReadMessageFromBuffer:xBufferLengthBytes <- [DW_OP_plus_uconst 20] [$sp+0]
	@DEBUG_VALUE: prvReadMessageFromBuffer:xOriginalTail <- [DW_OP_plus_uconst 12] [$sp+0]
	@DEBUG_VALUE: prvReadBytesFromBuffer:xCount <- $r7
	@DEBUG_VALUE: prvReadMessageFromBuffer:pvRxData <- [DW_OP_plus_uconst 28] [$sp+0]
	@DEBUG_VALUE: prvReadBytesFromBuffer:xBytesAvailable <- $r4
	@DEBUG_VALUE: prvReadBytesFromBuffer:xMaxCount <- $r6
	@DEBUG_VALUE: prvReadBytesFromBuffer:pucData <- [DW_OP_plus_uconst 32, DW_OP_stack_value] $sp
	@DEBUG_VALUE: prvReadBytesFromBuffer:pxStreamBuffer <- $r3
	@DEBUG_VALUE: prvReadMessageFromBuffer:pxStreamBuffer <- $r3
	@DEBUG_VALUE: prvReadMessageFromBuffer:xBytesAvailable <- $r4
	@DEBUG_VALUE: prvReadMessageFromBuffer:xBytesToStoreMessageLength <- [DW_OP_plus_uconst 56] [$sp+0]
	.loc	5 0 14 is_stmt 0                @ ../../../../../../kernel/freertos/Source/stream_buffer.c:0:14
	str	r3, [sp, #8]                    @ 4-byte Spill
.Ltmp395:
	@DEBUG_VALUE: prvReadMessageFromBuffer:pxStreamBuffer <- [DW_OP_plus_uconst 8] [$sp+0]
	.loc	5 1204 82 is_stmt 1             @ ../../../../../../kernel/freertos/Source/stream_buffer.c:1204:82
	ldr	r5, [r3, #24]
	str	r1, [sp, #4]                    @ 4-byte Spill
	.loc	5 1204 66 is_stmt 0             @ ../../../../../../kernel/freertos/Source/stream_buffer.c:1204:66
	adds	r1, r5, r1
	add	r0, sp, #32
	.loc	5 1204 18                       @ ../../../../../../kernel/freertos/Source/stream_buffer.c:1204:18
	bl	__aeabi_memcpy
.Ltmp396:
	.loc	5 0 18                          @ ../../../../../../kernel/freertos/Source/stream_buffer.c:0:18
	ldr	r1, [sp, #16]                   @ 4-byte Reload
	.loc	5 1208 13 is_stmt 1             @ ../../../../../../kernel/freertos/Source/stream_buffer.c:1208:13
	cmp	r7, r1
	bls	.LBB11_12
.Ltmp397:
@ %bb.11:
	@DEBUG_VALUE: prvReadMessageFromBuffer:pxStreamBuffer <- [DW_OP_plus_uconst 8] [$sp+0]
	@DEBUG_VALUE: prvReadMessageFromBuffer:xBufferLengthBytes <- [DW_OP_plus_uconst 20] [$sp+0]
	@DEBUG_VALUE: prvReadMessageFromBuffer:xOriginalTail <- [DW_OP_plus_uconst 12] [$sp+0]
	@DEBUG_VALUE: prvReadBytesFromBuffer:xCount <- $r7
	@DEBUG_VALUE: prvReadMessageFromBuffer:pvRxData <- [DW_OP_plus_uconst 28] [$sp+0]
	@DEBUG_VALUE: prvReadBytesFromBuffer:xBytesAvailable <- $r4
	@DEBUG_VALUE: prvReadBytesFromBuffer:xMaxCount <- $r6
	@DEBUG_VALUE: prvReadBytesFromBuffer:pucData <- [DW_OP_plus_uconst 32, DW_OP_stack_value] $sp
	@DEBUG_VALUE: prvReadMessageFromBuffer:xBytesAvailable <- $r4
	@DEBUG_VALUE: prvReadMessageFromBuffer:xBytesToStoreMessageLength <- [DW_OP_plus_uconst 56] [$sp+0]
	.loc	5 0 13 is_stmt 0                @ ../../../../../../kernel/freertos/Source/stream_buffer.c:0:13
	add	r0, sp, #32
.Ltmp398:
	.loc	5 1212 44 is_stmt 1             @ ../../../../../../kernel/freertos/Source/stream_buffer.c:1212:44
	adds	r0, r0, r1
	.loc	5 1212 120 is_stmt 0            @ ../../../../../../kernel/freertos/Source/stream_buffer.c:1212:120
	subs	r2, r7, r1
	.loc	5 1212 22                       @ ../../../../../../kernel/freertos/Source/stream_buffer.c:1212:22
	mov	r1, r5
	bl	__aeabi_memcpy
.Ltmp399:
.LBB11_12:
	@DEBUG_VALUE: prvReadMessageFromBuffer:pxStreamBuffer <- [DW_OP_plus_uconst 8] [$sp+0]
	@DEBUG_VALUE: prvReadMessageFromBuffer:xBufferLengthBytes <- [DW_OP_plus_uconst 20] [$sp+0]
	@DEBUG_VALUE: prvReadMessageFromBuffer:xOriginalTail <- [DW_OP_plus_uconst 12] [$sp+0]
	@DEBUG_VALUE: prvReadBytesFromBuffer:xCount <- $r7
	@DEBUG_VALUE: prvReadMessageFromBuffer:pvRxData <- [DW_OP_plus_uconst 28] [$sp+0]
	@DEBUG_VALUE: prvReadBytesFromBuffer:xBytesAvailable <- $r4
	@DEBUG_VALUE: prvReadBytesFromBuffer:xMaxCount <- $r6
	@DEBUG_VALUE: prvReadBytesFromBuffer:pucData <- [DW_OP_plus_uconst 32, DW_OP_stack_value] $sp
	@DEBUG_VALUE: prvReadMessageFromBuffer:xBytesAvailable <- $r4
	@DEBUG_VALUE: prvReadMessageFromBuffer:xBytesToStoreMessageLength <- [DW_OP_plus_uconst 56] [$sp+0]
	.loc	5 1221 19 is_stmt 1             @ ../../../../../../kernel/freertos/Source/stream_buffer.c:1221:19
	ldr	r0, [sp, #4]                    @ 4-byte Reload
	adds	r0, r0, r7
.Ltmp400:
	@DEBUG_VALUE: prvReadBytesFromBuffer:xNextTail <- $r0
	.loc	5 1223 13                       @ ../../../../../../kernel/freertos/Source/stream_buffer.c:1223:13
	ldr	r1, [sp, #24]                   @ 4-byte Reload
	subs	r1, r0, r1
	blo	.LBB11_14
.Ltmp401:
@ %bb.13:
	@DEBUG_VALUE: prvReadMessageFromBuffer:pxStreamBuffer <- [DW_OP_plus_uconst 8] [$sp+0]
	@DEBUG_VALUE: prvReadBytesFromBuffer:xNextTail <- $r0
	@DEBUG_VALUE: prvReadMessageFromBuffer:xBufferLengthBytes <- [DW_OP_plus_uconst 20] [$sp+0]
	@DEBUG_VALUE: prvReadMessageFromBuffer:xOriginalTail <- [DW_OP_plus_uconst 12] [$sp+0]
	@DEBUG_VALUE: prvReadBytesFromBuffer:xCount <- $r7
	@DEBUG_VALUE: prvReadMessageFromBuffer:pvRxData <- [DW_OP_plus_uconst 28] [$sp+0]
	@DEBUG_VALUE: prvReadBytesFromBuffer:xBytesAvailable <- $r4
	@DEBUG_VALUE: prvReadBytesFromBuffer:xMaxCount <- $r6
	@DEBUG_VALUE: prvReadBytesFromBuffer:pucData <- [DW_OP_plus_uconst 32, DW_OP_stack_value] $sp
	@DEBUG_VALUE: prvReadMessageFromBuffer:xBytesAvailable <- $r4
	@DEBUG_VALUE: prvReadMessageFromBuffer:xBytesToStoreMessageLength <- [DW_OP_plus_uconst 56] [$sp+0]
	.loc	5 0 13 is_stmt 0                @ ../../../../../../kernel/freertos/Source/stream_buffer.c:0:13
	mov	r0, r1
.Ltmp402:
.LBB11_14:
	@DEBUG_VALUE: prvReadMessageFromBuffer:pxStreamBuffer <- [DW_OP_plus_uconst 8] [$sp+0]
	@DEBUG_VALUE: prvReadMessageFromBuffer:xBufferLengthBytes <- [DW_OP_plus_uconst 20] [$sp+0]
	@DEBUG_VALUE: prvReadMessageFromBuffer:xOriginalTail <- [DW_OP_plus_uconst 12] [$sp+0]
	@DEBUG_VALUE: prvReadBytesFromBuffer:xCount <- $r7
	@DEBUG_VALUE: prvReadMessageFromBuffer:pvRxData <- [DW_OP_plus_uconst 28] [$sp+0]
	@DEBUG_VALUE: prvReadBytesFromBuffer:xBytesAvailable <- $r4
	@DEBUG_VALUE: prvReadBytesFromBuffer:xMaxCount <- $r6
	@DEBUG_VALUE: prvReadBytesFromBuffer:pucData <- [DW_OP_plus_uconst 32, DW_OP_stack_value] $sp
	@DEBUG_VALUE: prvReadMessageFromBuffer:xBytesAvailable <- $r4
	@DEBUG_VALUE: prvReadMessageFromBuffer:xBytesToStoreMessageLength <- [DW_OP_plus_uconst 56] [$sp+0]
	@DEBUG_VALUE: prvReadBytesFromBuffer:xNextTail <- $r0
	ldr	r3, [sp, #8]                    @ 4-byte Reload
.Ltmp403:
	@DEBUG_VALUE: prvReadMessageFromBuffer:pxStreamBuffer <- $r3
	.loc	5 1228 31 is_stmt 1             @ ../../../../../../kernel/freertos/Source/stream_buffer.c:1228:31
	str	r0, [r3]
.Ltmp404:
	.loc	5 980 25                        @ ../../../../../../kernel/freertos/Source/stream_buffer.c:980:25
	subs	r4, r4, r6
.Ltmp405:
	@DEBUG_VALUE: prvReadMessageFromBuffer:xBytesAvailable <- $r4
	.loc	5 976 41                        @ ../../../../../../kernel/freertos/Source/stream_buffer.c:976:41
	ldr	r0, [sp, #32]
.Ltmp406:
	@DEBUG_VALUE: prvReadMessageFromBuffer:xNextMessageLength <- $r0
	.loc	5 984 13                        @ ../../../../../../kernel/freertos/Source/stream_buffer.c:984:13
	ldr	r1, [sp, #20]                   @ 4-byte Reload
.Ltmp407:
	@DEBUG_VALUE: prvReadMessageFromBuffer:xBufferLengthBytes <- $r1
	cmp	r0, r1
	ldr	r7, [sp, #28]                   @ 4-byte Reload
.Ltmp408:
	@DEBUG_VALUE: prvReadMessageFromBuffer:pvRxData <- $r7
	bls	.LBB11_30
.Ltmp409:
@ %bb.15:
	@DEBUG_VALUE: prvReadMessageFromBuffer:xBufferLengthBytes <- $r1
	@DEBUG_VALUE: prvReadMessageFromBuffer:xNextMessageLength <- $r0
	@DEBUG_VALUE: prvReadMessageFromBuffer:xOriginalTail <- [DW_OP_plus_uconst 12] [$sp+0]
	@DEBUG_VALUE: prvReadMessageFromBuffer:pxStreamBuffer <- $r3
	@DEBUG_VALUE: prvReadMessageFromBuffer:pvRxData <- $r7
	@DEBUG_VALUE: prvReadMessageFromBuffer:xBytesAvailable <- $r4
	@DEBUG_VALUE: prvReadMessageFromBuffer:xBytesToStoreMessageLength <- [DW_OP_plus_uconst 56] [$sp+0]
	.loc	5 989 35                        @ ../../../../../../kernel/freertos/Source/stream_buffer.c:989:35
	ldr	r0, [sp, #12]                   @ 4-byte Reload
.Ltmp410:
	@DEBUG_VALUE: prvReadMessageFromBuffer:xOriginalTail <- $r0
	str	r0, [r3]
	movs	r2, #0
.Ltmp411:
	@DEBUG_VALUE: prvReadMessageFromBuffer:xNextMessageLength <- 0
.LBB11_16:
	@DEBUG_VALUE: prvReadMessageFromBuffer:pxStreamBuffer <- $r3
	@DEBUG_VALUE: prvReadMessageFromBuffer:pvRxData <- $r7
	@DEBUG_VALUE: prvReadMessageFromBuffer:xBytesAvailable <- $r4
	@DEBUG_VALUE: prvReadMessageFromBuffer:xBytesToStoreMessageLength <- [DW_OP_plus_uconst 56] [$sp+0]
	@DEBUG_VALUE: prvReadMessageFromBuffer:xBytesAvailable <- $r4
	@DEBUG_VALUE: prvReadMessageFromBuffer:xNextMessageLength <- $r2
	@DEBUG_VALUE: prvReadBytesFromBuffer:pxStreamBuffer <- $r3
	@DEBUG_VALUE: prvReadBytesFromBuffer:pucData <- $r7
	@DEBUG_VALUE: prvReadBytesFromBuffer:xMaxCount <- $r2
	@DEBUG_VALUE: prvReadBytesFromBuffer:xBytesAvailable <- $r4
	.loc	5 1189 14                       @ ../../../../../../kernel/freertos/Source/stream_buffer.c:1189:14
	cmp	r4, r2
	blo	.LBB11_18
.Ltmp412:
.LBB11_17:
	@DEBUG_VALUE: prvReadBytesFromBuffer:xBytesAvailable <- $r4
	@DEBUG_VALUE: prvReadBytesFromBuffer:xMaxCount <- $r2
	@DEBUG_VALUE: prvReadBytesFromBuffer:pucData <- $r7
	@DEBUG_VALUE: prvReadBytesFromBuffer:pxStreamBuffer <- $r3
	@DEBUG_VALUE: prvReadMessageFromBuffer:xNextMessageLength <- $r2
	@DEBUG_VALUE: prvReadMessageFromBuffer:pxStreamBuffer <- $r3
	@DEBUG_VALUE: prvReadMessageFromBuffer:pvRxData <- $r7
	@DEBUG_VALUE: prvReadMessageFromBuffer:xBytesAvailable <- $r4
	@DEBUG_VALUE: prvReadMessageFromBuffer:xBytesToStoreMessageLength <- [DW_OP_plus_uconst 56] [$sp+0]
	.loc	5 0 14 is_stmt 0                @ ../../../../../../kernel/freertos/Source/stream_buffer.c:0:14
	mov	r4, r2
.Ltmp413:
	@DEBUG_VALUE: prvReadMessageFromBuffer:xNextMessageLength <- $r4
.LBB11_18:
	@DEBUG_VALUE: prvReadBytesFromBuffer:xMaxCount <- $r2
	@DEBUG_VALUE: prvReadBytesFromBuffer:pucData <- $r7
	@DEBUG_VALUE: prvReadBytesFromBuffer:pxStreamBuffer <- $r3
	@DEBUG_VALUE: prvReadMessageFromBuffer:pxStreamBuffer <- $r3
	@DEBUG_VALUE: prvReadMessageFromBuffer:pvRxData <- $r7
	@DEBUG_VALUE: prvReadMessageFromBuffer:xBytesToStoreMessageLength <- [DW_OP_plus_uconst 56] [$sp+0]
	@DEBUG_VALUE: prvReadBytesFromBuffer:xCount <- $r4
	.loc	5 1191 9 is_stmt 1              @ ../../../../../../kernel/freertos/Source/stream_buffer.c:1191:9
	cmp	r4, #0
	beq	.LBB11_29
.Ltmp414:
@ %bb.19:
	@DEBUG_VALUE: prvReadBytesFromBuffer:xCount <- $r4
	@DEBUG_VALUE: prvReadBytesFromBuffer:xMaxCount <- $r2
	@DEBUG_VALUE: prvReadBytesFromBuffer:pucData <- $r7
	@DEBUG_VALUE: prvReadBytesFromBuffer:pxStreamBuffer <- $r3
	@DEBUG_VALUE: prvReadMessageFromBuffer:pxStreamBuffer <- $r3
	@DEBUG_VALUE: prvReadMessageFromBuffer:pvRxData <- $r7
	@DEBUG_VALUE: prvReadMessageFromBuffer:xBytesToStoreMessageLength <- [DW_OP_plus_uconst 56] [$sp+0]
	.loc	5 1193 37                       @ ../../../../../../kernel/freertos/Source/stream_buffer.c:1193:37
	ldr	r6, [r3]
.Ltmp415:
	@DEBUG_VALUE: prvReadBytesFromBuffer:xNextTail <- $r6
	.loc	5 1198 24                       @ ../../../../../../kernel/freertos/Source/stream_buffer.c:1198:24
	ldr	r0, [r3, #8]
	subs	r5, r0, r6
	cmp	r5, r4
	mov	r2, r5
.Ltmp416:
	blo	.LBB11_21
.Ltmp417:
@ %bb.20:
	@DEBUG_VALUE: prvReadBytesFromBuffer:xNextTail <- $r6
	@DEBUG_VALUE: prvReadBytesFromBuffer:xCount <- $r4
	@DEBUG_VALUE: prvReadBytesFromBuffer:pucData <- $r7
	@DEBUG_VALUE: prvReadBytesFromBuffer:pxStreamBuffer <- $r3
	@DEBUG_VALUE: prvReadMessageFromBuffer:pxStreamBuffer <- $r3
	@DEBUG_VALUE: prvReadMessageFromBuffer:pvRxData <- $r7
	@DEBUG_VALUE: prvReadMessageFromBuffer:xBytesToStoreMessageLength <- [DW_OP_plus_uconst 56] [$sp+0]
	.loc	5 0 24 is_stmt 0                @ ../../../../../../kernel/freertos/Source/stream_buffer.c:0:24
	mov	r2, r4
.Ltmp418:
.LBB11_21:
	@DEBUG_VALUE: prvReadBytesFromBuffer:xNextTail <- $r6
	@DEBUG_VALUE: prvReadBytesFromBuffer:xCount <- $r4
	@DEBUG_VALUE: prvReadBytesFromBuffer:pucData <- $r7
	@DEBUG_VALUE: prvReadBytesFromBuffer:pxStreamBuffer <- $r3
	@DEBUG_VALUE: prvReadMessageFromBuffer:pxStreamBuffer <- $r3
	@DEBUG_VALUE: prvReadMessageFromBuffer:pvRxData <- $r7
	@DEBUG_VALUE: prvReadMessageFromBuffer:xBytesToStoreMessageLength <- [DW_OP_plus_uconst 56] [$sp+0]
	@DEBUG_VALUE: prvReadBytesFromBuffer:xFirstLength <- $r2
	.loc	5 1203 9 is_stmt 1              @ ../../../../../../kernel/freertos/Source/stream_buffer.c:1203:9
	adds	r1, r2, r6
.Ltmp419:
	.loc	5 1203 9 is_stmt 0              @ ../../../../../../kernel/freertos/Source/stream_buffer.c:1203:9
	cmp	r1, r0
	bls	.LBB11_24
.Ltmp420:
@ %bb.22:
	@DEBUG_VALUE: prvReadBytesFromBuffer:xFirstLength <- $r2
	@DEBUG_VALUE: prvReadBytesFromBuffer:xNextTail <- $r6
	@DEBUG_VALUE: prvReadBytesFromBuffer:xCount <- $r4
	@DEBUG_VALUE: prvReadBytesFromBuffer:pucData <- $r7
	@DEBUG_VALUE: prvReadBytesFromBuffer:pxStreamBuffer <- $r3
	@DEBUG_VALUE: prvReadMessageFromBuffer:pxStreamBuffer <- $r3
	@DEBUG_VALUE: prvReadMessageFromBuffer:pvRxData <- $r7
	@DEBUG_VALUE: prvReadMessageFromBuffer:xBytesToStoreMessageLength <- [DW_OP_plus_uconst 56] [$sp+0]
	.loc	5 1203 9                        @ ../../../../../../kernel/freertos/Source/stream_buffer.c:1203:9
	@APP
	cpsid i
	@NO_APP
.Ltmp421:
.LBB11_23:                              @ =>This Inner Loop Header: Depth=1
	@DEBUG_VALUE: prvReadBytesFromBuffer:xFirstLength <- $r2
	@DEBUG_VALUE: prvReadBytesFromBuffer:xNextTail <- $r6
	@DEBUG_VALUE: prvReadBytesFromBuffer:xCount <- $r4
	@DEBUG_VALUE: prvReadBytesFromBuffer:pucData <- $r7
	@DEBUG_VALUE: prvReadBytesFromBuffer:pxStreamBuffer <- $r3
	@DEBUG_VALUE: prvReadMessageFromBuffer:pxStreamBuffer <- $r3
	@DEBUG_VALUE: prvReadMessageFromBuffer:pvRxData <- $r7
	@DEBUG_VALUE: prvReadMessageFromBuffer:xBytesToStoreMessageLength <- [DW_OP_plus_uconst 56] [$sp+0]
	.loc	5 1203 9                        @ ../../../../../../kernel/freertos/Source/stream_buffer.c:1203:9
	b	.LBB11_23
.Ltmp422:
.LBB11_24:
	@DEBUG_VALUE: prvReadBytesFromBuffer:xFirstLength <- $r2
	@DEBUG_VALUE: prvReadBytesFromBuffer:xNextTail <- $r6
	@DEBUG_VALUE: prvReadBytesFromBuffer:xCount <- $r4
	@DEBUG_VALUE: prvReadBytesFromBuffer:pucData <- $r7
	@DEBUG_VALUE: prvReadBytesFromBuffer:pxStreamBuffer <- $r3
	@DEBUG_VALUE: prvReadMessageFromBuffer:pxStreamBuffer <- $r3
	@DEBUG_VALUE: prvReadMessageFromBuffer:pvRxData <- $r7
	@DEBUG_VALUE: prvReadMessageFromBuffer:xBytesToStoreMessageLength <- [DW_OP_plus_uconst 56] [$sp+0]
	.loc	5 1204 82 is_stmt 1             @ ../../../../../../kernel/freertos/Source/stream_buffer.c:1204:82
	ldr	r0, [r3, #24]
	.loc	5 1204 66 is_stmt 0             @ ../../../../../../kernel/freertos/Source/stream_buffer.c:1204:66
	adds	r1, r0, r6
	.loc	5 1204 18                       @ ../../../../../../kernel/freertos/Source/stream_buffer.c:1204:18
	mov	r0, r7
	str	r7, [sp, #28]                   @ 4-byte Spill
.Ltmp423:
	@DEBUG_VALUE: prvReadMessageFromBuffer:pvRxData <- [DW_OP_plus_uconst 28] [$sp+0]
	.loc	5 0 18                          @ ../../../../../../kernel/freertos/Source/stream_buffer.c:0:18
	mov	r7, r3
.Ltmp424:
	@DEBUG_VALUE: prvReadMessageFromBuffer:pxStreamBuffer <- $r7
	.loc	5 1204 18                       @ ../../../../../../kernel/freertos/Source/stream_buffer.c:1204:18
	bl	__aeabi_memcpy
.Ltmp425:
	.loc	5 1208 13 is_stmt 1             @ ../../../../../../kernel/freertos/Source/stream_buffer.c:1208:13
	cmp	r4, r5
	bls	.LBB11_26
.Ltmp426:
@ %bb.25:
	@DEBUG_VALUE: prvReadMessageFromBuffer:pxStreamBuffer <- $r7
	@DEBUG_VALUE: prvReadBytesFromBuffer:xNextTail <- $r6
	@DEBUG_VALUE: prvReadBytesFromBuffer:xCount <- $r4
	@DEBUG_VALUE: prvReadMessageFromBuffer:pvRxData <- [DW_OP_plus_uconst 28] [$sp+0]
	@DEBUG_VALUE: prvReadMessageFromBuffer:xBytesToStoreMessageLength <- [DW_OP_plus_uconst 56] [$sp+0]
	.loc	5 1212 44                       @ ../../../../../../kernel/freertos/Source/stream_buffer.c:1212:44
	ldr	r0, [sp, #28]                   @ 4-byte Reload
.Ltmp427:
	@DEBUG_VALUE: prvReadMessageFromBuffer:pvRxData <- $r0
	adds	r0, r0, r5
.Ltmp428:
	@DEBUG_VALUE: prvReadMessageFromBuffer:pvRxData <- [DW_OP_LLVM_entry_value 1] $r1
	.loc	5 1212 120 is_stmt 0            @ ../../../../../../kernel/freertos/Source/stream_buffer.c:1212:120
	subs	r2, r4, r5
	.loc	5 1212 100                      @ ../../../../../../kernel/freertos/Source/stream_buffer.c:1212:100
	ldr	r1, [r7, #24]
	.loc	5 1212 22                       @ ../../../../../../kernel/freertos/Source/stream_buffer.c:1212:22
	bl	__aeabi_memcpy
.Ltmp429:
.LBB11_26:
	@DEBUG_VALUE: prvReadMessageFromBuffer:pxStreamBuffer <- $r7
	@DEBUG_VALUE: prvReadBytesFromBuffer:xNextTail <- $r6
	@DEBUG_VALUE: prvReadBytesFromBuffer:xCount <- $r4
	@DEBUG_VALUE: prvReadMessageFromBuffer:xBytesToStoreMessageLength <- [DW_OP_plus_uconst 56] [$sp+0]
	.loc	5 1221 19 is_stmt 1             @ ../../../../../../kernel/freertos/Source/stream_buffer.c:1221:19
	adds	r0, r6, r4
.Ltmp430:
	@DEBUG_VALUE: prvReadBytesFromBuffer:xNextTail <- $r0
	.loc	5 1223 42                       @ ../../../../../../kernel/freertos/Source/stream_buffer.c:1223:42
	ldr	r1, [r7, #8]
.Ltmp431:
	.loc	5 1223 13 is_stmt 0             @ ../../../../../../kernel/freertos/Source/stream_buffer.c:1223:13
	subs	r1, r0, r1
	blo	.LBB11_28
.Ltmp432:
@ %bb.27:
	@DEBUG_VALUE: prvReadBytesFromBuffer:xNextTail <- $r0
	@DEBUG_VALUE: prvReadMessageFromBuffer:pxStreamBuffer <- $r7
	@DEBUG_VALUE: prvReadBytesFromBuffer:xCount <- $r4
	@DEBUG_VALUE: prvReadMessageFromBuffer:xBytesToStoreMessageLength <- [DW_OP_plus_uconst 56] [$sp+0]
	.loc	5 0 13                          @ ../../../../../../kernel/freertos/Source/stream_buffer.c:0:13
	mov	r0, r1
.Ltmp433:
.LBB11_28:
	@DEBUG_VALUE: prvReadMessageFromBuffer:pxStreamBuffer <- $r7
	@DEBUG_VALUE: prvReadBytesFromBuffer:xCount <- $r4
	@DEBUG_VALUE: prvReadMessageFromBuffer:xBytesToStoreMessageLength <- [DW_OP_plus_uconst 56] [$sp+0]
	@DEBUG_VALUE: prvReadBytesFromBuffer:xNextTail <- $r0
	.loc	5 1228 31 is_stmt 1             @ ../../../../../../kernel/freertos/Source/stream_buffer.c:1228:31
	str	r0, [r7]
.Ltmp434:
.LBB11_29:
	@DEBUG_VALUE: prvReadMessageFromBuffer:xBytesToStoreMessageLength <- [DW_OP_plus_uconst 56] [$sp+0]
	@DEBUG_VALUE: prvReadMessageFromBuffer:xReceivedLength <- $r4
	.loc	5 1007 5                        @ ../../../../../../kernel/freertos/Source/stream_buffer.c:1007:5
	mov	r0, r4
	.loc	5 1007 5 epilogue_begin is_stmt 0 @ ../../../../../../kernel/freertos/Source/stream_buffer.c:1007:5
	add	sp, #36
	pop	{r4, r5, r6, r7, pc}
.Ltmp435:
.LBB11_30:
	@DEBUG_VALUE: prvReadMessageFromBuffer:xBufferLengthBytes <- $r1
	@DEBUG_VALUE: prvReadMessageFromBuffer:xNextMessageLength <- $r0
	@DEBUG_VALUE: prvReadMessageFromBuffer:xOriginalTail <- [DW_OP_plus_uconst 12] [$sp+0]
	@DEBUG_VALUE: prvReadMessageFromBuffer:pxStreamBuffer <- $r3
	@DEBUG_VALUE: prvReadMessageFromBuffer:pvRxData <- $r7
	@DEBUG_VALUE: prvReadMessageFromBuffer:xBytesAvailable <- $r4
	@DEBUG_VALUE: prvReadMessageFromBuffer:xBytesToStoreMessageLength <- [DW_OP_plus_uconst 56] [$sp+0]
	.loc	5 0 5                           @ ../../../../../../kernel/freertos/Source/stream_buffer.c:0:5
	mov	r2, r0
	@DEBUG_VALUE: prvReadMessageFromBuffer:xBytesAvailable <- $r4
.Ltmp436:
	@DEBUG_VALUE: prvReadMessageFromBuffer:xNextMessageLength <- $r2
	@DEBUG_VALUE: prvReadBytesFromBuffer:pxStreamBuffer <- $r3
	@DEBUG_VALUE: prvReadBytesFromBuffer:pucData <- $r7
	@DEBUG_VALUE: prvReadBytesFromBuffer:xMaxCount <- $r2
	@DEBUG_VALUE: prvReadBytesFromBuffer:xBytesAvailable <- $r4
	.loc	5 1189 14 is_stmt 1             @ ../../../../../../kernel/freertos/Source/stream_buffer.c:1189:14
	cmp	r4, r2
	bhs	.LBB11_17
	b	.LBB11_18
.Ltmp437:
.Lfunc_end11:
	.size	prvReadMessageFromBuffer, .Lfunc_end11-prvReadMessageFromBuffer
	.cfi_endproc
	.cantunwind
	.fnend
                                        @ -- End function
	.section	.text.xStreamBufferNextMessageLengthBytes,"ax",%progbits
	.hidden	xStreamBufferNextMessageLengthBytes @ -- Begin function xStreamBufferNextMessageLengthBytes
	.globl	xStreamBufferNextMessageLengthBytes
	.p2align	1
	.type	xStreamBufferNextMessageLengthBytes,%function
	.code	16                              @ @xStreamBufferNextMessageLengthBytes
	.thumb_func
xStreamBufferNextMessageLengthBytes:
.Lfunc_begin12:
	.loc	5 858 0                         @ ../../../../../../kernel/freertos/Source/stream_buffer.c:858:0
	.fnstart
	.cfi_startproc
@ %bb.0:
	@DEBUG_VALUE: xStreamBufferNextMessageLengthBytes:xStreamBuffer <- $r0
	@DEBUG_VALUE: xStreamBufferNextMessageLengthBytes:xStreamBuffer <- $r0
	.save	{r4, r5, r6, r7, lr}
	push	{r4, r5, r6, r7, lr}
	.cfi_def_cfa_offset 20
	.cfi_offset lr, -4
	.cfi_offset r7, -8
	.cfi_offset r6, -12
	.cfi_offset r5, -16
	.cfi_offset r4, -20
	.pad	#12
	sub	sp, #12
	.cfi_def_cfa_offset 32
.Ltmp438:
	@DEBUG_VALUE: xStreamBufferNextMessageLengthBytes:pxStreamBuffer <- $r0
	.loc	5 863 5 prologue_end            @ ../../../../../../kernel/freertos/Source/stream_buffer.c:863:5
	cmp	r0, #0
	beq	.LBB12_3
.Ltmp439:
@ %bb.1:
	@DEBUG_VALUE: xStreamBufferNextMessageLengthBytes:pxStreamBuffer <- $r0
	@DEBUG_VALUE: xStreamBufferNextMessageLengthBytes:xStreamBuffer <- $r0
	.loc	5 0 5 is_stmt 0                 @ ../../../../../../kernel/freertos/Source/stream_buffer.c:0:5
	mov	r4, r0
.Ltmp440:
	@DEBUG_VALUE: xStreamBufferNextMessageLengthBytes:xStreamBuffer <- $r4
	@DEBUG_VALUE: xStreamBufferNextMessageLengthBytes:pxStreamBuffer <- $r4
	.loc	5 866 27 is_stmt 1              @ ../../../../../../kernel/freertos/Source/stream_buffer.c:866:27
	ldrb	r0, [r0, #28]
.Ltmp441:
	.loc	5 866 9 is_stmt 0               @ ../../../../../../kernel/freertos/Source/stream_buffer.c:866:9
	lsls	r0, r0, #31
	bne	.LBB12_5
.Ltmp442:
.LBB12_2:
	@DEBUG_VALUE: xStreamBufferNextMessageLengthBytes:pxStreamBuffer <- $r4
	@DEBUG_VALUE: xStreamBufferNextMessageLengthBytes:xStreamBuffer <- $r4
	.loc	5 0 9                           @ ../../../../../../kernel/freertos/Source/stream_buffer.c:0:9
	movs	r0, #0
.Ltmp443:
	@DEBUG_VALUE: xStreamBufferNextMessageLengthBytes:xReturn <- $r0
	.loc	5 898 5 epilogue_begin is_stmt 1 @ ../../../../../../kernel/freertos/Source/stream_buffer.c:898:5
	add	sp, #12
	pop	{r4, r5, r6, r7, pc}
.Ltmp444:
.LBB12_3:
	@DEBUG_VALUE: xStreamBufferNextMessageLengthBytes:pxStreamBuffer <- $r0
	@DEBUG_VALUE: xStreamBufferNextMessageLengthBytes:xStreamBuffer <- $r0
	.loc	5 863 5                         @ ../../../../../../kernel/freertos/Source/stream_buffer.c:863:5
	@APP
	cpsid i
	@NO_APP
.Ltmp445:
.LBB12_4:                               @ =>This Inner Loop Header: Depth=1
	@DEBUG_VALUE: xStreamBufferNextMessageLengthBytes:pxStreamBuffer <- $r0
	@DEBUG_VALUE: xStreamBufferNextMessageLengthBytes:xStreamBuffer <- $r0
	.loc	5 863 5 is_stmt 0               @ ../../../../../../kernel/freertos/Source/stream_buffer.c:863:5
	b	.LBB12_4
.Ltmp446:
.LBB12_5:
	@DEBUG_VALUE: xStreamBufferNextMessageLengthBytes:pxStreamBuffer <- $r4
	@DEBUG_VALUE: xStreamBufferNextMessageLengthBytes:xStreamBuffer <- $r4
	@DEBUG_VALUE: prvBytesInBuffer:pxStreamBuffer <- $r4
	.loc	5 1244 30 is_stmt 1             @ ../../../../../../kernel/freertos/Source/stream_buffer.c:1244:30
	ldr	r6, [r4, #8]
	.loc	5 1244 56 is_stmt 0             @ ../../../../../../kernel/freertos/Source/stream_buffer.c:1244:56
	ldr	r0, [r4, #4]
	.loc	5 1244 38                       @ ../../../../../../kernel/freertos/Source/stream_buffer.c:1244:38
	adds	r0, r0, r6
.Ltmp447:
	@DEBUG_VALUE: prvBytesInBuffer:xCount <- $r0
	.loc	5 1245 31 is_stmt 1             @ ../../../../../../kernel/freertos/Source/stream_buffer.c:1245:31
	ldr	r1, [r4]
	.loc	5 1245 12 is_stmt 0             @ ../../../../../../kernel/freertos/Source/stream_buffer.c:1245:12
	subs	r0, r0, r1
.Ltmp448:
	@DEBUG_VALUE: prvBytesInBuffer:xCount <- $r0
	.loc	5 1247 9 is_stmt 1              @ ../../../../../../kernel/freertos/Source/stream_buffer.c:1247:9
	cmp	r0, r6
	blo	.LBB12_7
.Ltmp449:
@ %bb.6:
	@DEBUG_VALUE: prvBytesInBuffer:xCount <- $r0
	@DEBUG_VALUE: prvBytesInBuffer:pxStreamBuffer <- $r4
	@DEBUG_VALUE: xStreamBufferNextMessageLengthBytes:pxStreamBuffer <- $r4
	@DEBUG_VALUE: xStreamBufferNextMessageLengthBytes:xStreamBuffer <- $r4
	.loc	5 0 9 is_stmt 0                 @ ../../../../../../kernel/freertos/Source/stream_buffer.c:0:9
	mov	r1, r6
	b	.LBB12_8
.Ltmp450:
.LBB12_7:
	@DEBUG_VALUE: prvBytesInBuffer:xCount <- $r0
	@DEBUG_VALUE: prvBytesInBuffer:pxStreamBuffer <- $r4
	@DEBUG_VALUE: xStreamBufferNextMessageLengthBytes:pxStreamBuffer <- $r4
	@DEBUG_VALUE: xStreamBufferNextMessageLengthBytes:xStreamBuffer <- $r4
	movs	r1, #0
.Ltmp451:
.LBB12_8:
	@DEBUG_VALUE: prvBytesInBuffer:xCount <- $r0
	@DEBUG_VALUE: prvBytesInBuffer:pxStreamBuffer <- $r4
	@DEBUG_VALUE: xStreamBufferNextMessageLengthBytes:pxStreamBuffer <- $r4
	@DEBUG_VALUE: xStreamBufferNextMessageLengthBytes:xStreamBuffer <- $r4
	.loc	5 1247 9                        @ ../../../../../../kernel/freertos/Source/stream_buffer.c:1247:9
	subs	r2, r0, r1
.Ltmp452:
	@DEBUG_VALUE: xStreamBufferNextMessageLengthBytes:xBytesAvailable <- $r2
	@DEBUG_VALUE: prvBytesInBuffer:xCount <- $r2
	.loc	5 870 13 is_stmt 1              @ ../../../../../../kernel/freertos/Source/stream_buffer.c:870:13
	cmp	r2, #5
	blo	.LBB12_14
.Ltmp453:
@ %bb.9:
	@DEBUG_VALUE: xStreamBufferNextMessageLengthBytes:xBytesAvailable <- $r2
	@DEBUG_VALUE: xStreamBufferNextMessageLengthBytes:pxStreamBuffer <- $r4
	@DEBUG_VALUE: xStreamBufferNextMessageLengthBytes:xStreamBuffer <- $r4
	.loc	5 878 45                        @ ../../../../../../kernel/freertos/Source/stream_buffer.c:878:45
	ldr	r1, [r4]
.Ltmp454:
	@DEBUG_VALUE: prvReadBytesFromBuffer:xCount <- 4
	@DEBUG_VALUE: prvReadBytesFromBuffer:xMaxCount <- 4
	@DEBUG_VALUE: prvReadBytesFromBuffer:pucData <- [DW_OP_plus_uconst 8, DW_OP_stack_value] $sp
	@DEBUG_VALUE: prvReadBytesFromBuffer:pxStreamBuffer <- $r4
	@DEBUG_VALUE: xStreamBufferNextMessageLengthBytes:xOriginalTail <- $r1
	.loc	5 1193 37                       @ ../../../../../../kernel/freertos/Source/stream_buffer.c:1193:37
	ldr	r7, [r4]
.Ltmp455:
	@DEBUG_VALUE: prvReadBytesFromBuffer:xNextTail <- $r7
	.loc	5 1198 24                       @ ../../../../../../kernel/freertos/Source/stream_buffer.c:1198:24
	subs	r5, r6, r7
	cmp	r5, #4
	mov	r2, r5
.Ltmp456:
	blo	.LBB12_11
.Ltmp457:
@ %bb.10:
	@DEBUG_VALUE: prvReadBytesFromBuffer:xNextTail <- $r7
	@DEBUG_VALUE: xStreamBufferNextMessageLengthBytes:xOriginalTail <- $r1
	@DEBUG_VALUE: prvReadBytesFromBuffer:pxStreamBuffer <- $r4
	@DEBUG_VALUE: prvReadBytesFromBuffer:pucData <- [DW_OP_plus_uconst 8, DW_OP_stack_value] $sp
	@DEBUG_VALUE: prvReadBytesFromBuffer:xMaxCount <- 4
	@DEBUG_VALUE: prvReadBytesFromBuffer:xCount <- 4
	@DEBUG_VALUE: xStreamBufferNextMessageLengthBytes:pxStreamBuffer <- $r4
	@DEBUG_VALUE: xStreamBufferNextMessageLengthBytes:xStreamBuffer <- $r4
	.loc	5 0 24 is_stmt 0                @ ../../../../../../kernel/freertos/Source/stream_buffer.c:0:24
	movs	r2, #4
.Ltmp458:
.LBB12_11:
	@DEBUG_VALUE: prvReadBytesFromBuffer:xNextTail <- $r7
	@DEBUG_VALUE: xStreamBufferNextMessageLengthBytes:xOriginalTail <- $r1
	@DEBUG_VALUE: prvReadBytesFromBuffer:pxStreamBuffer <- $r4
	@DEBUG_VALUE: prvReadBytesFromBuffer:pucData <- [DW_OP_plus_uconst 8, DW_OP_stack_value] $sp
	@DEBUG_VALUE: prvReadBytesFromBuffer:xMaxCount <- 4
	@DEBUG_VALUE: prvReadBytesFromBuffer:xCount <- 4
	@DEBUG_VALUE: xStreamBufferNextMessageLengthBytes:pxStreamBuffer <- $r4
	@DEBUG_VALUE: xStreamBufferNextMessageLengthBytes:xStreamBuffer <- $r4
	@DEBUG_VALUE: prvReadBytesFromBuffer:xFirstLength <- $r2
	.loc	5 1203 9 is_stmt 1              @ ../../../../../../kernel/freertos/Source/stream_buffer.c:1203:9
	adds	r0, r2, r7
.Ltmp459:
	.loc	5 1203 9 is_stmt 0              @ ../../../../../../kernel/freertos/Source/stream_buffer.c:1203:9
	cmp	r0, r6
.Ltmp460:
	@DEBUG_VALUE: prvReadBytesFromBuffer:xBytesAvailable <- undef
	bls	.LBB12_17
.Ltmp461:
@ %bb.12:
	@DEBUG_VALUE: prvReadBytesFromBuffer:xFirstLength <- $r2
	@DEBUG_VALUE: prvReadBytesFromBuffer:xNextTail <- $r7
	@DEBUG_VALUE: xStreamBufferNextMessageLengthBytes:xOriginalTail <- $r1
	@DEBUG_VALUE: prvReadBytesFromBuffer:pxStreamBuffer <- $r4
	@DEBUG_VALUE: prvReadBytesFromBuffer:pucData <- [DW_OP_plus_uconst 8, DW_OP_stack_value] $sp
	@DEBUG_VALUE: prvReadBytesFromBuffer:xMaxCount <- 4
	@DEBUG_VALUE: prvReadBytesFromBuffer:xCount <- 4
	@DEBUG_VALUE: xStreamBufferNextMessageLengthBytes:pxStreamBuffer <- $r4
	@DEBUG_VALUE: xStreamBufferNextMessageLengthBytes:xStreamBuffer <- $r4
	.loc	5 1203 9                        @ ../../../../../../kernel/freertos/Source/stream_buffer.c:1203:9
	@APP
	cpsid i
	@NO_APP
.Ltmp462:
.LBB12_13:                              @ =>This Inner Loop Header: Depth=1
	@DEBUG_VALUE: prvReadBytesFromBuffer:xFirstLength <- $r2
	@DEBUG_VALUE: prvReadBytesFromBuffer:xNextTail <- $r7
	@DEBUG_VALUE: xStreamBufferNextMessageLengthBytes:xOriginalTail <- $r1
	@DEBUG_VALUE: prvReadBytesFromBuffer:pxStreamBuffer <- $r4
	@DEBUG_VALUE: prvReadBytesFromBuffer:pucData <- [DW_OP_plus_uconst 8, DW_OP_stack_value] $sp
	@DEBUG_VALUE: prvReadBytesFromBuffer:xMaxCount <- 4
	@DEBUG_VALUE: prvReadBytesFromBuffer:xCount <- 4
	@DEBUG_VALUE: xStreamBufferNextMessageLengthBytes:pxStreamBuffer <- $r4
	@DEBUG_VALUE: xStreamBufferNextMessageLengthBytes:xStreamBuffer <- $r4
	.loc	5 1203 9                        @ ../../../../../../kernel/freertos/Source/stream_buffer.c:1203:9
	b	.LBB12_13
.Ltmp463:
.LBB12_14:
	@DEBUG_VALUE: xStreamBufferNextMessageLengthBytes:xBytesAvailable <- $r2
	@DEBUG_VALUE: xStreamBufferNextMessageLengthBytes:pxStreamBuffer <- $r4
	@DEBUG_VALUE: xStreamBufferNextMessageLengthBytes:xStreamBuffer <- $r4
	.loc	5 889 13 is_stmt 1              @ ../../../../../../kernel/freertos/Source/stream_buffer.c:889:13
	cmp	r0, r1
	beq	.LBB12_2
.Ltmp464:
@ %bb.15:
	@DEBUG_VALUE: xStreamBufferNextMessageLengthBytes:xBytesAvailable <- $r2
	@DEBUG_VALUE: xStreamBufferNextMessageLengthBytes:pxStreamBuffer <- $r4
	@DEBUG_VALUE: xStreamBufferNextMessageLengthBytes:xStreamBuffer <- $r4
	.loc	5 889 13 is_stmt 0              @ ../../../../../../kernel/freertos/Source/stream_buffer.c:889:13
	@APP
	cpsid i
	@NO_APP
.Ltmp465:
.LBB12_16:                              @ =>This Inner Loop Header: Depth=1
	@DEBUG_VALUE: xStreamBufferNextMessageLengthBytes:xBytesAvailable <- $r2
	@DEBUG_VALUE: xStreamBufferNextMessageLengthBytes:pxStreamBuffer <- $r4
	@DEBUG_VALUE: xStreamBufferNextMessageLengthBytes:xStreamBuffer <- $r4
	.loc	5 889 13                        @ ../../../../../../kernel/freertos/Source/stream_buffer.c:889:13
	b	.LBB12_16
.Ltmp466:
.LBB12_17:
	@DEBUG_VALUE: prvReadBytesFromBuffer:xFirstLength <- $r2
	@DEBUG_VALUE: prvReadBytesFromBuffer:xNextTail <- $r7
	@DEBUG_VALUE: xStreamBufferNextMessageLengthBytes:xOriginalTail <- $r1
	@DEBUG_VALUE: prvReadBytesFromBuffer:pxStreamBuffer <- $r4
	@DEBUG_VALUE: prvReadBytesFromBuffer:pucData <- [DW_OP_plus_uconst 8, DW_OP_stack_value] $sp
	@DEBUG_VALUE: prvReadBytesFromBuffer:xMaxCount <- 4
	@DEBUG_VALUE: prvReadBytesFromBuffer:xCount <- 4
	@DEBUG_VALUE: xStreamBufferNextMessageLengthBytes:pxStreamBuffer <- $r4
	@DEBUG_VALUE: xStreamBufferNextMessageLengthBytes:xStreamBuffer <- $r4
	.loc	5 0 13                          @ ../../../../../../kernel/freertos/Source/stream_buffer.c:0:13
	str	r1, [sp, #4]                    @ 4-byte Spill
.Ltmp467:
	@DEBUG_VALUE: xStreamBufferNextMessageLengthBytes:xOriginalTail <- [DW_OP_plus_uconst 4] [$sp+0]
	.loc	5 1204 82 is_stmt 1             @ ../../../../../../kernel/freertos/Source/stream_buffer.c:1204:82
	ldr	r0, [r4, #24]
	str	r0, [sp]                        @ 4-byte Spill
	.loc	5 1204 66 is_stmt 0             @ ../../../../../../kernel/freertos/Source/stream_buffer.c:1204:66
	adds	r1, r0, r7
	add	r0, sp, #8
	.loc	5 1204 18                       @ ../../../../../../kernel/freertos/Source/stream_buffer.c:1204:18
	bl	__aeabi_memcpy
.Ltmp468:
	.loc	5 1208 13 is_stmt 1             @ ../../../../../../kernel/freertos/Source/stream_buffer.c:1208:13
	cmp	r5, #3
	bhi	.LBB12_19
.Ltmp469:
@ %bb.18:
	@DEBUG_VALUE: xStreamBufferNextMessageLengthBytes:xOriginalTail <- [DW_OP_plus_uconst 4] [$sp+0]
	@DEBUG_VALUE: prvReadBytesFromBuffer:xNextTail <- $r7
	@DEBUG_VALUE: prvReadBytesFromBuffer:pxStreamBuffer <- $r4
	@DEBUG_VALUE: prvReadBytesFromBuffer:pucData <- [DW_OP_plus_uconst 8, DW_OP_stack_value] $sp
	@DEBUG_VALUE: prvReadBytesFromBuffer:xMaxCount <- 4
	@DEBUG_VALUE: prvReadBytesFromBuffer:xCount <- 4
	@DEBUG_VALUE: xStreamBufferNextMessageLengthBytes:pxStreamBuffer <- $r4
	@DEBUG_VALUE: xStreamBufferNextMessageLengthBytes:xStreamBuffer <- $r4
	.loc	5 0 13 is_stmt 0                @ ../../../../../../kernel/freertos/Source/stream_buffer.c:0:13
	add	r0, sp, #8
.Ltmp470:
	.loc	5 1212 44 is_stmt 1             @ ../../../../../../kernel/freertos/Source/stream_buffer.c:1212:44
	adds	r0, r0, r5
	movs	r1, #4
	.loc	5 1212 120 is_stmt 0            @ ../../../../../../kernel/freertos/Source/stream_buffer.c:1212:120
	subs	r2, r1, r5
	.loc	5 1212 22                       @ ../../../../../../kernel/freertos/Source/stream_buffer.c:1212:22
	ldr	r1, [sp]                        @ 4-byte Reload
	bl	__aeabi_memcpy
.Ltmp471:
.LBB12_19:
	@DEBUG_VALUE: xStreamBufferNextMessageLengthBytes:xOriginalTail <- [DW_OP_plus_uconst 4] [$sp+0]
	@DEBUG_VALUE: prvReadBytesFromBuffer:xNextTail <- $r7
	@DEBUG_VALUE: prvReadBytesFromBuffer:pxStreamBuffer <- $r4
	@DEBUG_VALUE: prvReadBytesFromBuffer:pucData <- [DW_OP_plus_uconst 8, DW_OP_stack_value] $sp
	@DEBUG_VALUE: prvReadBytesFromBuffer:xMaxCount <- 4
	@DEBUG_VALUE: prvReadBytesFromBuffer:xCount <- 4
	@DEBUG_VALUE: xStreamBufferNextMessageLengthBytes:pxStreamBuffer <- $r4
	@DEBUG_VALUE: xStreamBufferNextMessageLengthBytes:xStreamBuffer <- $r4
	.loc	5 1221 19 is_stmt 1             @ ../../../../../../kernel/freertos/Source/stream_buffer.c:1221:19
	adds	r0, r7, #4
.Ltmp472:
	@DEBUG_VALUE: prvReadBytesFromBuffer:xNextTail <- $r0
	.loc	5 1223 13                       @ ../../../../../../kernel/freertos/Source/stream_buffer.c:1223:13
	subs	r1, r0, r6
	blo	.LBB12_21
.Ltmp473:
@ %bb.20:
	@DEBUG_VALUE: prvReadBytesFromBuffer:xNextTail <- $r0
	@DEBUG_VALUE: xStreamBufferNextMessageLengthBytes:xOriginalTail <- [DW_OP_plus_uconst 4] [$sp+0]
	@DEBUG_VALUE: prvReadBytesFromBuffer:pxStreamBuffer <- $r4
	@DEBUG_VALUE: prvReadBytesFromBuffer:pucData <- [DW_OP_plus_uconst 8, DW_OP_stack_value] $sp
	@DEBUG_VALUE: prvReadBytesFromBuffer:xMaxCount <- 4
	@DEBUG_VALUE: prvReadBytesFromBuffer:xCount <- 4
	@DEBUG_VALUE: xStreamBufferNextMessageLengthBytes:pxStreamBuffer <- $r4
	@DEBUG_VALUE: xStreamBufferNextMessageLengthBytes:xStreamBuffer <- $r4
	.loc	5 0 13 is_stmt 0                @ ../../../../../../kernel/freertos/Source/stream_buffer.c:0:13
	mov	r0, r1
.Ltmp474:
.LBB12_21:
	@DEBUG_VALUE: xStreamBufferNextMessageLengthBytes:xOriginalTail <- [DW_OP_plus_uconst 4] [$sp+0]
	@DEBUG_VALUE: prvReadBytesFromBuffer:pxStreamBuffer <- $r4
	@DEBUG_VALUE: prvReadBytesFromBuffer:pucData <- [DW_OP_plus_uconst 8, DW_OP_stack_value] $sp
	@DEBUG_VALUE: prvReadBytesFromBuffer:xMaxCount <- 4
	@DEBUG_VALUE: prvReadBytesFromBuffer:xCount <- 4
	@DEBUG_VALUE: xStreamBufferNextMessageLengthBytes:pxStreamBuffer <- $r4
	@DEBUG_VALUE: xStreamBufferNextMessageLengthBytes:xStreamBuffer <- $r4
	@DEBUG_VALUE: prvReadBytesFromBuffer:xNextTail <- $r0
	.loc	5 1228 31 is_stmt 1             @ ../../../../../../kernel/freertos/Source/stream_buffer.c:1228:31
	str	r0, [r4]
.Ltmp475:
	.loc	5 881 35                        @ ../../../../../../kernel/freertos/Source/stream_buffer.c:881:35
	ldr	r0, [sp, #4]                    @ 4-byte Reload
.Ltmp476:
	@DEBUG_VALUE: xStreamBufferNextMessageLengthBytes:xOriginalTail <- $r0
	str	r0, [r4]
	.loc	5 880 34                        @ ../../../../../../kernel/freertos/Source/stream_buffer.c:880:34
	ldr	r0, [sp, #8]
.Ltmp477:
	@DEBUG_VALUE: xStreamBufferNextMessageLengthBytes:xReturn <- $r0
	@DEBUG_VALUE: xStreamBufferNextMessageLengthBytes:xReturn <- $r0
	.loc	5 898 5 epilogue_begin          @ ../../../../../../kernel/freertos/Source/stream_buffer.c:898:5
	add	sp, #12
	pop	{r4, r5, r6, r7, pc}
.Ltmp478:
.Lfunc_end12:
	.size	xStreamBufferNextMessageLengthBytes, .Lfunc_end12-xStreamBufferNextMessageLengthBytes
	.cfi_endproc
	.cantunwind
	.fnend
                                        @ -- End function
	.section	.text.xStreamBufferReceiveFromISR,"ax",%progbits
	.hidden	xStreamBufferReceiveFromISR     @ -- Begin function xStreamBufferReceiveFromISR
	.globl	xStreamBufferReceiveFromISR
	.p2align	1
	.type	xStreamBufferReceiveFromISR,%function
	.code	16                              @ @xStreamBufferReceiveFromISR
	.thumb_func
xStreamBufferReceiveFromISR:
.Lfunc_begin13:
	.loc	5 906 0                         @ ../../../../../../kernel/freertos/Source/stream_buffer.c:906:0
	.fnstart
	.cfi_startproc
@ %bb.0:
	@DEBUG_VALUE: xStreamBufferReceiveFromISR:xStreamBuffer <- $r0
	@DEBUG_VALUE: xStreamBufferReceiveFromISR:pvRxData <- $r1
	@DEBUG_VALUE: xStreamBufferReceiveFromISR:xBufferLengthBytes <- $r2
	@DEBUG_VALUE: xStreamBufferReceiveFromISR:pxHigherPriorityTaskWoken <- $r3
	@DEBUG_VALUE: xStreamBufferReceiveFromISR:pxHigherPriorityTaskWoken <- $r3
	@DEBUG_VALUE: xStreamBufferReceiveFromISR:xStreamBuffer <- $r0
	.save	{r4, r5, r6, r7, lr}
	push	{r4, r5, r6, r7, lr}
	.cfi_def_cfa_offset 20
	.cfi_offset lr, -4
	.cfi_offset r7, -8
	.cfi_offset r6, -12
	.cfi_offset r5, -16
	.cfi_offset r4, -20
	.pad	#12
	sub	sp, #12
	.cfi_def_cfa_offset 32
.Ltmp479:
	@DEBUG_VALUE: xStreamBufferReceiveFromISR:pxStreamBuffer <- $r0
	@DEBUG_VALUE: xStreamBufferReceiveFromISR:xReceivedLength <- 0
	@DEBUG_VALUE: xStreamBufferReceiveFromISR:pxStreamBuffer <- $r0
	.loc	5 910 5 prologue_end            @ ../../../../../../kernel/freertos/Source/stream_buffer.c:910:5
	cmp	r1, #0
	beq	.LBB13_10
.Ltmp480:
@ %bb.1:
	@DEBUG_VALUE: xStreamBufferReceiveFromISR:xReceivedLength <- 0
	@DEBUG_VALUE: xStreamBufferReceiveFromISR:pxStreamBuffer <- $r0
	@DEBUG_VALUE: xStreamBufferReceiveFromISR:pxHigherPriorityTaskWoken <- $r3
	@DEBUG_VALUE: xStreamBufferReceiveFromISR:xBufferLengthBytes <- $r2
	@DEBUG_VALUE: xStreamBufferReceiveFromISR:pvRxData <- $r1
	@DEBUG_VALUE: xStreamBufferReceiveFromISR:xStreamBuffer <- $r0
	@DEBUG_VALUE: xStreamBufferReceiveFromISR:pxHigherPriorityTaskWoken <- $r3
	.loc	5 0 5 is_stmt 0                 @ ../../../../../../kernel/freertos/Source/stream_buffer.c:0:5
	mov	r4, r0
.Ltmp481:
	@DEBUG_VALUE: xStreamBufferReceiveFromISR:xStreamBuffer <- $r4
	@DEBUG_VALUE: xStreamBufferReceiveFromISR:pxStreamBuffer <- $r4
	.loc	5 911 5 is_stmt 1               @ ../../../../../../kernel/freertos/Source/stream_buffer.c:911:5
	cmp	r0, #0
	beq	.LBB13_12
.Ltmp482:
@ %bb.2:
	@DEBUG_VALUE: xStreamBufferReceiveFromISR:pxStreamBuffer <- $r4
	@DEBUG_VALUE: xStreamBufferReceiveFromISR:xStreamBuffer <- $r4
	@DEBUG_VALUE: xStreamBufferReceiveFromISR:xReceivedLength <- 0
	@DEBUG_VALUE: xStreamBufferReceiveFromISR:pxHigherPriorityTaskWoken <- $r3
	@DEBUG_VALUE: xStreamBufferReceiveFromISR:xBufferLengthBytes <- $r2
	@DEBUG_VALUE: xStreamBufferReceiveFromISR:pvRxData <- $r1
	.loc	5 0 5 is_stmt 0                 @ ../../../../../../kernel/freertos/Source/stream_buffer.c:0:5
	mov	r5, r3
.Ltmp483:
	@DEBUG_VALUE: xStreamBufferReceiveFromISR:pxHigherPriorityTaskWoken <- $r5
	@DEBUG_VALUE: prvBytesInBuffer:pxStreamBuffer <- $r4
	.loc	5 1244 30 is_stmt 1             @ ../../../../../../kernel/freertos/Source/stream_buffer.c:1244:30
	ldr	r0, [r4, #8]
	.loc	5 1244 56 is_stmt 0             @ ../../../../../../kernel/freertos/Source/stream_buffer.c:1244:56
	ldr	r3, [r4, #4]
	.loc	5 1244 38                       @ ../../../../../../kernel/freertos/Source/stream_buffer.c:1244:38
	adds	r3, r3, r0
.Ltmp484:
	@DEBUG_VALUE: prvBytesInBuffer:xCount <- $r3
	.loc	5 1245 31 is_stmt 1             @ ../../../../../../kernel/freertos/Source/stream_buffer.c:1245:31
	ldr	r6, [r4]
	.loc	5 1245 12 is_stmt 0             @ ../../../../../../kernel/freertos/Source/stream_buffer.c:1245:12
	subs	r3, r3, r6
.Ltmp485:
	@DEBUG_VALUE: prvBytesInBuffer:xCount <- $r3
	.loc	5 1247 9 is_stmt 1              @ ../../../../../../kernel/freertos/Source/stream_buffer.c:1247:9
	subs	r0, r3, r0
	blo	.LBB13_4
.Ltmp486:
@ %bb.3:
	@DEBUG_VALUE: prvBytesInBuffer:xCount <- $r3
	@DEBUG_VALUE: prvBytesInBuffer:pxStreamBuffer <- $r4
	@DEBUG_VALUE: xStreamBufferReceiveFromISR:pxHigherPriorityTaskWoken <- $r5
	@DEBUG_VALUE: xStreamBufferReceiveFromISR:pxStreamBuffer <- $r4
	@DEBUG_VALUE: xStreamBufferReceiveFromISR:xStreamBuffer <- $r4
	@DEBUG_VALUE: xStreamBufferReceiveFromISR:xReceivedLength <- 0
	@DEBUG_VALUE: xStreamBufferReceiveFromISR:xBufferLengthBytes <- $r2
	@DEBUG_VALUE: xStreamBufferReceiveFromISR:pvRxData <- $r1
	.loc	5 0 9 is_stmt 0                 @ ../../../../../../kernel/freertos/Source/stream_buffer.c:0:9
	mov	r3, r0
.Ltmp487:
.LBB13_4:
	@DEBUG_VALUE: xStreamBufferReceiveFromISR:pxHigherPriorityTaskWoken <- $r5
	@DEBUG_VALUE: xStreamBufferReceiveFromISR:pxStreamBuffer <- $r4
	@DEBUG_VALUE: xStreamBufferReceiveFromISR:xStreamBuffer <- $r4
	@DEBUG_VALUE: xStreamBufferReceiveFromISR:xReceivedLength <- 0
	@DEBUG_VALUE: xStreamBufferReceiveFromISR:xBufferLengthBytes <- $r2
	@DEBUG_VALUE: xStreamBufferReceiveFromISR:pvRxData <- $r1
	@DEBUG_VALUE: prvBytesInBuffer:xCount <- $r3
	@DEBUG_VALUE: xStreamBufferReceiveFromISR:xBytesAvailable <- $r3
	.loc	5 918 27 is_stmt 1              @ ../../../../../../kernel/freertos/Source/stream_buffer.c:918:27
	ldrb	r0, [r4, #28]
	lsls	r0, r0, #31
	lsrs	r0, r0, #29
.Ltmp488:
	@DEBUG_VALUE: xStreamBufferReceiveFromISR:xBytesToStoreMessageLength <- $r0
	.loc	5 0 27 is_stmt 0                @ ../../../../../../kernel/freertos/Source/stream_buffer.c:0:27
	movs	r7, #0
.Ltmp489:
	.loc	5 934 9 is_stmt 1               @ ../../../../../../kernel/freertos/Source/stream_buffer.c:934:9
	cmp	r3, r0
	bls	.LBB13_9
.Ltmp490:
@ %bb.5:
	@DEBUG_VALUE: xStreamBufferReceiveFromISR:xBytesToStoreMessageLength <- $r0
	@DEBUG_VALUE: xStreamBufferReceiveFromISR:xBytesAvailable <- $r3
	@DEBUG_VALUE: xStreamBufferReceiveFromISR:pxHigherPriorityTaskWoken <- $r5
	@DEBUG_VALUE: xStreamBufferReceiveFromISR:pxStreamBuffer <- $r4
	@DEBUG_VALUE: xStreamBufferReceiveFromISR:xStreamBuffer <- $r4
	@DEBUG_VALUE: xStreamBufferReceiveFromISR:xReceivedLength <- 0
	@DEBUG_VALUE: xStreamBufferReceiveFromISR:xBufferLengthBytes <- $r2
	@DEBUG_VALUE: xStreamBufferReceiveFromISR:pvRxData <- $r1
	.loc	5 936 27                        @ ../../../../../../kernel/freertos/Source/stream_buffer.c:936:27
	str	r0, [sp]
	mov	r0, r4
.Ltmp491:
	bl	prvReadMessageFromBuffer
.Ltmp492:
	@DEBUG_VALUE: xStreamBufferReceiveFromISR:xBufferLengthBytes <- [DW_OP_LLVM_entry_value 1] $r2
	@DEBUG_VALUE: xStreamBufferReceiveFromISR:pvRxData <- [DW_OP_LLVM_entry_value 1] $r1
	@DEBUG_VALUE: xStreamBufferReceiveFromISR:xReceivedLength <- $r0
	.loc	5 939 13                        @ ../../../../../../kernel/freertos/Source/stream_buffer.c:939:13
	cmp	r0, #0
	beq	.LBB13_9
.Ltmp493:
@ %bb.6:
	@DEBUG_VALUE: xStreamBufferReceiveFromISR:xReceivedLength <- $r0
	@DEBUG_VALUE: xStreamBufferReceiveFromISR:xBufferLengthBytes <- [DW_OP_LLVM_entry_value 1] $r2
	@DEBUG_VALUE: xStreamBufferReceiveFromISR:pvRxData <- [DW_OP_LLVM_entry_value 1] $r1
	@DEBUG_VALUE: xStreamBufferReceiveFromISR:pxHigherPriorityTaskWoken <- $r5
	@DEBUG_VALUE: xStreamBufferReceiveFromISR:pxStreamBuffer <- $r4
	@DEBUG_VALUE: xStreamBufferReceiveFromISR:xStreamBuffer <- $r4
	.loc	5 0 0 is_stmt 0                 @ ../../../../../../kernel/freertos/Source/stream_buffer.c:0:0
	mov	r6, r0
.Ltmp494:
	@DEBUG_VALUE: xStreamBufferReceiveFromISR:xReceivedLength <- $r6
	.loc	5 941 13 is_stmt 1              @ ../../../../../../kernel/freertos/Source/stream_buffer.c:941:13
	bl	ulSetInterruptMaskFromISR
.Ltmp495:
	mov	r1, r0
.Ltmp496:
	@DEBUG_VALUE: uxSavedInterruptStatus <- $r1
	.loc	5 941 13 is_stmt 0              @ ../../../../../../kernel/freertos/Source/stream_buffer.c:941:13
	ldr	r0, [r4, #20]
.Ltmp497:
	.loc	5 941 13                        @ ../../../../../../kernel/freertos/Source/stream_buffer.c:941:13
	cmp	r0, #0
	beq	.LBB13_8
.Ltmp498:
@ %bb.7:
	@DEBUG_VALUE: uxSavedInterruptStatus <- $r1
	@DEBUG_VALUE: xStreamBufferReceiveFromISR:xReceivedLength <- $r6
	@DEBUG_VALUE: xStreamBufferReceiveFromISR:xBufferLengthBytes <- [DW_OP_LLVM_entry_value 1] $r2
	@DEBUG_VALUE: xStreamBufferReceiveFromISR:pvRxData <- [DW_OP_LLVM_entry_value 1] $r1
	@DEBUG_VALUE: xStreamBufferReceiveFromISR:pxHigherPriorityTaskWoken <- $r5
	@DEBUG_VALUE: xStreamBufferReceiveFromISR:pxStreamBuffer <- $r4
	@DEBUG_VALUE: xStreamBufferReceiveFromISR:xStreamBuffer <- $r4
	.loc	5 941 13                        @ ../../../../../../kernel/freertos/Source/stream_buffer.c:941:13
	ldr	r0, [r4, #20]
	movs	r7, #0
	str	r7, [sp]
	str	r5, [sp, #4]
	mov	r5, r1
.Ltmp499:
	@DEBUG_VALUE: uxSavedInterruptStatus <- $r5
	mov	r1, r7
	mov	r2, r7
	mov	r3, r7
	bl	xTaskGenericNotifyFromISR
.Ltmp500:
	.loc	5 0 13                          @ ../../../../../../kernel/freertos/Source/stream_buffer.c:0:13
	mov	r1, r5
	.loc	5 941 13                        @ ../../../../../../kernel/freertos/Source/stream_buffer.c:941:13
	str	r7, [r4, #20]
.Ltmp501:
.LBB13_8:
	@DEBUG_VALUE: xStreamBufferReceiveFromISR:xReceivedLength <- $r6
	@DEBUG_VALUE: xStreamBufferReceiveFromISR:xBufferLengthBytes <- [DW_OP_LLVM_entry_value 1] $r2
	@DEBUG_VALUE: xStreamBufferReceiveFromISR:pvRxData <- [DW_OP_LLVM_entry_value 1] $r1
	@DEBUG_VALUE: xStreamBufferReceiveFromISR:pxStreamBuffer <- $r4
	@DEBUG_VALUE: xStreamBufferReceiveFromISR:xStreamBuffer <- $r4
	.loc	5 941 13                        @ ../../../../../../kernel/freertos/Source/stream_buffer.c:941:13
	mov	r0, r1
	bl	vClearInterruptMaskFromISR
.Ltmp502:
	.loc	5 0 13                          @ ../../../../../../kernel/freertos/Source/stream_buffer.c:0:13
	mov	r7, r6
.Ltmp503:
	@DEBUG_VALUE: xStreamBufferReceiveFromISR:xReceivedLength <- $r7
.LBB13_9:
	@DEBUG_VALUE: xStreamBufferReceiveFromISR:pxStreamBuffer <- $r4
	@DEBUG_VALUE: xStreamBufferReceiveFromISR:xStreamBuffer <- $r4
	@DEBUG_VALUE: xStreamBufferReceiveFromISR:xReceivedLength <- $r7
	.loc	5 955 5 is_stmt 1               @ ../../../../../../kernel/freertos/Source/stream_buffer.c:955:5
	mov	r0, r7
	.loc	5 955 5 epilogue_begin is_stmt 0 @ ../../../../../../kernel/freertos/Source/stream_buffer.c:955:5
	add	sp, #12
	pop	{r4, r5, r6, r7, pc}
.Ltmp504:
.LBB13_10:
	@DEBUG_VALUE: xStreamBufferReceiveFromISR:xReceivedLength <- 0
	@DEBUG_VALUE: xStreamBufferReceiveFromISR:pxStreamBuffer <- $r0
	@DEBUG_VALUE: xStreamBufferReceiveFromISR:pxHigherPriorityTaskWoken <- $r3
	@DEBUG_VALUE: xStreamBufferReceiveFromISR:xBufferLengthBytes <- $r2
	@DEBUG_VALUE: xStreamBufferReceiveFromISR:pvRxData <- $r1
	@DEBUG_VALUE: xStreamBufferReceiveFromISR:xStreamBuffer <- $r0
	.loc	5 910 5 is_stmt 1               @ ../../../../../../kernel/freertos/Source/stream_buffer.c:910:5
	@APP
	cpsid i
	@NO_APP
.Ltmp505:
.LBB13_11:                              @ =>This Inner Loop Header: Depth=1
	@DEBUG_VALUE: xStreamBufferReceiveFromISR:xReceivedLength <- 0
	@DEBUG_VALUE: xStreamBufferReceiveFromISR:pxStreamBuffer <- $r0
	@DEBUG_VALUE: xStreamBufferReceiveFromISR:pxHigherPriorityTaskWoken <- $r3
	@DEBUG_VALUE: xStreamBufferReceiveFromISR:xBufferLengthBytes <- $r2
	@DEBUG_VALUE: xStreamBufferReceiveFromISR:pvRxData <- $r1
	@DEBUG_VALUE: xStreamBufferReceiveFromISR:xStreamBuffer <- $r0
	.loc	5 910 5 is_stmt 0               @ ../../../../../../kernel/freertos/Source/stream_buffer.c:910:5
	b	.LBB13_11
.Ltmp506:
.LBB13_12:
	@DEBUG_VALUE: xStreamBufferReceiveFromISR:pxStreamBuffer <- $r4
	@DEBUG_VALUE: xStreamBufferReceiveFromISR:xStreamBuffer <- $r4
	@DEBUG_VALUE: xStreamBufferReceiveFromISR:xReceivedLength <- 0
	@DEBUG_VALUE: xStreamBufferReceiveFromISR:pxHigherPriorityTaskWoken <- $r3
	@DEBUG_VALUE: xStreamBufferReceiveFromISR:xBufferLengthBytes <- $r2
	@DEBUG_VALUE: xStreamBufferReceiveFromISR:pvRxData <- $r1
	.loc	5 911 5 is_stmt 1               @ ../../../../../../kernel/freertos/Source/stream_buffer.c:911:5
	@APP
	cpsid i
	@NO_APP
.Ltmp507:
.LBB13_13:                              @ =>This Inner Loop Header: Depth=1
	@DEBUG_VALUE: xStreamBufferReceiveFromISR:pxStreamBuffer <- $r4
	@DEBUG_VALUE: xStreamBufferReceiveFromISR:xStreamBuffer <- $r4
	@DEBUG_VALUE: xStreamBufferReceiveFromISR:xReceivedLength <- 0
	@DEBUG_VALUE: xStreamBufferReceiveFromISR:pxHigherPriorityTaskWoken <- $r3
	@DEBUG_VALUE: xStreamBufferReceiveFromISR:xBufferLengthBytes <- $r2
	@DEBUG_VALUE: xStreamBufferReceiveFromISR:pvRxData <- $r1
	.loc	5 911 5 is_stmt 0               @ ../../../../../../kernel/freertos/Source/stream_buffer.c:911:5
	b	.LBB13_13
.Ltmp508:
.Lfunc_end13:
	.size	xStreamBufferReceiveFromISR, .Lfunc_end13-xStreamBufferReceiveFromISR
	.cfi_endproc
	.cantunwind
	.fnend
                                        @ -- End function
	.section	.text.xStreamBufferIsEmpty,"ax",%progbits
	.hidden	xStreamBufferIsEmpty            @ -- Begin function xStreamBufferIsEmpty
	.globl	xStreamBufferIsEmpty
	.p2align	1
	.type	xStreamBufferIsEmpty,%function
	.code	16                              @ @xStreamBufferIsEmpty
	.thumb_func
xStreamBufferIsEmpty:
.Lfunc_begin14:
	.fnstart
	.cfi_startproc
@ %bb.0:
	@DEBUG_VALUE: xStreamBufferIsEmpty:xStreamBuffer <- $r0
	@DEBUG_VALUE: xStreamBufferIsEmpty:pxStreamBuffer <- $r0
	.loc	5 1017 5 prologue_end is_stmt 1 @ ../../../../../../kernel/freertos/Source/stream_buffer.c:1017:5
	cmp	r0, #0
	beq	.LBB14_2
.Ltmp509:
@ %bb.1:
	@DEBUG_VALUE: xStreamBufferIsEmpty:pxStreamBuffer <- $r0
	@DEBUG_VALUE: xStreamBufferIsEmpty:xStreamBuffer <- $r0
	.loc	5 1020 29                       @ ../../../../../../kernel/freertos/Source/stream_buffer.c:1020:29
	ldr	r1, [r0]
.Ltmp510:
	@DEBUG_VALUE: xStreamBufferIsEmpty:xTail <- $r1
	.loc	5 1022 25                       @ ../../../../../../kernel/freertos/Source/stream_buffer.c:1022:25
	ldr	r0, [r0, #4]
.Ltmp511:
	@DEBUG_VALUE: xStreamBufferIsEmpty:xStreamBuffer <- [DW_OP_LLVM_entry_value 1] $r0
	.loc	5 1022 31 is_stmt 0             @ ../../../../../../kernel/freertos/Source/stream_buffer.c:1022:31
	subs	r1, r0, r1
.Ltmp512:
	rsbs	r0, r1, #0
	adcs	r0, r1
.Ltmp513:
	@DEBUG_VALUE: xStreamBufferIsEmpty:xReturn <- $r0
	.loc	5 1031 5 is_stmt 1              @ ../../../../../../kernel/freertos/Source/stream_buffer.c:1031:5
	bx	lr
.Ltmp514:
.LBB14_2:
	@DEBUG_VALUE: xStreamBufferIsEmpty:pxStreamBuffer <- $r0
	@DEBUG_VALUE: xStreamBufferIsEmpty:xStreamBuffer <- $r0
	.loc	5 1017 5                        @ ../../../../../../kernel/freertos/Source/stream_buffer.c:1017:5
	@APP
	cpsid i
	@NO_APP
.Ltmp515:
.LBB14_3:                               @ =>This Inner Loop Header: Depth=1
	@DEBUG_VALUE: xStreamBufferIsEmpty:pxStreamBuffer <- $r0
	@DEBUG_VALUE: xStreamBufferIsEmpty:xStreamBuffer <- $r0
	.loc	5 1017 5 is_stmt 0              @ ../../../../../../kernel/freertos/Source/stream_buffer.c:1017:5
	b	.LBB14_3
.Ltmp516:
.Lfunc_end14:
	.size	xStreamBufferIsEmpty, .Lfunc_end14-xStreamBufferIsEmpty
	.cfi_endproc
	.cantunwind
	.fnend
                                        @ -- End function
	.section	.text.xStreamBufferIsFull,"ax",%progbits
	.hidden	xStreamBufferIsFull             @ -- Begin function xStreamBufferIsFull
	.globl	xStreamBufferIsFull
	.p2align	1
	.type	xStreamBufferIsFull,%function
	.code	16                              @ @xStreamBufferIsFull
	.thumb_func
xStreamBufferIsFull:
.Lfunc_begin15:
	.fnstart
	.cfi_startproc
@ %bb.0:
	@DEBUG_VALUE: xStreamBufferIsFull:xStreamBuffer <- $r0
	@DEBUG_VALUE: xStreamBufferIsFull:pxStreamBuffer <- $r0
	.loc	5 1041 5 prologue_end is_stmt 1 @ ../../../../../../kernel/freertos/Source/stream_buffer.c:1041:5
	cmp	r0, #0
	beq	.LBB15_5
.Ltmp517:
@ %bb.1:
	@DEBUG_VALUE: xStreamBufferIsFull:pxStreamBuffer <- $r0
	@DEBUG_VALUE: xStreamBufferIsFull:xStreamBuffer <- $r0
	@DEBUG_VALUE: xStreamBufferSpacesAvailable:xStreamBuffer <- $r0
	@DEBUG_VALUE: xStreamBufferSpacesAvailable:pxStreamBuffer <- $r0
	.loc	5 490 30                        @ ../../../../../../kernel/freertos/Source/stream_buffer.c:490:30
	ldr	r2, [r0, #8]
	.loc	5 490 56 is_stmt 0              @ ../../../../../../kernel/freertos/Source/stream_buffer.c:490:56
	ldr	r1, [r0]
	.loc	5 490 38                        @ ../../../../../../kernel/freertos/Source/stream_buffer.c:490:38
	adds	r1, r1, r2
.Ltmp518:
	@DEBUG_VALUE: xStreamBufferSpacesAvailable:xSpace <- $r1
	.loc	5 491 31 is_stmt 1              @ ../../../../../../kernel/freertos/Source/stream_buffer.c:491:31
	ldr	r3, [r0, #4]
.Ltmp519:
	@DEBUG_VALUE: xStreamBufferSpacesAvailable:xSpace <- [DW_OP_LLVM_arg 0, DW_OP_LLVM_arg 1, DW_OP_minus, DW_OP_stack_value] $r1, $r3
	.loc	5 492 12                        @ ../../../../../../kernel/freertos/Source/stream_buffer.c:492:12
	mvns	r3, r3
.Ltmp520:
	adds	r1, r1, r3
.Ltmp521:
	@DEBUG_VALUE: xStreamBufferSpacesAvailable:xSpace <- $r1
	.loc	5 494 9                         @ ../../../../../../kernel/freertos/Source/stream_buffer.c:494:9
	subs	r2, r1, r2
	blo	.LBB15_3
.Ltmp522:
@ %bb.2:
	@DEBUG_VALUE: xStreamBufferSpacesAvailable:xSpace <- $r1
	@DEBUG_VALUE: xStreamBufferSpacesAvailable:pxStreamBuffer <- $r0
	@DEBUG_VALUE: xStreamBufferSpacesAvailable:xStreamBuffer <- $r0
	@DEBUG_VALUE: xStreamBufferIsFull:pxStreamBuffer <- $r0
	@DEBUG_VALUE: xStreamBufferIsFull:xStreamBuffer <- $r0
	.loc	5 0 9 is_stmt 0                 @ ../../../../../../kernel/freertos/Source/stream_buffer.c:0:9
	mov	r1, r2
.Ltmp523:
.LBB15_3:
	@DEBUG_VALUE: xStreamBufferIsFull:pxStreamBuffer <- $r0
	@DEBUG_VALUE: xStreamBufferIsFull:xStreamBuffer <- $r0
	@DEBUG_VALUE: xStreamBufferSpacesAvailable:xSpace <- $r1
	.loc	5 1047 27 is_stmt 1             @ ../../../../../../kernel/freertos/Source/stream_buffer.c:1047:27
	ldrb	r0, [r0, #28]
.Ltmp524:
	@DEBUG_VALUE: xStreamBufferIsFull:xStreamBuffer <- [DW_OP_LLVM_entry_value 1] $r0
	.loc	5 0 27 is_stmt 0                @ ../../../../../../kernel/freertos/Source/stream_buffer.c:0:27
	lsls	r0, r0, #31
	lsrs	r0, r0, #29
.Ltmp525:
	@DEBUG_VALUE: xStreamBufferIsFull:xBytesToStoreMessageLength <- $r0
	.loc	5 1057 55 is_stmt 1             @ ../../../../../../kernel/freertos/Source/stream_buffer.c:1057:55
	cmp	r1, r0
	bls	.LBB15_7
.Ltmp526:
@ %bb.4:
	@DEBUG_VALUE: xStreamBufferIsFull:xBytesToStoreMessageLength <- $r0
	@DEBUG_VALUE: xStreamBufferIsFull:xStreamBuffer <- [DW_OP_LLVM_entry_value 1] $r0
	.loc	5 0 55 is_stmt 0                @ ../../../../../../kernel/freertos/Source/stream_buffer.c:0:55
	movs	r0, #0
.Ltmp527:
	@DEBUG_VALUE: xStreamBufferIsFull:xReturn <- $r0
	.loc	5 1066 5 is_stmt 1              @ ../../../../../../kernel/freertos/Source/stream_buffer.c:1066:5
	bx	lr
.Ltmp528:
.LBB15_5:
	@DEBUG_VALUE: xStreamBufferIsFull:pxStreamBuffer <- $r0
	@DEBUG_VALUE: xStreamBufferIsFull:xStreamBuffer <- $r0
	.loc	5 1041 5                        @ ../../../../../../kernel/freertos/Source/stream_buffer.c:1041:5
	@APP
	cpsid i
	@NO_APP
.Ltmp529:
.LBB15_6:                               @ =>This Inner Loop Header: Depth=1
	@DEBUG_VALUE: xStreamBufferIsFull:pxStreamBuffer <- $r0
	@DEBUG_VALUE: xStreamBufferIsFull:xStreamBuffer <- $r0
	.loc	5 1041 5 is_stmt 0              @ ../../../../../../kernel/freertos/Source/stream_buffer.c:1041:5
	b	.LBB15_6
.Ltmp530:
.LBB15_7:
	@DEBUG_VALUE: xStreamBufferIsFull:xBytesToStoreMessageLength <- $r0
	@DEBUG_VALUE: xStreamBufferIsFull:xStreamBuffer <- [DW_OP_LLVM_entry_value 1] $r0
	.loc	5 0 5                           @ ../../../../../../kernel/freertos/Source/stream_buffer.c:0:5
	movs	r0, #1
.Ltmp531:
	@DEBUG_VALUE: xStreamBufferIsFull:xReturn <- $r0
	.loc	5 1066 5 is_stmt 1              @ ../../../../../../kernel/freertos/Source/stream_buffer.c:1066:5
	bx	lr
.Ltmp532:
.Lfunc_end15:
	.size	xStreamBufferIsFull, .Lfunc_end15-xStreamBufferIsFull
	.cfi_endproc
	.cantunwind
	.fnend
                                        @ -- End function
	.section	.text.xStreamBufferSendCompletedFromISR,"ax",%progbits
	.hidden	xStreamBufferSendCompletedFromISR @ -- Begin function xStreamBufferSendCompletedFromISR
	.globl	xStreamBufferSendCompletedFromISR
	.p2align	1
	.type	xStreamBufferSendCompletedFromISR,%function
	.code	16                              @ @xStreamBufferSendCompletedFromISR
	.thumb_func
xStreamBufferSendCompletedFromISR:
.Lfunc_begin16:
	.loc	5 1072 0                        @ ../../../../../../kernel/freertos/Source/stream_buffer.c:1072:0
	.fnstart
	.cfi_startproc
@ %bb.0:
	@DEBUG_VALUE: xStreamBufferSendCompletedFromISR:xStreamBuffer <- $r0
	@DEBUG_VALUE: xStreamBufferSendCompletedFromISR:pxHigherPriorityTaskWoken <- $r1
	@DEBUG_VALUE: xStreamBufferSendCompletedFromISR:pxHigherPriorityTaskWoken <- $r1
	@DEBUG_VALUE: xStreamBufferSendCompletedFromISR:xStreamBuffer <- $r0
	.save	{r4, r5, r6, r7, lr}
	push	{r4, r5, r6, r7, lr}
	.cfi_def_cfa_offset 20
	.cfi_offset lr, -4
	.cfi_offset r7, -8
	.cfi_offset r6, -12
	.cfi_offset r5, -16
	.cfi_offset r4, -20
	.pad	#12
	sub	sp, #12
	.cfi_def_cfa_offset 32
.Ltmp533:
	@DEBUG_VALUE: xStreamBufferSendCompletedFromISR:pxStreamBuffer <- $r0
	@DEBUG_VALUE: xStreamBufferSendCompletedFromISR:pxStreamBuffer <- $r0
	.loc	5 1077 5 prologue_end           @ ../../../../../../kernel/freertos/Source/stream_buffer.c:1077:5
	cmp	r0, #0
	beq	.LBB16_3
.Ltmp534:
@ %bb.1:
	@DEBUG_VALUE: xStreamBufferSendCompletedFromISR:pxStreamBuffer <- $r0
	@DEBUG_VALUE: xStreamBufferSendCompletedFromISR:pxHigherPriorityTaskWoken <- $r1
	@DEBUG_VALUE: xStreamBufferSendCompletedFromISR:xStreamBuffer <- $r0
	.loc	5 0 5 is_stmt 0                 @ ../../../../../../kernel/freertos/Source/stream_buffer.c:0:5
	mov	r6, r1
.Ltmp535:
	@DEBUG_VALUE: xStreamBufferSendCompletedFromISR:pxHigherPriorityTaskWoken <- $r6
	mov	r5, r0
.Ltmp536:
	@DEBUG_VALUE: xStreamBufferSendCompletedFromISR:xStreamBuffer <- $r5
	@DEBUG_VALUE: xStreamBufferSendCompletedFromISR:pxStreamBuffer <- $r5
	.loc	5 1079 46 is_stmt 1             @ ../../../../../../kernel/freertos/Source/stream_buffer.c:1079:46
	bl	ulSetInterruptMaskFromISR
.Ltmp537:
	mov	r4, r0
.Ltmp538:
	@DEBUG_VALUE: xStreamBufferSendCompletedFromISR:uxSavedInterruptStatus <- $r4
	.loc	5 1081 33                       @ ../../../../../../kernel/freertos/Source/stream_buffer.c:1081:33
	ldr	r0, [r5, #16]
.Ltmp539:
	.loc	5 1081 13 is_stmt 0             @ ../../../../../../kernel/freertos/Source/stream_buffer.c:1081:13
	cmp	r0, #0
	beq	.LBB16_5
.Ltmp540:
@ %bb.2:
	@DEBUG_VALUE: xStreamBufferSendCompletedFromISR:uxSavedInterruptStatus <- $r4
	@DEBUG_VALUE: xStreamBufferSendCompletedFromISR:pxStreamBuffer <- $r5
	@DEBUG_VALUE: xStreamBufferSendCompletedFromISR:xStreamBuffer <- $r5
	@DEBUG_VALUE: xStreamBufferSendCompletedFromISR:pxHigherPriorityTaskWoken <- $r6
	.loc	5 1083 22 is_stmt 1             @ ../../../../../../kernel/freertos/Source/stream_buffer.c:1083:22
	ldr	r0, [r5, #16]
	movs	r7, #0
	str	r7, [sp]
	str	r6, [sp, #4]
	mov	r1, r7
	mov	r2, r7
	mov	r3, r7
	bl	xTaskGenericNotifyFromISR
.Ltmp541:
	.loc	5 1087 55                       @ ../../../../../../kernel/freertos/Source/stream_buffer.c:1087:55
	str	r7, [r5, #16]
	movs	r5, #1
.Ltmp542:
	@DEBUG_VALUE: xStreamBufferSendCompletedFromISR:xStreamBuffer <- [DW_OP_LLVM_entry_value 1] $r0
	@DEBUG_VALUE: xStreamBufferSendCompletedFromISR:xReturn <- 1
	.loc	5 0 55 is_stmt 0                @ ../../../../../../kernel/freertos/Source/stream_buffer.c:0:55
	b	.LBB16_6
.Ltmp543:
.LBB16_3:
	@DEBUG_VALUE: xStreamBufferSendCompletedFromISR:pxStreamBuffer <- $r0
	@DEBUG_VALUE: xStreamBufferSendCompletedFromISR:pxHigherPriorityTaskWoken <- $r1
	@DEBUG_VALUE: xStreamBufferSendCompletedFromISR:xStreamBuffer <- $r0
	.loc	5 1077 5 is_stmt 1              @ ../../../../../../kernel/freertos/Source/stream_buffer.c:1077:5
	@APP
	cpsid i
	@NO_APP
.Ltmp544:
.LBB16_4:                               @ =>This Inner Loop Header: Depth=1
	@DEBUG_VALUE: xStreamBufferSendCompletedFromISR:pxStreamBuffer <- $r0
	@DEBUG_VALUE: xStreamBufferSendCompletedFromISR:pxHigherPriorityTaskWoken <- $r1
	@DEBUG_VALUE: xStreamBufferSendCompletedFromISR:xStreamBuffer <- $r0
	.loc	5 1077 5 is_stmt 0              @ ../../../../../../kernel/freertos/Source/stream_buffer.c:1077:5
	b	.LBB16_4
.Ltmp545:
.LBB16_5:
	@DEBUG_VALUE: xStreamBufferSendCompletedFromISR:uxSavedInterruptStatus <- $r4
	@DEBUG_VALUE: xStreamBufferSendCompletedFromISR:pxStreamBuffer <- $r5
	@DEBUG_VALUE: xStreamBufferSendCompletedFromISR:xStreamBuffer <- $r5
	@DEBUG_VALUE: xStreamBufferSendCompletedFromISR:pxHigherPriorityTaskWoken <- $r6
	.loc	5 0 5                           @ ../../../../../../kernel/freertos/Source/stream_buffer.c:0:5
	movs	r5, #0
.Ltmp546:
	@DEBUG_VALUE: xStreamBufferSendCompletedFromISR:xStreamBuffer <- [DW_OP_LLVM_entry_value 1] $r0
.LBB16_6:
	@DEBUG_VALUE: xStreamBufferSendCompletedFromISR:xStreamBuffer <- [DW_OP_LLVM_entry_value 1] $r0
	@DEBUG_VALUE: xStreamBufferSendCompletedFromISR:uxSavedInterruptStatus <- $r4
	@DEBUG_VALUE: xStreamBufferSendCompletedFromISR:pxHigherPriorityTaskWoken <- $r6
	@DEBUG_VALUE: xStreamBufferSendCompletedFromISR:xReturn <- $r5
	.loc	5 1095 5 is_stmt 1              @ ../../../../../../kernel/freertos/Source/stream_buffer.c:1095:5
	mov	r0, r4
	bl	vClearInterruptMaskFromISR
.Ltmp547:
	.loc	5 1097 5                        @ ../../../../../../kernel/freertos/Source/stream_buffer.c:1097:5
	mov	r0, r5
	.loc	5 1097 5 epilogue_begin is_stmt 0 @ ../../../../../../kernel/freertos/Source/stream_buffer.c:1097:5
	add	sp, #12
	pop	{r4, r5, r6, r7, pc}
.Ltmp548:
.Lfunc_end16:
	.size	xStreamBufferSendCompletedFromISR, .Lfunc_end16-xStreamBufferSendCompletedFromISR
	.cfi_endproc
	.cantunwind
	.fnend
                                        @ -- End function
	.section	.text.xStreamBufferReceiveCompletedFromISR,"ax",%progbits
	.hidden	xStreamBufferReceiveCompletedFromISR @ -- Begin function xStreamBufferReceiveCompletedFromISR
	.globl	xStreamBufferReceiveCompletedFromISR
	.p2align	1
	.type	xStreamBufferReceiveCompletedFromISR,%function
	.code	16                              @ @xStreamBufferReceiveCompletedFromISR
	.thumb_func
xStreamBufferReceiveCompletedFromISR:
.Lfunc_begin17:
	.loc	5 1103 0 is_stmt 1              @ ../../../../../../kernel/freertos/Source/stream_buffer.c:1103:0
	.fnstart
	.cfi_startproc
@ %bb.0:
	@DEBUG_VALUE: xStreamBufferReceiveCompletedFromISR:xStreamBuffer <- $r0
	@DEBUG_VALUE: xStreamBufferReceiveCompletedFromISR:pxHigherPriorityTaskWoken <- $r1
	@DEBUG_VALUE: xStreamBufferReceiveCompletedFromISR:pxHigherPriorityTaskWoken <- $r1
	@DEBUG_VALUE: xStreamBufferReceiveCompletedFromISR:xStreamBuffer <- $r0
	.save	{r4, r5, r6, r7, lr}
	push	{r4, r5, r6, r7, lr}
	.cfi_def_cfa_offset 20
	.cfi_offset lr, -4
	.cfi_offset r7, -8
	.cfi_offset r6, -12
	.cfi_offset r5, -16
	.cfi_offset r4, -20
	.pad	#12
	sub	sp, #12
	.cfi_def_cfa_offset 32
.Ltmp549:
	@DEBUG_VALUE: xStreamBufferReceiveCompletedFromISR:pxStreamBuffer <- $r0
	@DEBUG_VALUE: xStreamBufferReceiveCompletedFromISR:pxStreamBuffer <- $r0
	.loc	5 1108 5 prologue_end           @ ../../../../../../kernel/freertos/Source/stream_buffer.c:1108:5
	cmp	r0, #0
	beq	.LBB17_3
.Ltmp550:
@ %bb.1:
	@DEBUG_VALUE: xStreamBufferReceiveCompletedFromISR:pxStreamBuffer <- $r0
	@DEBUG_VALUE: xStreamBufferReceiveCompletedFromISR:pxHigherPriorityTaskWoken <- $r1
	@DEBUG_VALUE: xStreamBufferReceiveCompletedFromISR:xStreamBuffer <- $r0
	.loc	5 0 5 is_stmt 0                 @ ../../../../../../kernel/freertos/Source/stream_buffer.c:0:5
	mov	r6, r1
.Ltmp551:
	@DEBUG_VALUE: xStreamBufferReceiveCompletedFromISR:pxHigherPriorityTaskWoken <- $r6
	mov	r5, r0
.Ltmp552:
	@DEBUG_VALUE: xStreamBufferReceiveCompletedFromISR:xStreamBuffer <- $r5
	@DEBUG_VALUE: xStreamBufferReceiveCompletedFromISR:pxStreamBuffer <- $r5
	.loc	5 1110 46 is_stmt 1             @ ../../../../../../kernel/freertos/Source/stream_buffer.c:1110:46
	bl	ulSetInterruptMaskFromISR
.Ltmp553:
	mov	r4, r0
.Ltmp554:
	@DEBUG_VALUE: xStreamBufferReceiveCompletedFromISR:uxSavedInterruptStatus <- $r4
	.loc	5 1112 33                       @ ../../../../../../kernel/freertos/Source/stream_buffer.c:1112:33
	ldr	r0, [r5, #20]
.Ltmp555:
	.loc	5 1112 13 is_stmt 0             @ ../../../../../../kernel/freertos/Source/stream_buffer.c:1112:13
	cmp	r0, #0
	beq	.LBB17_5
.Ltmp556:
@ %bb.2:
	@DEBUG_VALUE: xStreamBufferReceiveCompletedFromISR:uxSavedInterruptStatus <- $r4
	@DEBUG_VALUE: xStreamBufferReceiveCompletedFromISR:pxStreamBuffer <- $r5
	@DEBUG_VALUE: xStreamBufferReceiveCompletedFromISR:xStreamBuffer <- $r5
	@DEBUG_VALUE: xStreamBufferReceiveCompletedFromISR:pxHigherPriorityTaskWoken <- $r6
	.loc	5 1114 22 is_stmt 1             @ ../../../../../../kernel/freertos/Source/stream_buffer.c:1114:22
	ldr	r0, [r5, #20]
	movs	r7, #0
	str	r7, [sp]
	str	r6, [sp, #4]
	mov	r1, r7
	mov	r2, r7
	mov	r3, r7
	bl	xTaskGenericNotifyFromISR
.Ltmp557:
	.loc	5 1118 52                       @ ../../../../../../kernel/freertos/Source/stream_buffer.c:1118:52
	str	r7, [r5, #20]
	movs	r5, #1
.Ltmp558:
	@DEBUG_VALUE: xStreamBufferReceiveCompletedFromISR:xStreamBuffer <- [DW_OP_LLVM_entry_value 1] $r0
	@DEBUG_VALUE: xStreamBufferReceiveCompletedFromISR:xReturn <- 1
	.loc	5 0 52 is_stmt 0                @ ../../../../../../kernel/freertos/Source/stream_buffer.c:0:52
	b	.LBB17_6
.Ltmp559:
.LBB17_3:
	@DEBUG_VALUE: xStreamBufferReceiveCompletedFromISR:pxStreamBuffer <- $r0
	@DEBUG_VALUE: xStreamBufferReceiveCompletedFromISR:pxHigherPriorityTaskWoken <- $r1
	@DEBUG_VALUE: xStreamBufferReceiveCompletedFromISR:xStreamBuffer <- $r0
	.loc	5 1108 5 is_stmt 1              @ ../../../../../../kernel/freertos/Source/stream_buffer.c:1108:5
	@APP
	cpsid i
	@NO_APP
.Ltmp560:
.LBB17_4:                               @ =>This Inner Loop Header: Depth=1
	@DEBUG_VALUE: xStreamBufferReceiveCompletedFromISR:pxStreamBuffer <- $r0
	@DEBUG_VALUE: xStreamBufferReceiveCompletedFromISR:pxHigherPriorityTaskWoken <- $r1
	@DEBUG_VALUE: xStreamBufferReceiveCompletedFromISR:xStreamBuffer <- $r0
	.loc	5 1108 5 is_stmt 0              @ ../../../../../../kernel/freertos/Source/stream_buffer.c:1108:5
	b	.LBB17_4
.Ltmp561:
.LBB17_5:
	@DEBUG_VALUE: xStreamBufferReceiveCompletedFromISR:uxSavedInterruptStatus <- $r4
	@DEBUG_VALUE: xStreamBufferReceiveCompletedFromISR:pxStreamBuffer <- $r5
	@DEBUG_VALUE: xStreamBufferReceiveCompletedFromISR:xStreamBuffer <- $r5
	@DEBUG_VALUE: xStreamBufferReceiveCompletedFromISR:pxHigherPriorityTaskWoken <- $r6
	.loc	5 0 5                           @ ../../../../../../kernel/freertos/Source/stream_buffer.c:0:5
	movs	r5, #0
.Ltmp562:
	@DEBUG_VALUE: xStreamBufferReceiveCompletedFromISR:xStreamBuffer <- [DW_OP_LLVM_entry_value 1] $r0
.LBB17_6:
	@DEBUG_VALUE: xStreamBufferReceiveCompletedFromISR:xStreamBuffer <- [DW_OP_LLVM_entry_value 1] $r0
	@DEBUG_VALUE: xStreamBufferReceiveCompletedFromISR:uxSavedInterruptStatus <- $r4
	@DEBUG_VALUE: xStreamBufferReceiveCompletedFromISR:pxHigherPriorityTaskWoken <- $r6
	@DEBUG_VALUE: xStreamBufferReceiveCompletedFromISR:xReturn <- $r5
	.loc	5 1126 5 is_stmt 1              @ ../../../../../../kernel/freertos/Source/stream_buffer.c:1126:5
	mov	r0, r4
	bl	vClearInterruptMaskFromISR
.Ltmp563:
	.loc	5 1128 5                        @ ../../../../../../kernel/freertos/Source/stream_buffer.c:1128:5
	mov	r0, r5
	.loc	5 1128 5 epilogue_begin is_stmt 0 @ ../../../../../../kernel/freertos/Source/stream_buffer.c:1128:5
	add	sp, #12
	pop	{r4, r5, r6, r7, pc}
.Ltmp564:
.Lfunc_end17:
	.size	xStreamBufferReceiveCompletedFromISR, .Lfunc_end17-xStreamBufferReceiveCompletedFromISR
	.cfi_endproc
	.cantunwind
	.fnend
                                        @ -- End function
	.section	.text.uxStreamBufferGetStreamBufferNumber,"ax",%progbits
	.hidden	uxStreamBufferGetStreamBufferNumber @ -- Begin function uxStreamBufferGetStreamBufferNumber
	.globl	uxStreamBufferGetStreamBufferNumber
	.p2align	1
	.type	uxStreamBufferGetStreamBufferNumber,%function
	.code	16                              @ @uxStreamBufferGetStreamBufferNumber
	.thumb_func
uxStreamBufferGetStreamBufferNumber:
.Lfunc_begin18:
	.fnstart
	.cfi_startproc
@ %bb.0:
	@DEBUG_VALUE: uxStreamBufferGetStreamBufferNumber:xStreamBuffer <- $r0
	.loc	5 1290 31 prologue_end is_stmt 1 @ ../../../../../../kernel/freertos/Source/stream_buffer.c:1290:31
	ldr	r0, [r0, #32]
.Ltmp565:
	@DEBUG_VALUE: uxStreamBufferGetStreamBufferNumber:xStreamBuffer <- [DW_OP_LLVM_entry_value 1] $r0
	.loc	5 1290 9 is_stmt 0              @ ../../../../../../kernel/freertos/Source/stream_buffer.c:1290:9
	bx	lr
.Ltmp566:
.Lfunc_end18:
	.size	uxStreamBufferGetStreamBufferNumber, .Lfunc_end18-uxStreamBufferGetStreamBufferNumber
	.cfi_endproc
	.cantunwind
	.fnend
                                        @ -- End function
	.section	.text.vStreamBufferSetStreamBufferNumber,"ax",%progbits
	.hidden	vStreamBufferSetStreamBufferNumber @ -- Begin function vStreamBufferSetStreamBufferNumber
	.globl	vStreamBufferSetStreamBufferNumber
	.p2align	1
	.type	vStreamBufferSetStreamBufferNumber,%function
	.code	16                              @ @vStreamBufferSetStreamBufferNumber
	.thumb_func
vStreamBufferSetStreamBufferNumber:
.Lfunc_begin19:
	.fnstart
	.cfi_startproc
@ %bb.0:
	@DEBUG_VALUE: vStreamBufferSetStreamBufferNumber:xStreamBuffer <- $r0
	@DEBUG_VALUE: vStreamBufferSetStreamBufferNumber:uxStreamBufferNumber <- $r1
	.loc	5 1301 45 prologue_end is_stmt 1 @ ../../../../../../kernel/freertos/Source/stream_buffer.c:1301:45
	str	r1, [r0, #32]
	.loc	5 1302 5                        @ ../../../../../../kernel/freertos/Source/stream_buffer.c:1302:5
	bx	lr
.Ltmp567:
.Lfunc_end19:
	.size	vStreamBufferSetStreamBufferNumber, .Lfunc_end19-vStreamBufferSetStreamBufferNumber
	.cfi_endproc
	.cantunwind
	.fnend
                                        @ -- End function
	.section	.text.ucStreamBufferGetStreamBufferType,"ax",%progbits
	.hidden	ucStreamBufferGetStreamBufferType @ -- Begin function ucStreamBufferGetStreamBufferType
	.globl	ucStreamBufferGetStreamBufferType
	.p2align	1
	.type	ucStreamBufferGetStreamBufferType,%function
	.code	16                              @ @ucStreamBufferGetStreamBufferType
	.thumb_func
ucStreamBufferGetStreamBufferType:
.Lfunc_begin20:
	.fnstart
	.cfi_startproc
@ %bb.0:
	@DEBUG_VALUE: ucStreamBufferGetStreamBufferType:xStreamBuffer <- $r0
	.loc	5 1311 32 prologue_end          @ ../../../../../../kernel/freertos/Source/stream_buffer.c:1311:32
	ldrb	r1, [r0, #28]
	movs	r0, #1
.Ltmp568:
	@DEBUG_VALUE: ucStreamBufferGetStreamBufferType:xStreamBuffer <- [DW_OP_LLVM_entry_value 1] $r0
	.loc	5 1311 9 is_stmt 0              @ ../../../../../../kernel/freertos/Source/stream_buffer.c:1311:9
	ands	r0, r1
	bx	lr
.Ltmp569:
.Lfunc_end20:
	.size	ucStreamBufferGetStreamBufferType, .Lfunc_end20-ucStreamBufferGetStreamBufferType
	.cfi_endproc
	.cantunwind
	.fnend
                                        @ -- End function
	.file	7 "D:\\TI_M0G3507\\mspm0_sdk_2_05_00_05\\kernel\\freertos\\builds\\LP_MSPM0G3507\\release\\keil" "../../../../../../kernel/freertos/Source/include\\FreeRTOS.h"
	.section	".note.GNU-stack","",%progbits
	.eabi_attribute	30, 1	@ Tag_ABI_optimization_goals
	.ARM_attribute	16, 1	@ Tag_AV_eba