	.text
	.syntax unified
	.eabi_attribute	67, "2.09"	@ Tag_conformance
	.cpu	cortex-m0plus
	.eabi_attribute	6, 12	@ Tag_CPU_arch
	.eabi_attribute	7, 77	@ Tag_CPU_arch_profile
	.eabi_attribute	8, 0	@ Tag_ARM_ISA_use
	.eabi_attribute	9, 1	@ Tag_THUMB_ISA_use
	.eabi_attribute	34, 0	@ Tag_CPU_unaligned_access
	.eabi_attribute	17, 1	@ Tag_ABI_PCS_GOT_use
	.eabi_attribute	20, 2	@ Tag_ABI_FP_denormal
	.eabi_attribute	21, 0	@ Tag_ABI_FP_exceptions
	.eabi_attribute	23, 1	@ Tag_ABI_FP_number_model
	.eabi_attribute	24, 1	@ Tag_ABI_align_needed
	.eabi_attribute	25, 1	@ Tag_ABI_align_preserved
	.eabi_attribute	38, 1	@ Tag_ABI_FP_16bit_format
	.eabi_attribute	18, 2	@ Tag_ABI_PCS_wchar_t
	.eabi_attribute	26, 1	@ Tag_ABI_enum_size
	.eabi_attribute	14, 0	@ Tag_ABI_PCS_R9_use
	.file	"SystemP_freertos.c"
	.file	1 "D:\\TI_M0G3507\\mspm0_sdk_2_05_00_05\\kernel\\freertos\\builds\\LP_MSPM0G3507\\release\\keil" "../../../../../../kernel/freertos/dpl/SystemP_freertos.c"
	.file	2 "I:\\Keil5\\keil5_mdk\\ARM\\ARMCLANG\\Bin\\..\\include" "stdint.h"
	.section	.text.SystemP_snprintf,"ax",%progbits
	.hidden	SystemP_snprintf                @ -- Begin function SystemP_snprintf
	.globl	SystemP_snprintf
	.p2align	1
	.type	SystemP_snprintf,%function
	.code	16                              @ @SystemP_snprintf
	.thumb_func
SystemP_snprintf:
.Lfunc_begin0:
	.loc	1 94 0                          @ ../../../../../../kernel/freertos/dpl/SystemP_freertos.c:94:0
	.fnstart
	.cfi_sections .debug_frame
	.cfi_startproc
@ %bb.0:
	@DEBUG_VALUE: SystemP_snprintf:buf <- $r0
	@DEBUG_VALUE: SystemP_snprintf:n <- $r1
	@DEBUG_VALUE: SystemP_snprintf:format <- $r2
	.pad	#4
	sub	sp, #4
	.cfi_def_cfa_offset 4
	.save	{r7, lr}
	push	{r7, lr}
	.cfi_def_cfa_offset 12
	.cfi_offset lr, -8
	.cfi_offset r7, -12
	.pad	#4
	sub	sp, #4
	.cfi_def_cfa_offset 16
	str	r3, [sp, #12]
	add	r3, sp, #12
.Ltmp0:
	.loc	1 98 5 prologue_end             @ ../../../../../../kernel/freertos/dpl/SystemP_freertos.c:98:5
	str	r3, [sp]
	.loc	1 99 11                         @ ../../../../../../kernel/freertos/dpl/SystemP_freertos.c:99:11
	bl	doPrint
.Ltmp1:
	@DEBUG_VALUE: SystemP_snprintf:format <- [DW_OP_LLVM_entry_value 1] $r2
	@DEBUG_VALUE: SystemP_snprintf:n <- [DW_OP_LLVM_entry_value 1] $r1
	@DEBUG_VALUE: SystemP_snprintf:buf <- [DW_OP_LLVM_entry_value 1] $r0
	@DEBUG_VALUE: SystemP_snprintf:ret <- $r0
	.loc	1 102 5 epilogue_begin          @ ../../../../../../kernel/freertos/dpl/SystemP_freertos.c:102:5
	add	sp, #4
	pop	{r7}
	pop	{r1}
	add	sp, #4
	bx	r1
.Ltmp2:
.Lfunc_end0:
	.size	SystemP_snprintf, .Lfunc_end0-SystemP_snprintf
	.cfi_endproc
	.cantunwind
	.fnend
                                        @ -- End function
	.section	.text.doPrint,"ax",%progbits
	.p2align	2                               @ -- Begin function doPrint
	.type	doPrint,%function
	.code	16                              @ @doPrint
	.thumb_func
doPrint:
.Lfunc_begin1:
	.loc	1 120 0                         @ ../../../../../../kernel/freertos/dpl/SystemP_freertos.c:120:0
	.fnstart
	.cfi_startproc
@ %bb.0:
	@DEBUG_VALUE: doPrint:buf <- $r0
	@DEBUG_VALUE: doPrint:n <- $r1
	@DEBUG_VALUE: doPrint:fmt <- $r2
	@DEBUG_VALUE: doPrint:buf <- $r0
	.save	{r4, r5, r6, r7, lr}
	push	{r4, r5, r6, r7, lr}
	.cfi_def_cfa_offset 20
	.cfi_offset lr, -4
	.cfi_offset r7, -8
	.cfi_offset r6, -12
	.cfi_offset r5, -16
	.cfi_offset r4, -20
	.pad	#100
	sub	sp, #100
	.cfi_def_cfa_offset 120
.Ltmp3:
	@DEBUG_VALUE: doPrint:res <- 0
	.loc	1 127 9 prologue_end            @ ../../../../../../kernel/freertos/dpl/SystemP_freertos.c:127:9
	cmp	r2, #0
	bne	.LBB1_1
	b	.LBB1_170
.Ltmp4:
.LBB1_1:
	@DEBUG_VALUE: doPrint:res <- 0
	@DEBUG_VALUE: doPrint:fmt <- $r2
	@DEBUG_VALUE: doPrint:n <- $r1
	@DEBUG_VALUE: doPrint:buf <- $r0
	.loc	1 0 9 is_stmt 0                 @ ../../../../../../kernel/freertos/dpl/SystemP_freertos.c:0:9
	mov	r6, r0
.Ltmp5:
	@DEBUG_VALUE: doPrint:buf <- $r6
	str	r3, [sp, #80]                   @ 4-byte Spill
	str	r2, [sp, #76]                   @ 4-byte Spill
.Ltmp6:
	@DEBUG_VALUE: doPrint:fmt <- [DW_OP_plus_uconst 76] [$sp+0]
	add	r0, sp, #84
	mov	r2, r0
	adds	r2, #8
	str	r2, [sp, #28]                   @ 4-byte Spill
	mov	r2, r0
	adds	r2, #12
.Ltmp7:
	@DEBUG_VALUE: doPrint:va <- [DW_OP_plus_uconst 80] [$sp+0]
	str	r2, [sp, #24]                   @ 4-byte Spill
	adds	r0, #16
	str	r0, [sp, #44]                   @ 4-byte Spill
	movs	r4, #0
	str	r4, [sp, #60]                   @ 4-byte Spill
.Ltmp8:
.LBB1_2:                                @ =>This Loop Header: Depth=1
                                        @     Child Loop BB1_4 Depth 2
                                        @     Child Loop BB1_15 Depth 2
                                        @     Child Loop BB1_47 Depth 2
                                        @     Child Loop BB1_65 Depth 2
                                        @     Child Loop BB1_78 Depth 2
                                        @     Child Loop BB1_93 Depth 2
                                        @     Child Loop BB1_111 Depth 2
                                        @     Child Loop BB1_42 Depth 2
                                        @     Child Loop BB1_134 Depth 2
                                        @     Child Loop BB1_153 Depth 2
                                        @     Child Loop BB1_163 Depth 2
	@DEBUG_VALUE: doPrint:buf <- $r6
	@DEBUG_VALUE: doPrint:n <- $r1
	ldr	r5, [sp, #60]                   @ 4-byte Reload
	ldr	r2, [sp, #76]                   @ 4-byte Reload
.Ltmp9:
	@DEBUG_VALUE: doPrint:fmt <- $r2
	b	.LBB1_4
.Ltmp10:
.LBB1_3:                                @   in Loop: Header=BB1_4 Depth=2
	@DEBUG_VALUE: doPrint:c <- $r0
	@DEBUG_VALUE: doPrint:res <- [DW_OP_LLVM_arg 0, DW_OP_LLVM_arg 1, DW_OP_plus, DW_OP_stack_value] $r5, $r4
	@DEBUG_VALUE: doPrint:fmt <- [DW_OP_LLVM_arg 0, DW_OP_consts 1, DW_OP_LLVM_arg 1, DW_OP_plus, DW_OP_plus, DW_OP_stack_value] $r5, $r2
	@DEBUG_VALUE: doPrint:va <- [DW_OP_plus_uconst 80] [$sp+0]
	@DEBUG_VALUE: doPrint:buf <- $r6
	@DEBUG_VALUE: doPrint:n <- $r1
	@DEBUG_VALUE: doPrint:buf <- $r6
	@DEBUG_VALUE: doPrint:n <- $r1
	@DEBUG_VALUE: doPrint:res <- [DW_OP_LLVM_arg 0, DW_OP_consts 1, DW_OP_LLVM_arg 1, DW_OP_plus, DW_OP_plus, DW_OP_stack_value] $r5, $r4
	.loc	1 138 9 is_stmt 1               @ ../../../../../../kernel/freertos/dpl/SystemP_freertos.c:138:9
	adds	r5, r5, #1
.Ltmp11:
.LBB1_4:                                @   Parent Loop BB1_2 Depth=1
                                        @ =>  This Inner Loop Header: Depth=2
	@DEBUG_VALUE: doPrint:buf <- $r6
	@DEBUG_VALUE: doPrint:n <- $r1
	@DEBUG_VALUE: doPrint:buf <- $r6
	@DEBUG_VALUE: doPrint:n <- $r1
	@DEBUG_VALUE: doPrint:fmt <- [DW_OP_LLVM_arg 0, DW_OP_consts 1, DW_OP_LLVM_arg 1, DW_OP_plus, DW_OP_plus, DW_OP_stack_value] $r5, $r2
	@DEBUG_VALUE: doPrint:res <- [DW_OP_LLVM_arg 0, DW_OP_LLVM_arg 1, DW_OP_plus, DW_OP_stack_value] $r5, $r4
	@DEBUG_VALUE: doPrint:va <- [DW_OP_plus_uconst 80] [$sp+0]
	.loc	1 132 17                        @ ../../../../../../kernel/freertos/dpl/SystemP_freertos.c:132:17
	ldrb	r0, [r2, r5]
.Ltmp12:
	@DEBUG_VALUE: doPrint:c <- $r0
	.loc	1 132 5 is_stmt 0               @ ../../../../../../kernel/freertos/dpl/SystemP_freertos.c:132:5
	cmp	r0, #0
	bne	.LBB1_5
	b	.LBB1_167
.Ltmp13:
.LBB1_5:                                @   in Loop: Header=BB1_4 Depth=2
	@DEBUG_VALUE: doPrint:c <- $r0
	@DEBUG_VALUE: doPrint:res <- [DW_OP_LLVM_arg 0, DW_OP_LLVM_arg 1, DW_OP_plus, DW_OP_stack_value] $r5, $r4
	@DEBUG_VALUE: doPrint:fmt <- [DW_OP_LLVM_arg 0, DW_OP_consts 1, DW_OP_LLVM_arg 1, DW_OP_plus, DW_OP_plus, DW_OP_stack_value] $r5, $r2
	@DEBUG_VALUE: doPrint:va <- [DW_OP_plus_uconst 80] [$sp+0]
	@DEBUG_VALUE: doPrint:buf <- $r6
	@DEBUG_VALUE: doPrint:n <- $r1
	cmp	r0, #37
	beq	.LBB1_8
.Ltmp14:
@ %bb.6:                                @   in Loop: Header=BB1_4 Depth=2
	@DEBUG_VALUE: doPrint:c <- $r0
	@DEBUG_VALUE: doPrint:res <- [DW_OP_LLVM_arg 0, DW_OP_LLVM_arg 1, DW_OP_plus, DW_OP_stack_value] $r5, $r4
	@DEBUG_VALUE: doPrint:fmt <- [DW_OP_LLVM_arg 0, DW_OP_consts 1, DW_OP_LLVM_arg 1, DW_OP_plus, DW_OP_plus, DW_OP_stack_value] $r5, $r2
	@DEBUG_VALUE: doPrint:va <- [DW_OP_plus_uconst 80] [$sp+0]
	@DEBUG_VALUE: doPrint:buf <- $r6
	@DEBUG_VALUE: doPrint:n <- $r1
	@DEBUG_VALUE: putChar:bufp <- undef
	@DEBUG_VALUE: putChar:c <- $r0
	@DEBUG_VALUE: putChar:n <- undef
	.loc	1 448 9 is_stmt 1               @ ../../../../../../kernel/freertos/dpl/SystemP_freertos.c:448:9
	cmp	r1, #2
	blo	.LBB1_3
.Ltmp15:
@ %bb.7:                                @   in Loop: Header=BB1_4 Depth=2
	@DEBUG_VALUE: putChar:c <- $r0
	@DEBUG_VALUE: doPrint:c <- $r0
	@DEBUG_VALUE: doPrint:res <- [DW_OP_LLVM_arg 0, DW_OP_LLVM_arg 1, DW_OP_plus, DW_OP_stack_value] $r5, $r4
	@DEBUG_VALUE: doPrint:fmt <- [DW_OP_LLVM_arg 0, DW_OP_consts 1, DW_OP_LLVM_arg 1, DW_OP_plus, DW_OP_plus, DW_OP_stack_value] $r5, $r2
	@DEBUG_VALUE: doPrint:va <- [DW_OP_plus_uconst 80] [$sp+0]
	@DEBUG_VALUE: doPrint:buf <- $r6
	@DEBUG_VALUE: doPrint:n <- $r1
	.loc	1 455 18                        @ ../../../../../../kernel/freertos/dpl/SystemP_freertos.c:455:18
	strb	r0, [r6]
	.loc	1 455 14 is_stmt 0              @ ../../../../../../kernel/freertos/dpl/SystemP_freertos.c:455:14
	adds	r6, r6, #1
.Ltmp16:
	@DEBUG_VALUE: doPrint:buf <- $r6
	.loc	1 454 9 is_stmt 1               @ ../../../../../../kernel/freertos/dpl/SystemP_freertos.c:454:9
	subs	r1, r1, #1
.Ltmp17:
	@DEBUG_VALUE: doPrint:n <- $r1
	.loc	1 0 9 is_stmt 0                 @ ../../../../../../kernel/freertos/dpl/SystemP_freertos.c:0:9
	b	.LBB1_3
.Ltmp18:
.LBB1_8:                                @   in Loop: Header=BB1_2 Depth=1
	@DEBUG_VALUE: doPrint:c <- $r0
	@DEBUG_VALUE: doPrint:res <- [DW_OP_LLVM_arg 0, DW_OP_LLVM_arg 1, DW_OP_plus, DW_OP_stack_value] $r5, $r4
	@DEBUG_VALUE: doPrint:fmt <- [DW_OP_LLVM_arg 0, DW_OP_consts 1, DW_OP_LLVM_arg 1, DW_OP_plus, DW_OP_plus, DW_OP_stack_value] $r5, $r2
	@DEBUG_VALUE: doPrint:va <- [DW_OP_plus_uconst 80] [$sp+0]
	@DEBUG_VALUE: doPrint:buf <- $r6
	@DEBUG_VALUE: doPrint:n <- $r1
	@DEBUG_VALUE: doPrint:fmt <- undef
	str	r4, [sp, #72]                   @ 4-byte Spill
.Ltmp19:
	@DEBUG_VALUE: doPrint:res <- [DW_OP_LLVM_arg 0, DW_OP_LLVM_arg 1, DW_OP_plus_uconst 72, DW_OP_deref, DW_OP_plus, DW_OP_stack_value] $r5, $sp
	.loc	1 141 17 is_stmt 1              @ ../../../../../../kernel/freertos/dpl/SystemP_freertos.c:141:17
	adds	r4, r2, r5
	ldrb	r0, [r4, #1]
.Ltmp20:
	@DEBUG_VALUE: doPrint:c <- $r0
	.loc	1 143 19                        @ ../../../../../../kernel/freertos/dpl/SystemP_freertos.c:143:19
	mov	r2, r0
	subs	r2, #45
	rsbs	r3, r2, #0
	adcs	r3, r2
	str	r3, [sp, #68]                   @ 4-byte Spill
.Ltmp21:
	.loc	1 141 17                        @ ../../../../../../kernel/freertos/dpl/SystemP_freertos.c:141:17
	adds	r3, r4, #2
	.loc	1 143 17                        @ ../../../../../../kernel/freertos/dpl/SystemP_freertos.c:143:17
	cmp	r0, #45
	str	r5, [sp, #48]                   @ 4-byte Spill
.Ltmp22:
	@DEBUG_VALUE: doPrint:res <- [DW_OP_LLVM_arg 0, DW_OP_plus_uconst 48, DW_OP_deref, DW_OP_LLVM_arg 1, DW_OP_plus_uconst 72, DW_OP_deref, DW_OP_plus, DW_OP_stack_value] $sp, $sp
	bne	.LBB1_10
.Ltmp23:
@ %bb.9:                                @   in Loop: Header=BB1_2 Depth=1
	@DEBUG_VALUE: doPrint:res <- [DW_OP_LLVM_arg 0, DW_OP_plus_uconst 48, DW_OP_deref, DW_OP_LLVM_arg 1, DW_OP_plus_uconst 72, DW_OP_deref, DW_OP_plus, DW_OP_stack_value] $sp, $sp
	@DEBUG_VALUE: doPrint:c <- $r0
	@DEBUG_VALUE: doPrint:va <- [DW_OP_plus_uconst 80] [$sp+0]
	@DEBUG_VALUE: doPrint:buf <- $r6
	@DEBUG_VALUE: doPrint:n <- $r1
	@DEBUG_VALUE: doPrint:fmt <- undef
	@DEBUG_VALUE: doPrint:parse <- [DW_OP_LLVM_fragment 40 8] 1
	.loc	1 146 31                        @ ../../../../../../kernel/freertos/dpl/SystemP_freertos.c:146:31
	adds	r5, r4, #3
	ldrb	r0, [r3]
.Ltmp24:
	@DEBUG_VALUE: doPrint:c <- undef
	.loc	1 0 31 is_stmt 0                @ ../../../../../../kernel/freertos/dpl/SystemP_freertos.c:0:31
	b	.LBB1_11
.Ltmp25:
.LBB1_10:                               @   in Loop: Header=BB1_2 Depth=1
	@DEBUG_VALUE: doPrint:res <- [DW_OP_LLVM_arg 0, DW_OP_plus_uconst 48, DW_OP_deref, DW_OP_LLVM_arg 1, DW_OP_plus_uconst 72, DW_OP_deref, DW_OP_plus, DW_OP_stack_value] $sp, $sp
	@DEBUG_VALUE: doPrint:c <- $r0
	@DEBUG_VALUE: doPrint:va <- [DW_OP_plus_uconst 80] [$sp+0]
	@DEBUG_VALUE: doPrint:buf <- $r6
	@DEBUG_VALUE: doPrint:n <- $r1
	mov	r5, r3
.Ltmp26:
.LBB1_11:                               @   in Loop: Header=BB1_2 Depth=1
	@DEBUG_VALUE: doPrint:res <- [DW_OP_LLVM_arg 0, DW_OP_plus_uconst 48, DW_OP_deref, DW_OP_LLVM_arg 1, DW_OP_plus_uconst 72, DW_OP_deref, DW_OP_plus, DW_OP_stack_value] $sp, $sp
	@DEBUG_VALUE: doPrint:va <- [DW_OP_plus_uconst 80] [$sp+0]
	@DEBUG_VALUE: doPrint:buf <- $r6
	@DEBUG_VALUE: doPrint:n <- $r1
	ldr	r4, [sp, #72]                   @ 4-byte Reload
.Ltmp27:
	@DEBUG_VALUE: doPrint:res <- [DW_OP_LLVM_arg 0, DW_OP_plus_uconst 48, DW_OP_deref, DW_OP_LLVM_arg 1, DW_OP_plus, DW_OP_stack_value] $sp, $r4
	@DEBUG_VALUE: doPrint:fmt <- $r5
	@DEBUG_VALUE: doPrint:c <- $r0
	@DEBUG_VALUE: doPrint:parse <- [DW_OP_LLVM_fragment 40 8] undef
	.loc	1 153 17 is_stmt 1              @ ../../../../../../kernel/freertos/dpl/SystemP_freertos.c:153:17
	cmp	r0, #48
	bne	.LBB1_18
.Ltmp28:
@ %bb.12:                               @   in Loop: Header=BB1_2 Depth=1
	@DEBUG_VALUE: doPrint:fmt <- $r5
	@DEBUG_VALUE: doPrint:res <- [DW_OP_LLVM_arg 0, DW_OP_plus_uconst 48, DW_OP_deref, DW_OP_LLVM_arg 1, DW_OP_plus, DW_OP_stack_value] $sp, $r4
	@DEBUG_VALUE: doPrint:c <- $r0
	@DEBUG_VALUE: doPrint:va <- [DW_OP_plus_uconst 80] [$sp+0]
	@DEBUG_VALUE: doPrint:buf <- $r6
	@DEBUG_VALUE: doPrint:n <- $r1
	@DEBUG_VALUE: doPrint:parse <- [DW_OP_LLVM_fragment 128 32] 1
	.loc	1 156 30                        @ ../../../../../../kernel/freertos/dpl/SystemP_freertos.c:156:30
	ldrb	r7, [r5]
	.loc	1 156 34 is_stmt 0              @ ../../../../../../kernel/freertos/dpl/SystemP_freertos.c:156:34
	adds	r5, r5, #1
.Ltmp29:
	@DEBUG_VALUE: doPrint:c <- undef
	@DEBUG_VALUE: doPrint:fmt <- $r5
	@DEBUG_VALUE: doPrint:fmt <- $r5
	@DEBUG_VALUE: doPrint:c <- $r7
	@DEBUG_VALUE: doPrint:parse <- [DW_OP_LLVM_fragment 128 32] undef
	@DEBUG_VALUE: doPrint:parse <- [DW_OP_LLVM_fragment 0 32] 0
	@DEBUG_VALUE: doPrint:parse <- [DW_OP_LLVM_fragment 64 32] -1
	.loc	1 168 17 is_stmt 1              @ ../../../../../../kernel/freertos/dpl/SystemP_freertos.c:168:17
	cmp	r7, #42
	beq	.LBB1_19
.Ltmp30:
.LBB1_13:                               @   in Loop: Header=BB1_2 Depth=1
	@DEBUG_VALUE: doPrint:parse <- [DW_OP_LLVM_fragment 64 32] -1
	@DEBUG_VALUE: doPrint:parse <- [DW_OP_LLVM_fragment 0 32] 0
	@DEBUG_VALUE: doPrint:c <- $r7
	@DEBUG_VALUE: doPrint:fmt <- $r5
	@DEBUG_VALUE: doPrint:res <- [DW_OP_LLVM_arg 0, DW_OP_plus_uconst 48, DW_OP_deref, DW_OP_LLVM_arg 1, DW_OP_plus, DW_OP_stack_value] $sp, $r4
	@DEBUG_VALUE: doPrint:va <- [DW_OP_plus_uconst 80] [$sp+0]
	@DEBUG_VALUE: doPrint:buf <- $r6
	@DEBUG_VALUE: doPrint:n <- $r1
	@DEBUG_VALUE: doPrint:fmt <- $r5
	@DEBUG_VALUE: doPrint:c <- $r7
	@DEBUG_VALUE: doPrint:parse <- [DW_OP_LLVM_fragment 0 32] 0
	.loc	1 182 33                        @ ../../../../../../kernel/freertos/dpl/SystemP_freertos.c:182:33
	mov	r2, r7
	subs	r2, #48
	.loc	1 182 17 is_stmt 0              @ ../../../../../../kernel/freertos/dpl/SystemP_freertos.c:182:17
	cmp	r2, #9
	bhi	.LBB1_21
.Ltmp31:
@ %bb.14:                               @   in Loop: Header=BB1_2 Depth=1
	@DEBUG_VALUE: doPrint:parse <- [DW_OP_LLVM_fragment 64 32] -1
	@DEBUG_VALUE: doPrint:parse <- [DW_OP_LLVM_fragment 0 32] 0
	@DEBUG_VALUE: doPrint:c <- $r7
	@DEBUG_VALUE: doPrint:fmt <- $r5
	@DEBUG_VALUE: doPrint:res <- [DW_OP_LLVM_arg 0, DW_OP_plus_uconst 48, DW_OP_deref, DW_OP_LLVM_arg 1, DW_OP_plus, DW_OP_stack_value] $sp, $r4
	@DEBUG_VALUE: doPrint:va <- [DW_OP_plus_uconst 80] [$sp+0]
	@DEBUG_VALUE: doPrint:buf <- $r6
	@DEBUG_VALUE: doPrint:n <- $r1
	.loc	1 0 17                          @ ../../../../../../kernel/freertos/dpl/SystemP_freertos.c:0:17
	movs	r4, #0
.Ltmp32:
.LBB1_15:                               @   Parent Loop BB1_2 Depth=1
                                        @ =>  This Inner Loop Header: Depth=2
	@DEBUG_VALUE: doPrint:parse <- [DW_OP_LLVM_fragment 64 32] -1
	@DEBUG_VALUE: doPrint:va <- [DW_OP_plus_uconst 80] [$sp+0]
	@DEBUG_VALUE: doPrint:buf <- $r6
	@DEBUG_VALUE: doPrint:n <- $r1
	@DEBUG_VALUE: doPrint:fmt <- $r5
	@DEBUG_VALUE: doPrint:c <- $r7
	@DEBUG_VALUE: doPrint:parse <- [DW_OP_LLVM_fragment 0 32] $r4
	movs	r2, #10
.Ltmp33:
	.loc	1 184 47 is_stmt 1              @ ../../../../../../kernel/freertos/dpl/SystemP_freertos.c:184:47
	muls	r4, r2, r4
.Ltmp34:
	.loc	1 184 52 is_stmt 0              @ ../../../../../../kernel/freertos/dpl/SystemP_freertos.c:184:52
	adds	r4, r4, r7
	.loc	1 184 56                        @ ../../../../../../kernel/freertos/dpl/SystemP_freertos.c:184:56
	subs	r4, #48
.Ltmp35:
	@DEBUG_VALUE: doPrint:parse <- [DW_OP_LLVM_fragment 0 32] $r4
	@DEBUG_VALUE: doPrint:fmt <- [DW_OP_plus_uconst 1, DW_OP_stack_value] $r5
	.loc	1 185 35 is_stmt 1              @ ../../../../../../kernel/freertos/dpl/SystemP_freertos.c:185:35
	ldrb	r7, [r5]
.Ltmp36:
	@DEBUG_VALUE: doPrint:c <- undef
	.loc	1 182 33                        @ ../../../../../../kernel/freertos/dpl/SystemP_freertos.c:182:33
	mov	r3, r7
	subs	r3, #48
	.loc	1 182 17 is_stmt 0              @ ../../../../../../kernel/freertos/dpl/SystemP_freertos.c:182:17
	cmp	r3, #9
	bhi	.LBB1_24
.Ltmp37:
@ %bb.16:                               @   in Loop: Header=BB1_15 Depth=2
	@DEBUG_VALUE: doPrint:fmt <- [DW_OP_plus_uconst 1, DW_OP_stack_value] $r5
	@DEBUG_VALUE: doPrint:parse <- [DW_OP_LLVM_fragment 0 32] $r4
	@DEBUG_VALUE: doPrint:parse <- [DW_OP_LLVM_fragment 64 32] -1
	@DEBUG_VALUE: doPrint:va <- [DW_OP_plus_uconst 80] [$sp+0]
	@DEBUG_VALUE: doPrint:buf <- $r6
	@DEBUG_VALUE: doPrint:n <- $r1
	@DEBUG_VALUE: doPrint:fmt <- [DW_OP_plus_uconst 1, DW_OP_stack_value] $r5
	@DEBUG_VALUE: doPrint:parse <- [DW_OP_LLVM_fragment 0 32] $r4
	.loc	1 184 47 is_stmt 1              @ ../../../../../../kernel/freertos/dpl/SystemP_freertos.c:184:47
	muls	r2, r4, r2
	.loc	1 184 52 is_stmt 0              @ ../../../../../../kernel/freertos/dpl/SystemP_freertos.c:184:52
	adds	r4, r2, r7
.Ltmp38:
	.loc	1 184 56                        @ ../../../../../../kernel/freertos/dpl/SystemP_freertos.c:184:56
	subs	r4, #48
.Ltmp39:
	@DEBUG_VALUE: doPrint:parse <- [DW_OP_LLVM_fragment 0 32] $r4
	.loc	1 185 39 is_stmt 1              @ ../../../../../../kernel/freertos/dpl/SystemP_freertos.c:185:39
	adds	r2, r5, #2
.Ltmp40:
	@DEBUG_VALUE: doPrint:fmt <- $r2
	.loc	1 185 35 is_stmt 0              @ ../../../../../../kernel/freertos/dpl/SystemP_freertos.c:185:35
	ldrb	r7, [r5, #1]
.Ltmp41:
	@DEBUG_VALUE: doPrint:c <- undef
	.loc	1 182 33 is_stmt 1              @ ../../../../../../kernel/freertos/dpl/SystemP_freertos.c:182:33
	mov	r3, r7
	subs	r3, #48
	.loc	1 182 17 is_stmt 0              @ ../../../../../../kernel/freertos/dpl/SystemP_freertos.c:182:17
	cmp	r3, #10
	mov	r5, r2
	blo	.LBB1_15
.Ltmp42:
@ %bb.17:                               @   in Loop: Header=BB1_2 Depth=1
	@DEBUG_VALUE: doPrint:parse <- [DW_OP_LLVM_fragment 0 32] $r4
	@DEBUG_VALUE: doPrint:parse <- [DW_OP_LLVM_fragment 64 32] -1
	@DEBUG_VALUE: doPrint:va <- [DW_OP_plus_uconst 80] [$sp+0]
	@DEBUG_VALUE: doPrint:buf <- $r6
	@DEBUG_VALUE: doPrint:fmt <- $r2
	@DEBUG_VALUE: doPrint:n <- $r1
	.loc	1 0 17                          @ ../../../../../../kernel/freertos/dpl/SystemP_freertos.c:0:17
	str	r4, [sp, #56]                   @ 4-byte Spill
.Ltmp43:
	@DEBUG_VALUE: doPrint:parse <- [DW_OP_plus_uconst 56, DW_OP_LLVM_fragment 0 32] [$sp+0]
	mov	r5, r2
.Ltmp44:
	@DEBUG_VALUE: doPrint:fmt <- $r5
	b	.LBB1_26
.Ltmp45:
.LBB1_18:                               @   in Loop: Header=BB1_2 Depth=1
	@DEBUG_VALUE: doPrint:fmt <- $r5
	@DEBUG_VALUE: doPrint:res <- [DW_OP_LLVM_arg 0, DW_OP_plus_uconst 48, DW_OP_deref, DW_OP_LLVM_arg 1, DW_OP_plus, DW_OP_stack_value] $sp, $r4
	@DEBUG_VALUE: doPrint:c <- $r0
	@DEBUG_VALUE: doPrint:va <- [DW_OP_plus_uconst 80] [$sp+0]
	@DEBUG_VALUE: doPrint:buf <- $r6
	@DEBUG_VALUE: doPrint:n <- $r1
	mov	r7, r0
	@DEBUG_VALUE: doPrint:fmt <- $r5
.Ltmp46:
	@DEBUG_VALUE: doPrint:c <- $r7
	@DEBUG_VALUE: doPrint:parse <- [DW_OP_LLVM_fragment 128 32] undef
	@DEBUG_VALUE: doPrint:parse <- [DW_OP_LLVM_fragment 0 32] 0
	@DEBUG_VALUE: doPrint:parse <- [DW_OP_LLVM_fragment 64 32] -1
	.loc	1 168 17 is_stmt 1              @ ../../../../../../kernel/freertos/dpl/SystemP_freertos.c:168:17
	cmp	r7, #42
	bne	.LBB1_13
.Ltmp47:
.LBB1_19:                               @   in Loop: Header=BB1_2 Depth=1
	@DEBUG_VALUE: doPrint:parse <- [DW_OP_LLVM_fragment 64 32] -1
	@DEBUG_VALUE: doPrint:parse <- [DW_OP_LLVM_fragment 0 32] 0
	@DEBUG_VALUE: doPrint:c <- $r7
	@DEBUG_VALUE: doPrint:fmt <- $r5
	@DEBUG_VALUE: doPrint:res <- [DW_OP_LLVM_arg 0, DW_OP_plus_uconst 48, DW_OP_deref, DW_OP_LLVM_arg 1, DW_OP_plus, DW_OP_stack_value] $sp, $r4
	@DEBUG_VALUE: doPrint:va <- [DW_OP_plus_uconst 80] [$sp+0]
	@DEBUG_VALUE: doPrint:buf <- $r6
	@DEBUG_VALUE: doPrint:n <- $r1
	.loc	1 0 17 is_stmt 0                @ ../../../../../../kernel/freertos/dpl/SystemP_freertos.c:0:17
	ldr	r3, [sp, #80]                   @ 4-byte Reload
.Ltmp48:
	.loc	1 171 36 is_stmt 1              @ ../../../../../../kernel/freertos/dpl/SystemP_freertos.c:171:36
	ldm	r3!, {r4}
.Ltmp49:
	@DEBUG_VALUE: doPrint:parse <- [DW_OP_LLVM_fragment 0 32] $r4
	@DEBUG_VALUE: doPrint:c <- undef
	@DEBUG_VALUE: doPrint:va <- $r3
	.loc	1 174 33                        @ ../../../../../../kernel/freertos/dpl/SystemP_freertos.c:174:33
	cmp	r4, #0
	str	r3, [sp, #80]                   @ 4-byte Spill
.Ltmp50:
	@DEBUG_VALUE: doPrint:va <- [DW_OP_plus_uconst 80] [$sp+0]
	bmi	.LBB1_22
.Ltmp51:
@ %bb.20:                               @   in Loop: Header=BB1_2 Depth=1
	@DEBUG_VALUE: doPrint:va <- [DW_OP_plus_uconst 80] [$sp+0]
	@DEBUG_VALUE: doPrint:parse <- [DW_OP_LLVM_fragment 0 32] $r4
	@DEBUG_VALUE: doPrint:parse <- [DW_OP_LLVM_fragment 64 32] -1
	@DEBUG_VALUE: doPrint:fmt <- $r5
	@DEBUG_VALUE: doPrint:buf <- $r6
	@DEBUG_VALUE: doPrint:n <- $r1
	.loc	1 0 33 is_stmt 0                @ ../../../../../../kernel/freertos/dpl/SystemP_freertos.c:0:33
	movs	r3, #0
	b	.LBB1_23
.Ltmp52:
.LBB1_21:                               @   in Loop: Header=BB1_2 Depth=1
	@DEBUG_VALUE: doPrint:parse <- [DW_OP_LLVM_fragment 64 32] -1
	@DEBUG_VALUE: doPrint:parse <- [DW_OP_LLVM_fragment 0 32] 0
	@DEBUG_VALUE: doPrint:c <- $r7
	@DEBUG_VALUE: doPrint:fmt <- $r5
	@DEBUG_VALUE: doPrint:res <- [DW_OP_LLVM_arg 0, DW_OP_plus_uconst 48, DW_OP_deref, DW_OP_LLVM_arg 1, DW_OP_plus, DW_OP_stack_value] $sp, $r4
	@DEBUG_VALUE: doPrint:va <- [DW_OP_plus_uconst 80] [$sp+0]
	@DEBUG_VALUE: doPrint:buf <- $r6
	@DEBUG_VALUE: doPrint:n <- $r1
	movs	r2, #0
	str	r2, [sp, #56]                   @ 4-byte Spill
	b	.LBB1_27
.Ltmp53:
.LBB1_22:                               @   in Loop: Header=BB1_2 Depth=1
	@DEBUG_VALUE: doPrint:va <- [DW_OP_plus_uconst 80] [$sp+0]
	@DEBUG_VALUE: doPrint:parse <- [DW_OP_LLVM_fragment 0 32] $r4
	@DEBUG_VALUE: doPrint:parse <- [DW_OP_LLVM_fragment 64 32] -1
	@DEBUG_VALUE: doPrint:fmt <- $r5
	@DEBUG_VALUE: doPrint:buf <- $r6
	@DEBUG_VALUE: doPrint:n <- $r1
	movs	r3, #1
.Ltmp54:
.LBB1_23:                               @   in Loop: Header=BB1_2 Depth=1
	@DEBUG_VALUE: doPrint:va <- [DW_OP_plus_uconst 80] [$sp+0]
	@DEBUG_VALUE: doPrint:parse <- [DW_OP_LLVM_fragment 0 32] $r4
	@DEBUG_VALUE: doPrint:parse <- [DW_OP_LLVM_fragment 64 32] -1
	@DEBUG_VALUE: doPrint:fmt <- $r5
	@DEBUG_VALUE: doPrint:buf <- $r6
	@DEBUG_VALUE: doPrint:n <- $r1
	.loc	1 143 19 is_stmt 1              @ ../../../../../../kernel/freertos/dpl/SystemP_freertos.c:143:19
	rsbs	r7, r2, #0
	adcs	r7, r2
.Ltmp55:
	.loc	1 174 21                        @ ../../../../../../kernel/freertos/dpl/SystemP_freertos.c:174:21
	orrs	r7, r3
	str	r7, [sp, #68]                   @ 4-byte Spill
	asrs	r2, r4, #31
	eors	r4, r2
.Ltmp56:
	subs	r2, r4, r2
	.loc	1 173 21                        @ ../../../../../../kernel/freertos/dpl/SystemP_freertos.c:173:21
	str	r2, [sp, #56]                   @ 4-byte Spill
	ldrb	r7, [r5]
	b	.LBB1_25
.Ltmp57:
.LBB1_24:                               @   in Loop: Header=BB1_2 Depth=1
	@DEBUG_VALUE: doPrint:fmt <- [DW_OP_plus_uconst 1, DW_OP_stack_value] $r5
	@DEBUG_VALUE: doPrint:parse <- [DW_OP_LLVM_fragment 0 32] $r4
	@DEBUG_VALUE: doPrint:parse <- [DW_OP_LLVM_fragment 64 32] -1
	@DEBUG_VALUE: doPrint:va <- [DW_OP_plus_uconst 80] [$sp+0]
	@DEBUG_VALUE: doPrint:buf <- $r6
	@DEBUG_VALUE: doPrint:n <- $r1
	.loc	1 0 21 is_stmt 0                @ ../../../../../../kernel/freertos/dpl/SystemP_freertos.c:0:21
	str	r4, [sp, #56]                   @ 4-byte Spill
.Ltmp58:
	@DEBUG_VALUE: doPrint:parse <- [DW_OP_plus_uconst 56, DW_OP_LLVM_fragment 0 32] [$sp+0]
.LBB1_25:                               @   in Loop: Header=BB1_2 Depth=1
	@DEBUG_VALUE: doPrint:parse <- [DW_OP_LLVM_fragment 64 32] -1
	@DEBUG_VALUE: doPrint:buf <- $r6
	@DEBUG_VALUE: doPrint:n <- $r1
	adds	r5, r5, #1
.Ltmp59:
.LBB1_26:                               @   in Loop: Header=BB1_2 Depth=1
	@DEBUG_VALUE: doPrint:parse <- [DW_OP_LLVM_fragment 64 32] -1
	@DEBUG_VALUE: doPrint:buf <- $r6
	@DEBUG_VALUE: doPrint:n <- $r1
	ldr	r4, [sp, #72]                   @ 4-byte Reload
.Ltmp60:
.LBB1_27:                               @   in Loop: Header=BB1_2 Depth=1
	@DEBUG_VALUE: doPrint:parse <- [DW_OP_LLVM_fragment 64 32] -1
	@DEBUG_VALUE: doPrint:buf <- $r6
	@DEBUG_VALUE: doPrint:n <- $r1
	@DEBUG_VALUE: doPrint:fmt <- $r5
	@DEBUG_VALUE: doPrint:va <- [DW_OP_plus_uconst 80] [$sp+0]
	@DEBUG_VALUE: doPrint:c <- $r7
	@DEBUG_VALUE: doPrint:parse <- [DW_OP_LLVM_fragment 40 8] undef
	@DEBUG_VALUE: doPrint:parse <- [DW_OP_plus_uconst 56, DW_OP_LLVM_fragment 0 32] [$sp+0]
	movs	r2, #0
	mvns	r3, r2
	.loc	1 190 17 is_stmt 1              @ ../../../../../../kernel/freertos/dpl/SystemP_freertos.c:190:17
	cmp	r7, #46
	str	r3, [sp, #36]                   @ 4-byte Spill
	bne	.LBB1_30
.Ltmp61:
@ %bb.28:                               @   in Loop: Header=BB1_2 Depth=1
	@DEBUG_VALUE: doPrint:parse <- [DW_OP_plus_uconst 56, DW_OP_LLVM_fragment 0 32] [$sp+0]
	@DEBUG_VALUE: doPrint:parse <- [DW_OP_LLVM_fragment 64 32] -1
	@DEBUG_VALUE: doPrint:c <- $r7
	@DEBUG_VALUE: doPrint:fmt <- $r5
	@DEBUG_VALUE: doPrint:va <- [DW_OP_plus_uconst 80] [$sp+0]
	@DEBUG_VALUE: doPrint:buf <- $r6
	@DEBUG_VALUE: doPrint:n <- $r1
	@DEBUG_VALUE: doPrint:parse <- [DW_OP_LLVM_fragment 64 32] 0
	.loc	1 193 32                        @ ../../../../../../kernel/freertos/dpl/SystemP_freertos.c:193:32
	ldrb	r7, [r5]
.Ltmp62:
	@DEBUG_VALUE: doPrint:c <- $r7
	@DEBUG_VALUE: doPrint:fmt <- undef
	.loc	1 194 21                        @ ../../../../../../kernel/freertos/dpl/SystemP_freertos.c:194:21
	cmp	r7, #42
	beq	.LBB1_29
	b	.LBB1_45
.Ltmp63:
.LBB1_29:                               @   in Loop: Header=BB1_2 Depth=1
	@DEBUG_VALUE: doPrint:parse <- [DW_OP_LLVM_fragment 64 32] 0
	@DEBUG_VALUE: doPrint:parse <- [DW_OP_plus_uconst 56, DW_OP_LLVM_fragment 0 32] [$sp+0]
	@DEBUG_VALUE: doPrint:c <- $r7
	@DEBUG_VALUE: doPrint:va <- [DW_OP_plus_uconst 80] [$sp+0]
	@DEBUG_VALUE: doPrint:buf <- $r6
	@DEBUG_VALUE: doPrint:n <- $r1
	.loc	1 197 41                        @ ../../../../../../kernel/freertos/dpl/SystemP_freertos.c:197:41
	ldr	r3, [sp, #80]                   @ 4-byte Reload
	mov	r7, r2
.Ltmp64:
	ldm	r3!, {r2}
.Ltmp65:
	@DEBUG_VALUE: doPrint:parse <- [DW_OP_LLVM_fragment 64 32] $r2
	@DEBUG_VALUE: doPrint:va <- $r3
	.loc	1 199 25                        @ ../../../../../../kernel/freertos/dpl/SystemP_freertos.c:199:25
	str	r3, [sp, #80]                   @ 4-byte Spill
.Ltmp66:
	@DEBUG_VALUE: doPrint:va <- [DW_OP_plus_uconst 80] [$sp+0]
	@DEBUG_VALUE: doPrint:va <- [DW_OP_plus_uconst 80] [$sp+0]
	asrs	r3, r2, #31
	bics	r2, r3
.Ltmp67:
	@DEBUG_VALUE: doPrint:parse <- [DW_OP_LLVM_fragment 64 32] $r2
	.loc	1 0 25 is_stmt 0                @ ../../../../../../kernel/freertos/dpl/SystemP_freertos.c:0:25
	str	r2, [sp, #52]                   @ 4-byte Spill
.Ltmp68:
	@DEBUG_VALUE: doPrint:parse <- [DW_OP_plus_uconst 52, DW_OP_LLVM_fragment 64 32] [$sp+0]
	@DEBUG_VALUE: doPrint:parse <- [DW_OP_plus_uconst 52, DW_OP_LLVM_fragment 64 32] [$sp+0]
	mov	r2, r7
	.loc	1 203 25 is_stmt 1              @ ../../../../../../kernel/freertos/dpl/SystemP_freertos.c:203:25
	ldrb	r7, [r5, #1]
	.loc	1 203 29 is_stmt 0              @ ../../../../../../kernel/freertos/dpl/SystemP_freertos.c:203:29
	adds	r5, r5, #2
.Ltmp69:
	@DEBUG_VALUE: doPrint:c <- undef
	@DEBUG_VALUE: doPrint:fmt <- $r5
	.loc	1 0 29                          @ ../../../../../../kernel/freertos/dpl/SystemP_freertos.c:0:29
	b	.LBB1_31
.Ltmp70:
.LBB1_30:                               @   in Loop: Header=BB1_2 Depth=1
	@DEBUG_VALUE: doPrint:parse <- [DW_OP_plus_uconst 56, DW_OP_LLVM_fragment 0 32] [$sp+0]
	@DEBUG_VALUE: doPrint:parse <- [DW_OP_LLVM_fragment 64 32] -1
	@DEBUG_VALUE: doPrint:c <- $r7
	@DEBUG_VALUE: doPrint:fmt <- $r5
	@DEBUG_VALUE: doPrint:va <- [DW_OP_plus_uconst 80] [$sp+0]
	@DEBUG_VALUE: doPrint:buf <- $r6
	@DEBUG_VALUE: doPrint:n <- $r1
	str	r3, [sp, #52]                   @ 4-byte Spill
.Ltmp71:
.LBB1_31:                               @   in Loop: Header=BB1_2 Depth=1
	@DEBUG_VALUE: doPrint:parse <- [DW_OP_plus_uconst 56, DW_OP_LLVM_fragment 0 32] [$sp+0]
	@DEBUG_VALUE: doPrint:fmt <- $r5
	@DEBUG_VALUE: doPrint:va <- [DW_OP_plus_uconst 80] [$sp+0]
	@DEBUG_VALUE: doPrint:buf <- $r6
	@DEBUG_VALUE: doPrint:n <- $r1
	ldr	r3, [sp, #56]                   @ 4-byte Reload
.Ltmp72:
.LBB1_32:                               @   in Loop: Header=BB1_2 Depth=1
	@DEBUG_VALUE: doPrint:parse <- [DW_OP_plus_uconst 56, DW_OP_LLVM_fragment 0 32] [$sp+0]
	@DEBUG_VALUE: doPrint:va <- [DW_OP_plus_uconst 80] [$sp+0]
	@DEBUG_VALUE: doPrint:buf <- $r6
	@DEBUG_VALUE: doPrint:n <- $r1
	@DEBUG_VALUE: doPrint:fmt <- $r5
	@DEBUG_VALUE: doPrint:va <- [DW_OP_plus_uconst 80] [$sp+0]
	@DEBUG_VALUE: doPrint:c <- $r7
	@DEBUG_VALUE: doPrint:parse <- [DW_OP_plus_uconst 52, DW_OP_LLVM_fragment 64 32] [$sp+0]
	.loc	1 216 17 is_stmt 1              @ ../../../../../../kernel/freertos/dpl/SystemP_freertos.c:216:17
	cmp	r0, #48
	mov	r0, r3
	beq	.LBB1_34
.Ltmp73:
@ %bb.33:                               @   in Loop: Header=BB1_2 Depth=1
	@DEBUG_VALUE: doPrint:parse <- [DW_OP_plus_uconst 52, DW_OP_LLVM_fragment 64 32] [$sp+0]
	@DEBUG_VALUE: doPrint:parse <- [DW_OP_plus_uconst 56, DW_OP_LLVM_fragment 0 32] [$sp+0]
	@DEBUG_VALUE: doPrint:c <- $r7
	@DEBUG_VALUE: doPrint:fmt <- $r5
	@DEBUG_VALUE: doPrint:va <- [DW_OP_plus_uconst 80] [$sp+0]
	@DEBUG_VALUE: doPrint:buf <- $r6
	@DEBUG_VALUE: doPrint:n <- $r1
	.loc	1 0 17 is_stmt 0                @ ../../../../../../kernel/freertos/dpl/SystemP_freertos.c:0:17
	mov	r0, r2
.Ltmp74:
.LBB1_34:                               @   in Loop: Header=BB1_2 Depth=1
	@DEBUG_VALUE: doPrint:parse <- [DW_OP_plus_uconst 52, DW_OP_LLVM_fragment 64 32] [$sp+0]
	@DEBUG_VALUE: doPrint:parse <- [DW_OP_plus_uconst 56, DW_OP_LLVM_fragment 0 32] [$sp+0]
	@DEBUG_VALUE: doPrint:c <- $r7
	@DEBUG_VALUE: doPrint:fmt <- $r5
	@DEBUG_VALUE: doPrint:va <- [DW_OP_plus_uconst 80] [$sp+0]
	@DEBUG_VALUE: doPrint:buf <- $r6
	@DEBUG_VALUE: doPrint:n <- $r1
	@DEBUG_VALUE: doPrint:parse <- [DW_OP_LLVM_fragment 128 32] $r0
	str	r0, [sp, #64]                   @ 4-byte Spill
.Ltmp75:
	@DEBUG_VALUE: doPrint:parse <- [DW_OP_plus_uconst 64, DW_OP_LLVM_fragment 128 32] [$sp+0]
	@DEBUG_VALUE: doPrint:parse <- [DW_OP_plus_uconst 64, DW_OP_LLVM_fragment 128 32] [$sp+0]
	movs	r0, #223
.Ltmp76:
	.loc	1 222 26 is_stmt 1              @ ../../../../../../kernel/freertos/dpl/SystemP_freertos.c:222:26
	ands	r0, r7
	cmp	r0, #76
	str	r1, [sp, #40]                   @ 4-byte Spill
.Ltmp77:
	@DEBUG_VALUE: doPrint:n <- [DW_OP_plus_uconst 40] [$sp+0]
	bne	.LBB1_36
.Ltmp78:
@ %bb.35:                               @   in Loop: Header=BB1_2 Depth=1
	@DEBUG_VALUE: doPrint:n <- [DW_OP_plus_uconst 40] [$sp+0]
	@DEBUG_VALUE: doPrint:parse <- [DW_OP_plus_uconst 64, DW_OP_LLVM_fragment 128 32] [$sp+0]
	@DEBUG_VALUE: doPrint:parse <- [DW_OP_plus_uconst 52, DW_OP_LLVM_fragment 64 32] [$sp+0]
	@DEBUG_VALUE: doPrint:parse <- [DW_OP_plus_uconst 56, DW_OP_LLVM_fragment 0 32] [$sp+0]
	@DEBUG_VALUE: doPrint:c <- $r7
	@DEBUG_VALUE: doPrint:fmt <- $r5
	@DEBUG_VALUE: doPrint:va <- [DW_OP_plus_uconst 80] [$sp+0]
	@DEBUG_VALUE: doPrint:buf <- $r6
	@DEBUG_VALUE: doPrint:parse <- [DW_OP_LLVM_fragment 32 8] 1
	.loc	1 225 31                        @ ../../../../../../kernel/freertos/dpl/SystemP_freertos.c:225:31
	ldrb	r7, [r5]
.Ltmp79:
	.loc	1 225 35 is_stmt 0              @ ../../../../../../kernel/freertos/dpl/SystemP_freertos.c:225:35
	adds	r5, r5, #1
.Ltmp80:
	@DEBUG_VALUE: doPrint:c <- undef
	@DEBUG_VALUE: doPrint:fmt <- $r5
.LBB1_36:                               @   in Loop: Header=BB1_2 Depth=1
	@DEBUG_VALUE: doPrint:n <- [DW_OP_plus_uconst 40] [$sp+0]
	@DEBUG_VALUE: doPrint:parse <- [DW_OP_plus_uconst 64, DW_OP_LLVM_fragment 128 32] [$sp+0]
	@DEBUG_VALUE: doPrint:parse <- [DW_OP_plus_uconst 52, DW_OP_LLVM_fragment 64 32] [$sp+0]
	@DEBUG_VALUE: doPrint:parse <- [DW_OP_plus_uconst 56, DW_OP_LLVM_fragment 0 32] [$sp+0]
	@DEBUG_VALUE: doPrint:fmt <- $r5
	@DEBUG_VALUE: doPrint:va <- [DW_OP_plus_uconst 80] [$sp+0]
	@DEBUG_VALUE: doPrint:buf <- $r6
	.loc	1 0 35                          @ ../../../../../../kernel/freertos/dpl/SystemP_freertos.c:0:35
	str	r5, [sp, #76]                   @ 4-byte Spill
.Ltmp81:
	@DEBUG_VALUE: doPrint:fmt <- [DW_OP_plus_uconst 76] [$sp+0]
	@DEBUG_VALUE: doPrint:fmt <- [DW_OP_plus_uconst 76] [$sp+0]
	@DEBUG_VALUE: doPrint:c <- $r7
	@DEBUG_VALUE: doPrint:parse <- [DW_OP_plus_uconst 84, DW_OP_stack_value, DW_OP_LLVM_fragment 192 32] $sp
	@DEBUG_VALUE: doPrint:parse <- [DW_OP_plus_uconst 44, DW_OP_LLVM_fragment 160 32] [$sp+0]
	@DEBUG_VALUE: doPrint:parse <- [DW_OP_LLVM_fragment 96 32] 0
	.loc	1 236 26 is_stmt 1              @ ../../../../../../kernel/freertos/dpl/SystemP_freertos.c:236:26
	mov	r0, r7
	subs	r0, #99
	cmp	r0, #21
	bls	.LBB1_37
	b	.LBB1_58
.Ltmp82:
.LBB1_37:                               @   in Loop: Header=BB1_2 Depth=1
	@DEBUG_VALUE: doPrint:parse <- [DW_OP_LLVM_fragment 96 32] 0
	@DEBUG_VALUE: doPrint:parse <- [DW_OP_plus_uconst 44, DW_OP_LLVM_fragment 160 32] [$sp+0]
	@DEBUG_VALUE: doPrint:parse <- [DW_OP_plus_uconst 84, DW_OP_stack_value, DW_OP_LLVM_fragment 192 32] $sp
	@DEBUG_VALUE: doPrint:fmt <- [DW_OP_plus_uconst 76] [$sp+0]
	@DEBUG_VALUE: doPrint:n <- [DW_OP_plus_uconst 40] [$sp+0]
	@DEBUG_VALUE: doPrint:parse <- [DW_OP_plus_uconst 64, DW_OP_LLVM_fragment 128 32] [$sp+0]
	@DEBUG_VALUE: doPrint:parse <- [DW_OP_plus_uconst 52, DW_OP_LLVM_fragment 64 32] [$sp+0]
	@DEBUG_VALUE: doPrint:parse <- [DW_OP_plus_uconst 56, DW_OP_LLVM_fragment 0 32] [$sp+0]
	@DEBUG_VALUE: doPrint:c <- $r7
	@DEBUG_VALUE: doPrint:va <- [DW_OP_plus_uconst 80] [$sp+0]
	@DEBUG_VALUE: doPrint:buf <- $r6
	.loc	1 0 26 is_stmt 0                @ ../../../../../../kernel/freertos/dpl/SystemP_freertos.c:0:26
	movs	r5, #10
	lsls	r0, r0, #1
	.p2align	2
	add	r0, pc
	ldrh	r0, [r0, #4]
	lsls	r0, r0, #1
.LCPI1_5:
	add	pc, r0
.Ltmp83:
@ %bb.38:
	.p2align	2
.LJTI1_0:
	.short	(.LBB1_57-(.LCPI1_5+4))/2
	.short	(.LBB1_39-(.LCPI1_5+4))/2
	.short	(.LBB1_58-(.LCPI1_5+4))/2
	.short	(.LBB1_61-(.LCPI1_5+4))/2
	.short	(.LBB1_58-(.LCPI1_5+4))/2
	.short	(.LBB1_58-(.LCPI1_5+4))/2
	.short	(.LBB1_39-(.LCPI1_5+4))/2
	.short	(.LBB1_58-(.LCPI1_5+4))/2
	.short	(.LBB1_58-(.LCPI1_5+4))/2
	.short	(.LBB1_58-(.LCPI1_5+4))/2
	.short	(.LBB1_58-(.LCPI1_5+4))/2
	.short	(.LBB1_58-(.LCPI1_5+4))/2
	.short	(.LBB1_63-(.LCPI1_5+4))/2
	.short	(.LBB1_64-(.LCPI1_5+4))/2
	.short	(.LBB1_58-(.LCPI1_5+4))/2
	.short	(.LBB1_58-(.LCPI1_5+4))/2
	.short	(.LBB1_70-(.LCPI1_5+4))/2
	.short	(.LBB1_58-(.LCPI1_5+4))/2
	.short	(.LBB1_77-(.LCPI1_5+4))/2
	.short	(.LBB1_58-(.LCPI1_5+4))/2
	.short	(.LBB1_58-(.LCPI1_5+4))/2
	.short	(.LBB1_76-(.LCPI1_5+4))/2
	.p2align	1
.LBB1_39:                               @   in Loop: Header=BB1_2 Depth=1
.Ltmp84:
	@DEBUG_VALUE: doPrint:parse <- [DW_OP_LLVM_fragment 96 32] 0
	@DEBUG_VALUE: doPrint:parse <- [DW_OP_plus_uconst 44, DW_OP_LLVM_fragment 160 32] [$sp+0]
	@DEBUG_VALUE: doPrint:parse <- [DW_OP_plus_uconst 84, DW_OP_stack_value, DW_OP_LLVM_fragment 192 32] $sp
	@DEBUG_VALUE: doPrint:fmt <- [DW_OP_plus_uconst 76] [$sp+0]
	@DEBUG_VALUE: doPrint:n <- [DW_OP_plus_uconst 40] [$sp+0]
	@DEBUG_VALUE: doPrint:parse <- [DW_OP_plus_uconst 64, DW_OP_LLVM_fragment 128 32] [$sp+0]
	@DEBUG_VALUE: doPrint:parse <- [DW_OP_plus_uconst 52, DW_OP_LLVM_fragment 64 32] [$sp+0]
	@DEBUG_VALUE: doPrint:parse <- [DW_OP_plus_uconst 56, DW_OP_LLVM_fragment 0 32] [$sp+0]
	@DEBUG_VALUE: doPrint:c <- $r7
	@DEBUG_VALUE: doPrint:va <- [DW_OP_plus_uconst 80] [$sp+0]
	@DEBUG_VALUE: doPrint:buf <- $r6
	str	r6, [sp, #32]                   @ 4-byte Spill
.Ltmp85:
	@DEBUG_VALUE: doPrint:buf <- [DW_OP_plus_uconst 32] [$sp+0]
	ldr	r0, [sp, #64]                   @ 4-byte Reload
	ldr	r1, [sp, #52]                   @ 4-byte Reload
.Ltmp86:
	.loc	1 241 21 is_stmt 1              @ ../../../../../../kernel/freertos/dpl/SystemP_freertos.c:241:21
	cmp	r1, r0
	bgt	.LBB1_41
.Ltmp87:
@ %bb.40:                               @   in Loop: Header=BB1_2 Depth=1
	@DEBUG_VALUE: doPrint:buf <- [DW_OP_plus_uconst 32] [$sp+0]
	@DEBUG_VALUE: doPrint:parse <- [DW_OP_LLVM_fragment 96 32] 0
	@DEBUG_VALUE: doPrint:parse <- [DW_OP_plus_uconst 44, DW_OP_LLVM_fragment 160 32] [$sp+0]
	@DEBUG_VALUE: doPrint:parse <- [DW_OP_plus_uconst 84, DW_OP_stack_value, DW_OP_LLVM_fragment 192 32] $sp
	@DEBUG_VALUE: doPrint:fmt <- [DW_OP_plus_uconst 76] [$sp+0]
	@DEBUG_VALUE: doPrint:n <- [DW_OP_plus_uconst 40] [$sp+0]
	@DEBUG_VALUE: doPrint:parse <- [DW_OP_plus_uconst 64, DW_OP_LLVM_fragment 128 32] [$sp+0]
	@DEBUG_VALUE: doPrint:parse <- [DW_OP_plus_uconst 52, DW_OP_LLVM_fragment 64 32] [$sp+0]
	@DEBUG_VALUE: doPrint:parse <- [DW_OP_plus_uconst 56, DW_OP_LLVM_fragment 0 32] [$sp+0]
	@DEBUG_VALUE: doPrint:c <- $r7
	@DEBUG_VALUE: doPrint:va <- [DW_OP_plus_uconst 80] [$sp+0]
	.loc	1 0 21 is_stmt 0                @ ../../../../../../kernel/freertos/dpl/SystemP_freertos.c:0:21
	mov	r1, r0
.Ltmp88:
.LBB1_41:                               @   in Loop: Header=BB1_2 Depth=1
	@DEBUG_VALUE: doPrint:buf <- [DW_OP_plus_uconst 32] [$sp+0]
	@DEBUG_VALUE: doPrint:parse <- [DW_OP_LLVM_fragment 96 32] 0
	@DEBUG_VALUE: doPrint:parse <- [DW_OP_plus_uconst 44, DW_OP_LLVM_fragment 160 32] [$sp+0]
	@DEBUG_VALUE: doPrint:parse <- [DW_OP_plus_uconst 84, DW_OP_stack_value, DW_OP_LLVM_fragment 192 32] $sp
	@DEBUG_VALUE: doPrint:fmt <- [DW_OP_plus_uconst 76] [$sp+0]
	@DEBUG_VALUE: doPrint:n <- [DW_OP_plus_uconst 40] [$sp+0]
	@DEBUG_VALUE: doPrint:parse <- [DW_OP_plus_uconst 64, DW_OP_LLVM_fragment 128 32] [$sp+0]
	@DEBUG_VALUE: doPrint:parse <- [DW_OP_plus_uconst 52, DW_OP_LLVM_fragment 64 32] [$sp+0]
	@DEBUG_VALUE: doPrint:parse <- [DW_OP_plus_uconst 56, DW_OP_LLVM_fragment 0 32] [$sp+0]
	@DEBUG_VALUE: doPrint:c <- $r7
	@DEBUG_VALUE: doPrint:va <- [DW_OP_plus_uconst 80] [$sp+0]
	@DEBUG_VALUE: doPrint:parse <- [DW_OP_LLVM_fragment 128 32] $r1
	ldr	r7, [sp, #80]                   @ 4-byte Reload
.Ltmp89:
	.loc	1 239 38 is_stmt 1              @ ../../../../../../kernel/freertos/dpl/SystemP_freertos.c:239:38
	ldr	r2, [r7]
.Ltmp90:
	@DEBUG_VALUE: formatNum:base <- 10
	@DEBUG_VALUE: formatNum:n <- $r2
	@DEBUG_VALUE: formatNum:sign <- 0
	@DEBUG_VALUE: formatNum:i <- 0
	@DEBUG_VALUE: formatNum:un <- $r2
	@DEBUG_VALUE: formatNum:ptr <- [DW_OP_plus_uconst 44] [$sp+0]
	@DEBUG_VALUE: val <- $r2
	@DEBUG_VALUE: formatNum:zpad <- $r1
	.loc	1 405 13                        @ ../../../../../../kernel/freertos/dpl/SystemP_freertos.c:405:13
	asrs	r0, r2, #31
	adds	r1, r1, r0
.Ltmp91:
	.loc	1 0 13 is_stmt 0                @ ../../../../../../kernel/freertos/dpl/SystemP_freertos.c:0:13
	str	r1, [sp, #52]                   @ 4-byte Spill
	str	r2, [sp, #64]                   @ 4-byte Spill
.Ltmp92:
	@DEBUG_VALUE: formatNum:n <- [DW_OP_plus_uconst 64] [$sp+0]
	@DEBUG_VALUE: formatNum:un <- [DW_OP_plus_uconst 64] [$sp+0]
	@DEBUG_VALUE: val <- [DW_OP_plus_uconst 64] [$sp+0]
	.loc	1 405 13                        @ ../../../../../../kernel/freertos/dpl/SystemP_freertos.c:405:13
	mov	r1, r2
	eors	r1, r0
	subs	r5, r1, r0
.Ltmp93:
	@DEBUG_VALUE: formatNum:n <- $r5
	.loc	1 0 13                          @ ../../../../../../kernel/freertos/dpl/SystemP_freertos.c:0:13
	movs	r6, #0
.Ltmp94:
	@DEBUG_VALUE: formatNum:sign <- undef
	@DEBUG_VALUE: formatNum:zpad <- [DW_OP_plus_uconst 52] [$sp+0]
	ldr	r7, .LCPI1_8
.Ltmp95:
.LBB1_42:                               @   Parent Loop BB1_2 Depth=1
                                        @ =>  This Inner Loop Header: Depth=2
	@DEBUG_VALUE: formatNum:zpad <- [DW_OP_plus_uconst 52] [$sp+0]
	@DEBUG_VALUE: formatNum:n <- $r5
	@DEBUG_VALUE: val <- [DW_OP_plus_uconst 64] [$sp+0]
	@DEBUG_VALUE: formatNum:un <- [DW_OP_plus_uconst 64] [$sp+0]
	@DEBUG_VALUE: formatNum:base <- 10
	@DEBUG_VALUE: doPrint:buf <- [DW_OP_plus_uconst 32] [$sp+0]
	@DEBUG_VALUE: doPrint:parse <- [DW_OP_LLVM_fragment 96 32] 0
	@DEBUG_VALUE: doPrint:parse <- [DW_OP_plus_uconst 44, DW_OP_LLVM_fragment 160 32] [$sp+0]
	@DEBUG_VALUE: doPrint:parse <- [DW_OP_plus_uconst 84, DW_OP_stack_value, DW_OP_LLVM_fragment 192 32] $sp
	@DEBUG_VALUE: doPrint:fmt <- [DW_OP_plus_uconst 76] [$sp+0]
	@DEBUG_VALUE: doPrint:n <- [DW_OP_plus_uconst 40] [$sp+0]
	@DEBUG_VALUE: doPrint:parse <- [DW_OP_plus_uconst 52, DW_OP_LLVM_fragment 64 32] [$sp+0]
	@DEBUG_VALUE: doPrint:parse <- [DW_OP_plus_uconst 56, DW_OP_LLVM_fragment 0 32] [$sp+0]
	@DEBUG_VALUE: doPrint:va <- [DW_OP_plus_uconst 80] [$sp+0]
	@DEBUG_VALUE: formatNum:ptr <- [DW_OP_LLVM_arg 0, DW_OP_consts 18446744073709551614, DW_OP_div, DW_OP_consts 18446744073709551614, DW_OP_mul, DW_OP_consts 16, DW_OP_LLVM_arg 1, DW_OP_plus_uconst 84, DW_OP_plus, DW_OP_plus, DW_OP_stack_value] $r6, $sp
	@DEBUG_VALUE: formatNum:i <- [DW_OP_consts 18446744073709551614, DW_OP_div, DW_OP_consts 2, DW_OP_mul, DW_OP_stack_value] $r6
	@DEBUG_VALUE: formatNum:n <- $r5
	movs	r4, #10
.Ltmp96:
	.loc	1 419 22 is_stmt 1              @ ../../../../../../kernel/freertos/dpl/SystemP_freertos.c:419:22
	mov	r0, r5
	mov	r1, r4
	bl	__aeabi_uidiv
.Ltmp97:
	.loc	1 0 22 is_stmt 0                @ ../../../../../../kernel/freertos/dpl/SystemP_freertos.c:0:22
	add	r1, sp, #84
.Ltmp98:
	@DEBUG_VALUE: formatNum:ptr <- [DW_OP_LLVM_arg 0, DW_OP_consts 18446744073709551614, DW_OP_div, DW_OP_consts 18446744073709551614, DW_OP_mul, DW_OP_consts 15, DW_OP_LLVM_arg 1, DW_OP_plus_uconst 84, DW_OP_plus, DW_OP_plus, DW_OP_stack_value] $r6, $sp
	.loc	1 418 18 is_stmt 1              @ ../../../../../../kernel/freertos/dpl/SystemP_freertos.c:418:18
	adds	r1, r1, r6
	muls	r4, r0, r4
	subs	r2, r5, r4
	.loc	1 418 20 is_stmt 0              @ ../../../../../../kernel/freertos/dpl/SystemP_freertos.c:418:20
	ldrb	r2, [r7, r2]
	.loc	1 418 18                        @ ../../../../../../kernel/freertos/dpl/SystemP_freertos.c:418:18
	strb	r2, [r1, #15]
.Ltmp99:
	@DEBUG_VALUE: formatNum:n <- undef
	@DEBUG_VALUE: formatNum:i <- [DW_OP_constu 1, DW_OP_or, DW_OP_stack_value] $r6
	.loc	1 421 5 is_stmt 1               @ ../../../../../../kernel/freertos/dpl/SystemP_freertos.c:421:5
	cmp	r5, #10
	blo	.LBB1_51
.Ltmp100:
@ %bb.43:                               @   in Loop: Header=BB1_42 Depth=2
	@DEBUG_VALUE: formatNum:i <- [DW_OP_constu 1, DW_OP_or, DW_OP_stack_value] $r6
	@DEBUG_VALUE: formatNum:ptr <- [DW_OP_LLVM_arg 0, DW_OP_consts 18446744073709551614, DW_OP_div, DW_OP_consts 18446744073709551614, DW_OP_mul, DW_OP_consts 15, DW_OP_LLVM_arg 1, DW_OP_plus_uconst 84, DW_OP_plus, DW_OP_plus, DW_OP_stack_value] $r6, $sp
	@DEBUG_VALUE: formatNum:zpad <- [DW_OP_plus_uconst 52] [$sp+0]
	@DEBUG_VALUE: val <- [DW_OP_plus_uconst 64] [$sp+0]
	@DEBUG_VALUE: formatNum:un <- [DW_OP_plus_uconst 64] [$sp+0]
	@DEBUG_VALUE: formatNum:base <- 10
	@DEBUG_VALUE: doPrint:buf <- [DW_OP_plus_uconst 32] [$sp+0]
	@DEBUG_VALUE: doPrint:parse <- [DW_OP_LLVM_fragment 96 32] 0
	@DEBUG_VALUE: doPrint:parse <- [DW_OP_plus_uconst 44, DW_OP_LLVM_fragment 160 32] [$sp+0]
	@DEBUG_VALUE: doPrint:parse <- [DW_OP_plus_uconst 84, DW_OP_stack_value, DW_OP_LLVM_fragment 192 32] $sp
	@DEBUG_VALUE: doPrint:fmt <- [DW_OP_plus_uconst 76] [$sp+0]
	@DEBUG_VALUE: doPrint:n <- [DW_OP_plus_uconst 40] [$sp+0]
	@DEBUG_VALUE: doPrint:parse <- [DW_OP_plus_uconst 52, DW_OP_LLVM_fragment 64 32] [$sp+0]
	@DEBUG_VALUE: doPrint:parse <- [DW_OP_plus_uconst 56, DW_OP_LLVM_fragment 0 32] [$sp+0]
	@DEBUG_VALUE: doPrint:va <- [DW_OP_plus_uconst 80] [$sp+0]
	@DEBUG_VALUE: formatNum:ptr <- [DW_OP_LLVM_arg 0, DW_OP_consts 18446744073709551614, DW_OP_div, DW_OP_consts 18446744073709551614, DW_OP_mul, DW_OP_consts 15, DW_OP_LLVM_arg 1, DW_OP_plus_uconst 84, DW_OP_plus, DW_OP_plus, DW_OP_stack_value] $r6, $sp
	@DEBUG_VALUE: formatNum:i <- [DW_OP_constu 1, DW_OP_or, DW_OP_stack_value] $r6
	@DEBUG_VALUE: formatNum:n <- $r0
	.loc	1 0 5 is_stmt 0                 @ ../../../../../../kernel/freertos/dpl/SystemP_freertos.c:0:5
	movs	r1, #10
	.loc	1 418 47 is_stmt 1              @ ../../../../../../kernel/freertos/dpl/SystemP_freertos.c:418:47
	bl	__aeabi_uidivmod
.Ltmp101:
	.loc	1 0 47 is_stmt 0                @ ../../../../../../kernel/freertos/dpl/SystemP_freertos.c:0:47
	add	r0, sp, #84
.Ltmp102:
	@DEBUG_VALUE: formatNum:ptr <- [DW_OP_LLVM_arg 0, DW_OP_consts 18446744073709551614, DW_OP_div, DW_OP_consts 18446744073709551614, DW_OP_mul, DW_OP_consts 14, DW_OP_LLVM_arg 1, DW_OP_plus_uconst 84, DW_OP_plus, DW_OP_plus, DW_OP_stack_value] $r6, $sp
	.loc	1 418 18                        @ ../../../../../../kernel/freertos/dpl/SystemP_freertos.c:418:18
	adds	r0, r0, r6
	.loc	1 418 20                        @ ../../../../../../kernel/freertos/dpl/SystemP_freertos.c:418:20
	ldrb	r1, [r7, r1]
	.loc	1 418 18                        @ ../../../../../../kernel/freertos/dpl/SystemP_freertos.c:418:18
	strb	r1, [r0, #14]
	movs	r1, #100
	.loc	1 419 22 is_stmt 1              @ ../../../../../../kernel/freertos/dpl/SystemP_freertos.c:419:22
	mov	r0, r5
	bl	__aeabi_uidiv
.Ltmp103:
	@DEBUG_VALUE: formatNum:n <- $r0
	@DEBUG_VALUE: formatNum:i <- [DW_OP_consts 18446744073709551614, DW_OP_div, DW_OP_consts 2, DW_OP_mul, DW_OP_consts 2, DW_OP_plus, DW_OP_stack_value] $r6
	.loc	1 421 5                         @ ../../../../../../kernel/freertos/dpl/SystemP_freertos.c:421:5
	subs	r6, r6, #2
.Ltmp104:
	cmp	r5, #99
	mov	r5, r0
.Ltmp105:
	@DEBUG_VALUE: formatNum:n <- $r5
	@DEBUG_VALUE: formatNum:n <- $r5
	bhi	.LBB1_42
.Ltmp106:
@ %bb.44:                               @   in Loop: Header=BB1_2 Depth=1
	@DEBUG_VALUE: val <- [DW_OP_plus_uconst 64] [$sp+0]
	@DEBUG_VALUE: doPrint:buf <- [DW_OP_plus_uconst 32] [$sp+0]
	@DEBUG_VALUE: doPrint:parse <- [DW_OP_LLVM_fragment 96 32] 0
	@DEBUG_VALUE: doPrint:parse <- [DW_OP_plus_uconst 44, DW_OP_LLVM_fragment 160 32] [$sp+0]
	@DEBUG_VALUE: doPrint:parse <- [DW_OP_plus_uconst 84, DW_OP_stack_value, DW_OP_LLVM_fragment 192 32] $sp
	@DEBUG_VALUE: doPrint:fmt <- [DW_OP_plus_uconst 76] [$sp+0]
	@DEBUG_VALUE: doPrint:n <- [DW_OP_plus_uconst 40] [$sp+0]
	@DEBUG_VALUE: doPrint:parse <- [DW_OP_plus_uconst 52, DW_OP_LLVM_fragment 64 32] [$sp+0]
	@DEBUG_VALUE: doPrint:parse <- [DW_OP_plus_uconst 56, DW_OP_LLVM_fragment 0 32] [$sp+0]
	@DEBUG_VALUE: doPrint:va <- [DW_OP_plus_uconst 80] [$sp+0]
	.loc	1 0 5 is_stmt 0                 @ ../../../../../../kernel/freertos/dpl/SystemP_freertos.c:0:5
	ldr	r0, [sp, #36]                   @ 4-byte Reload
	.loc	1 239 38 is_stmt 1              @ ../../../../../../kernel/freertos/dpl/SystemP_freertos.c:239:38
	mov	r1, r0
	muls	r1, r6, r1
	subs	r0, r0, r6
	add	r2, sp, #84
	adds	r5, r2, r6
	adds	r5, #16
	b	.LBB1_52
.Ltmp107:
.LBB1_45:                               @   in Loop: Header=BB1_2 Depth=1
	@DEBUG_VALUE: doPrint:parse <- [DW_OP_LLVM_fragment 64 32] 0
	@DEBUG_VALUE: doPrint:parse <- [DW_OP_plus_uconst 56, DW_OP_LLVM_fragment 0 32] [$sp+0]
	@DEBUG_VALUE: doPrint:c <- $r7
	@DEBUG_VALUE: doPrint:va <- [DW_OP_plus_uconst 80] [$sp+0]
	@DEBUG_VALUE: doPrint:buf <- $r6
	@DEBUG_VALUE: doPrint:n <- $r1
	.loc	1 0 0 is_stmt 0                 @ ../../../../../../kernel/freertos/dpl/SystemP_freertos.c:0:0
	adds	r5, r5, #1
.Ltmp108:
	@DEBUG_VALUE: doPrint:parse <- [DW_OP_LLVM_fragment 64 32] 0
	@DEBUG_VALUE: doPrint:fmt <- $r5
	.loc	1 207 37 is_stmt 1              @ ../../../../../../kernel/freertos/dpl/SystemP_freertos.c:207:37
	mov	r3, r7
	subs	r3, #48
	.loc	1 207 21 is_stmt 0              @ ../../../../../../kernel/freertos/dpl/SystemP_freertos.c:207:21
	cmp	r3, #9
.Ltmp109:
	@DEBUG_VALUE: doPrint:c <- undef
	bhi	.LBB1_50
.Ltmp110:
@ %bb.46:                               @   in Loop: Header=BB1_2 Depth=1
	@DEBUG_VALUE: doPrint:parse <- [DW_OP_LLVM_fragment 64 32] 0
	@DEBUG_VALUE: doPrint:parse <- [DW_OP_plus_uconst 56, DW_OP_LLVM_fragment 0 32] [$sp+0]
	@DEBUG_VALUE: doPrint:fmt <- $r5
	@DEBUG_VALUE: doPrint:va <- [DW_OP_plus_uconst 80] [$sp+0]
	@DEBUG_VALUE: doPrint:buf <- $r6
	@DEBUG_VALUE: doPrint:n <- $r1
	.loc	1 0 21                          @ ../../../../../../kernel/freertos/dpl/SystemP_freertos.c:0:21
	str	r2, [sp, #76]                   @ 4-byte Spill
	movs	r2, #0
.Ltmp111:
.LBB1_47:                               @   Parent Loop BB1_2 Depth=1
                                        @ =>  This Inner Loop Header: Depth=2
	@DEBUG_VALUE: doPrint:parse <- [DW_OP_plus_uconst 56, DW_OP_LLVM_fragment 0 32] [$sp+0]
	@DEBUG_VALUE: doPrint:va <- [DW_OP_plus_uconst 80] [$sp+0]
	@DEBUG_VALUE: doPrint:buf <- $r6
	@DEBUG_VALUE: doPrint:n <- $r1
	@DEBUG_VALUE: doPrint:fmt <- $r5
	@DEBUG_VALUE: doPrint:c <- $r7
	@DEBUG_VALUE: doPrint:parse <- [DW_OP_LLVM_fragment 64 32] $r2
	movs	r3, #10
.Ltmp112:
	.loc	1 209 53 is_stmt 1              @ ../../../../../../kernel/freertos/dpl/SystemP_freertos.c:209:53
	muls	r2, r3, r2
.Ltmp113:
	.loc	1 209 58 is_stmt 0              @ ../../../../../../kernel/freertos/dpl/SystemP_freertos.c:209:58
	adds	r2, r2, r7
	.loc	1 209 62                        @ ../../../../../../kernel/freertos/dpl/SystemP_freertos.c:209:62
	subs	r2, #48
.Ltmp114:
	@DEBUG_VALUE: doPrint:parse <- [DW_OP_LLVM_fragment 64 32] $r2
	@DEBUG_VALUE: doPrint:fmt <- [DW_OP_plus_uconst 1, DW_OP_stack_value] $r5
	.loc	1 210 40 is_stmt 1              @ ../../../../../../kernel/freertos/dpl/SystemP_freertos.c:210:40
	ldrb	r7, [r5]
.Ltmp115:
	@DEBUG_VALUE: doPrint:c <- undef
	.loc	1 207 37                        @ ../../../../../../kernel/freertos/dpl/SystemP_freertos.c:207:37
	mov	r4, r7
	subs	r4, #48
	.loc	1 207 21 is_stmt 0              @ ../../../../../../kernel/freertos/dpl/SystemP_freertos.c:207:21
	cmp	r4, #9
	bls	.LBB1_48
	b	.LBB1_87
.Ltmp116:
.LBB1_48:                               @   in Loop: Header=BB1_47 Depth=2
	@DEBUG_VALUE: doPrint:parse <- [DW_OP_LLVM_fragment 64 32] $r2
	@DEBUG_VALUE: doPrint:parse <- [DW_OP_plus_uconst 56, DW_OP_LLVM_fragment 0 32] [$sp+0]
	@DEBUG_VALUE: doPrint:fmt <- [DW_OP_plus_uconst 1, DW_OP_stack_value] $r5
	@DEBUG_VALUE: doPrint:va <- [DW_OP_plus_uconst 80] [$sp+0]
	@DEBUG_VALUE: doPrint:buf <- $r6
	@DEBUG_VALUE: doPrint:n <- $r1
	@DEBUG_VALUE: doPrint:fmt <- [DW_OP_plus_uconst 1, DW_OP_stack_value] $r5
	@DEBUG_VALUE: doPrint:parse <- [DW_OP_LLVM_fragment 64 32] $r2
	.loc	1 209 53 is_stmt 1              @ ../../../../../../kernel/freertos/dpl/SystemP_freertos.c:209:53
	muls	r3, r2, r3
	.loc	1 209 58 is_stmt 0              @ ../../../../../../kernel/freertos/dpl/SystemP_freertos.c:209:58
	adds	r2, r3, r7
.Ltmp117:
	.loc	1 209 62                        @ ../../../../../../kernel/freertos/dpl/SystemP_freertos.c:209:62
	subs	r2, #48
.Ltmp118:
	@DEBUG_VALUE: doPrint:parse <- [DW_OP_LLVM_fragment 64 32] $r2
	.loc	1 210 44 is_stmt 1              @ ../../../../../../kernel/freertos/dpl/SystemP_freertos.c:210:44
	adds	r3, r5, #2
.Ltmp119:
	@DEBUG_VALUE: doPrint:fmt <- $r3
	.loc	1 210 40 is_stmt 0              @ ../../../../../../kernel/freertos/dpl/SystemP_freertos.c:210:40
	ldrb	r7, [r5, #1]
.Ltmp120:
	@DEBUG_VALUE: doPrint:c <- undef
	.loc	1 207 37 is_stmt 1              @ ../../../../../../kernel/freertos/dpl/SystemP_freertos.c:207:37
	mov	r4, r7
	subs	r4, #48
	.loc	1 207 21 is_stmt 0              @ ../../../../../../kernel/freertos/dpl/SystemP_freertos.c:207:21
	cmp	r4, #10
	mov	r5, r3
	blo	.LBB1_47
.Ltmp121:
@ %bb.49:                               @   in Loop: Header=BB1_2 Depth=1
	@DEBUG_VALUE: doPrint:fmt <- $r3
	@DEBUG_VALUE: doPrint:parse <- [DW_OP_LLVM_fragment 64 32] $r2
	@DEBUG_VALUE: doPrint:parse <- [DW_OP_plus_uconst 56, DW_OP_LLVM_fragment 0 32] [$sp+0]
	@DEBUG_VALUE: doPrint:va <- [DW_OP_plus_uconst 80] [$sp+0]
	@DEBUG_VALUE: doPrint:buf <- $r6
	@DEBUG_VALUE: doPrint:n <- $r1
	.loc	1 0 21                          @ ../../../../../../kernel/freertos/dpl/SystemP_freertos.c:0:21
	str	r2, [sp, #52]                   @ 4-byte Spill
.Ltmp122:
	@DEBUG_VALUE: doPrint:parse <- [DW_OP_plus_uconst 52, DW_OP_LLVM_fragment 64 32] [$sp+0]
	mov	r5, r3
.Ltmp123:
	@DEBUG_VALUE: doPrint:fmt <- $r5
	b	.LBB1_88
.Ltmp124:
.LBB1_50:                               @   in Loop: Header=BB1_2 Depth=1
	@DEBUG_VALUE: doPrint:parse <- [DW_OP_LLVM_fragment 64 32] 0
	@DEBUG_VALUE: doPrint:parse <- [DW_OP_plus_uconst 56, DW_OP_LLVM_fragment 0 32] [$sp+0]
	@DEBUG_VALUE: doPrint:fmt <- $r5
	@DEBUG_VALUE: doPrint:va <- [DW_OP_plus_uconst 80] [$sp+0]
	@DEBUG_VALUE: doPrint:buf <- $r6
	@DEBUG_VALUE: doPrint:n <- $r1
	mov	r3, r2
	movs	r2, #0
	str	r2, [sp, #52]                   @ 4-byte Spill
	mov	r2, r3
	b	.LBB1_31
.Ltmp125:
.LBB1_51:                               @   in Loop: Header=BB1_2 Depth=1
	@DEBUG_VALUE: val <- [DW_OP_plus_uconst 64] [$sp+0]
	@DEBUG_VALUE: doPrint:buf <- [DW_OP_plus_uconst 32] [$sp+0]
	@DEBUG_VALUE: doPrint:parse <- [DW_OP_LLVM_fragment 96 32] 0
	@DEBUG_VALUE: doPrint:parse <- [DW_OP_plus_uconst 44, DW_OP_LLVM_fragment 160 32] [$sp+0]
	@DEBUG_VALUE: doPrint:parse <- [DW_OP_plus_uconst 84, DW_OP_stack_value, DW_OP_LLVM_fragment 192 32] $sp
	@DEBUG_VALUE: doPrint:fmt <- [DW_OP_plus_uconst 76] [$sp+0]
	@DEBUG_VALUE: doPrint:n <- [DW_OP_plus_uconst 40] [$sp+0]
	@DEBUG_VALUE: doPrint:parse <- [DW_OP_plus_uconst 52, DW_OP_LLVM_fragment 64 32] [$sp+0]
	@DEBUG_VALUE: doPrint:parse <- [DW_OP_plus_uconst 56, DW_OP_LLVM_fragment 0 32] [$sp+0]
	@DEBUG_VALUE: doPrint:va <- [DW_OP_plus_uconst 80] [$sp+0]
	.loc	1 239 38 is_stmt 1              @ ../../../../../../kernel/freertos/dpl/SystemP_freertos.c:239:38
	ldr	r0, [sp, #36]                   @ 4-byte Reload
	muls	r0, r6, r0
	adds	r1, r0, #1
	add	r2, sp, #84
	adds	r5, r2, r6
	adds	r5, #15
.Ltmp126:
.LBB1_52:                               @   in Loop: Header=BB1_2 Depth=1
	@DEBUG_VALUE: val <- [DW_OP_plus_uconst 64] [$sp+0]
	@DEBUG_VALUE: doPrint:buf <- [DW_OP_plus_uconst 32] [$sp+0]
	@DEBUG_VALUE: doPrint:parse <- [DW_OP_LLVM_fragment 96 32] 0
	@DEBUG_VALUE: doPrint:parse <- [DW_OP_plus_uconst 44, DW_OP_LLVM_fragment 160 32] [$sp+0]
	@DEBUG_VALUE: doPrint:parse <- [DW_OP_plus_uconst 84, DW_OP_stack_value, DW_OP_LLVM_fragment 192 32] $sp
	@DEBUG_VALUE: doPrint:fmt <- [DW_OP_plus_uconst 76] [$sp+0]
	@DEBUG_VALUE: doPrint:n <- [DW_OP_plus_uconst 40] [$sp+0]
	@DEBUG_VALUE: doPrint:parse <- [DW_OP_plus_uconst 52, DW_OP_LLVM_fragment 64 32] [$sp+0]
	@DEBUG_VALUE: doPrint:parse <- [DW_OP_plus_uconst 56, DW_OP_LLVM_fragment 0 32] [$sp+0]
	@DEBUG_VALUE: doPrint:va <- [DW_OP_plus_uconst 80] [$sp+0]
	@DEBUG_VALUE: doPrint:va <- undef
	@DEBUG_VALUE: formatNum:ptr <- $r5
	@DEBUG_VALUE: formatNum:i <- $r1
	.loc	1 0 38 is_stmt 0                @ ../../../../../../kernel/freertos/dpl/SystemP_freertos.c:0:38
	ldr	r2, [sp, #52]                   @ 4-byte Reload
.Ltmp127:
	.loc	1 424 5 is_stmt 1               @ ../../../../../../kernel/freertos/dpl/SystemP_freertos.c:424:5
	cmp	r1, r2
	ldr	r6, [sp, #32]                   @ 4-byte Reload
.Ltmp128:
	@DEBUG_VALUE: doPrint:buf <- $r6
	.loc	1 0 5 is_stmt 0                 @ ../../../../../../kernel/freertos/dpl/SystemP_freertos.c:0:5
	ldr	r4, [sp, #72]                   @ 4-byte Reload
	ldr	r3, [sp, #56]                   @ 4-byte Reload
	.loc	1 424 5                         @ ../../../../../../kernel/freertos/dpl/SystemP_freertos.c:424:5
	bge	.LBB1_54
.Ltmp129:
@ %bb.53:                               @   in Loop: Header=BB1_2 Depth=1
	@DEBUG_VALUE: formatNum:i <- $r1
	@DEBUG_VALUE: formatNum:ptr <- $r5
	@DEBUG_VALUE: val <- [DW_OP_plus_uconst 64] [$sp+0]
	@DEBUG_VALUE: doPrint:parse <- [DW_OP_LLVM_fragment 96 32] 0
	@DEBUG_VALUE: doPrint:parse <- [DW_OP_plus_uconst 44, DW_OP_LLVM_fragment 160 32] [$sp+0]
	@DEBUG_VALUE: doPrint:parse <- [DW_OP_plus_uconst 84, DW_OP_stack_value, DW_OP_LLVM_fragment 192 32] $sp
	@DEBUG_VALUE: doPrint:fmt <- [DW_OP_plus_uconst 76] [$sp+0]
	@DEBUG_VALUE: doPrint:n <- [DW_OP_plus_uconst 40] [$sp+0]
	@DEBUG_VALUE: doPrint:parse <- [DW_OP_plus_uconst 52, DW_OP_LLVM_fragment 64 32] [$sp+0]
	@DEBUG_VALUE: doPrint:parse <- [DW_OP_plus_uconst 56, DW_OP_LLVM_fragment 0 32] [$sp+0]
	@DEBUG_VALUE: doPrint:buf <- $r6
	ldr	r1, [sp, #44]                   @ 4-byte Reload
.Ltmp130:
	subs	r5, r1, r2
.Ltmp131:
	mvns	r0, r0
	adds	r1, r2, r0
	movs	r2, #48
.Ltmp132:
	.loc	1 426 18 is_stmt 1              @ ../../../../../../kernel/freertos/dpl/SystemP_freertos.c:426:18
	mov	r0, r5
	bl	__aeabi_memset
.Ltmp133:
	.loc	1 0 18 is_stmt 0                @ ../../../../../../kernel/freertos/dpl/SystemP_freertos.c:0:18
	ldr	r3, [sp, #56]                   @ 4-byte Reload
.Ltmp134:
	@DEBUG_VALUE: formatNum:i <- undef
	@DEBUG_VALUE: formatNum:ptr <- undef
.LBB1_54:                               @   in Loop: Header=BB1_2 Depth=1
	@DEBUG_VALUE: val <- [DW_OP_plus_uconst 64] [$sp+0]
	@DEBUG_VALUE: doPrint:parse <- [DW_OP_LLVM_fragment 96 32] 0
	@DEBUG_VALUE: doPrint:parse <- [DW_OP_plus_uconst 44, DW_OP_LLVM_fragment 160 32] [$sp+0]
	@DEBUG_VALUE: doPrint:parse <- [DW_OP_plus_uconst 84, DW_OP_stack_value, DW_OP_LLVM_fragment 192 32] $sp
	@DEBUG_VALUE: doPrint:fmt <- [DW_OP_plus_uconst 76] [$sp+0]
	@DEBUG_VALUE: doPrint:n <- [DW_OP_plus_uconst 40] [$sp+0]
	@DEBUG_VALUE: doPrint:parse <- [DW_OP_plus_uconst 52, DW_OP_LLVM_fragment 64 32] [$sp+0]
	@DEBUG_VALUE: doPrint:parse <- [DW_OP_plus_uconst 56, DW_OP_LLVM_fragment 0 32] [$sp+0]
	@DEBUG_VALUE: doPrint:buf <- $r6
	@DEBUG_VALUE: doPrint:va <- undef
	.loc	1 431 9 is_stmt 1               @ ../../../../../../kernel/freertos/dpl/SystemP_freertos.c:431:9
	ldr	r0, [sp, #64]                   @ 4-byte Reload
	cmp	r0, #0
	bpl	.LBB1_56
.Ltmp135:
@ %bb.55:                               @   in Loop: Header=BB1_2 Depth=1
	@DEBUG_VALUE: val <- [DW_OP_plus_uconst 64] [$sp+0]
	@DEBUG_VALUE: doPrint:parse <- [DW_OP_LLVM_fragment 96 32] 0
	@DEBUG_VALUE: doPrint:parse <- [DW_OP_plus_uconst 44, DW_OP_LLVM_fragment 160 32] [$sp+0]
	@DEBUG_VALUE: doPrint:parse <- [DW_OP_plus_uconst 84, DW_OP_stack_value, DW_OP_LLVM_fragment 192 32] $sp
	@DEBUG_VALUE: doPrint:fmt <- [DW_OP_plus_uconst 76] [$sp+0]
	@DEBUG_VALUE: doPrint:n <- [DW_OP_plus_uconst 40] [$sp+0]
	@DEBUG_VALUE: doPrint:parse <- [DW_OP_plus_uconst 52, DW_OP_LLVM_fragment 64 32] [$sp+0]
	@DEBUG_VALUE: doPrint:parse <- [DW_OP_plus_uconst 56, DW_OP_LLVM_fragment 0 32] [$sp+0]
	@DEBUG_VALUE: doPrint:buf <- $r6
	.loc	1 433 11                        @ ../../../../../../kernel/freertos/dpl/SystemP_freertos.c:433:11
	subs	r5, r5, #1
.Ltmp136:
	@DEBUG_VALUE: formatNum:ptr <- $r5
	.loc	1 0 11 is_stmt 0                @ ../../../../../../kernel/freertos/dpl/SystemP_freertos.c:0:11
	movs	r0, #45
	.loc	1 433 18                        @ ../../../../../../kernel/freertos/dpl/SystemP_freertos.c:433:18
	strb	r0, [r5]
.Ltmp137:
.LBB1_56:                               @   in Loop: Header=BB1_2 Depth=1
	@DEBUG_VALUE: val <- [DW_OP_plus_uconst 64] [$sp+0]
	@DEBUG_VALUE: doPrint:parse <- [DW_OP_LLVM_fragment 96 32] 0
	@DEBUG_VALUE: doPrint:parse <- [DW_OP_plus_uconst 44, DW_OP_LLVM_fragment 160 32] [$sp+0]
	@DEBUG_VALUE: doPrint:parse <- [DW_OP_plus_uconst 84, DW_OP_stack_value, DW_OP_LLVM_fragment 192 32] $sp
	@DEBUG_VALUE: doPrint:fmt <- [DW_OP_plus_uconst 76] [$sp+0]
	@DEBUG_VALUE: doPrint:n <- [DW_OP_plus_uconst 40] [$sp+0]
	@DEBUG_VALUE: doPrint:parse <- [DW_OP_plus_uconst 52, DW_OP_LLVM_fragment 64 32] [$sp+0]
	@DEBUG_VALUE: doPrint:parse <- [DW_OP_plus_uconst 56, DW_OP_LLVM_fragment 0 32] [$sp+0]
	@DEBUG_VALUE: doPrint:buf <- $r6
	.loc	1 0 18                          @ ../../../../../../kernel/freertos/dpl/SystemP_freertos.c:0:18
	ldr	r7, [sp, #80]                   @ 4-byte Reload
	adds	r7, r7, #4
	@DEBUG_VALUE: formatNum:ptr <- $r5
.Ltmp138:
	@DEBUG_VALUE: doPrint:parse <- [DW_OP_LLVM_fragment 192 32] $r5
	@DEBUG_VALUE: doPrint:va <- $r7
	b	.LBB1_122
.Ltmp139:
.LBB1_57:                               @   in Loop: Header=BB1_2 Depth=1
	@DEBUG_VALUE: doPrint:parse <- [DW_OP_LLVM_fragment 96 32] 0
	@DEBUG_VALUE: doPrint:parse <- [DW_OP_plus_uconst 44, DW_OP_LLVM_fragment 160 32] [$sp+0]
	@DEBUG_VALUE: doPrint:parse <- [DW_OP_plus_uconst 84, DW_OP_stack_value, DW_OP_LLVM_fragment 192 32] $sp
	@DEBUG_VALUE: doPrint:fmt <- [DW_OP_plus_uconst 76] [$sp+0]
	@DEBUG_VALUE: doPrint:n <- [DW_OP_plus_uconst 40] [$sp+0]
	@DEBUG_VALUE: doPrint:parse <- [DW_OP_plus_uconst 64, DW_OP_LLVM_fragment 128 32] [$sp+0]
	@DEBUG_VALUE: doPrint:parse <- [DW_OP_plus_uconst 52, DW_OP_LLVM_fragment 64 32] [$sp+0]
	@DEBUG_VALUE: doPrint:parse <- [DW_OP_plus_uconst 56, DW_OP_LLVM_fragment 0 32] [$sp+0]
	@DEBUG_VALUE: doPrint:c <- $r7
	@DEBUG_VALUE: doPrint:va <- [DW_OP_plus_uconst 80] [$sp+0]
	@DEBUG_VALUE: doPrint:buf <- $r6
	ldr	r7, [sp, #80]                   @ 4-byte Reload
.Ltmp140:
	.loc	1 273 36 is_stmt 1              @ ../../../../../../kernel/freertos/dpl/SystemP_freertos.c:273:36
	ldm	r7!, {r0}
.Ltmp141:
	@DEBUG_VALUE: doPrint:va <- $r7
	.loc	1 0 36 is_stmt 0                @ ../../../../../../kernel/freertos/dpl/SystemP_freertos.c:0:36
	add	r1, sp, #84
	str	r1, [sp, #64]                   @ 4-byte Spill
	.loc	1 273 28                        @ ../../../../../../kernel/freertos/dpl/SystemP_freertos.c:273:28
	strb	r0, [r1]
	movs	r5, #1
.Ltmp142:
	@DEBUG_VALUE: doPrint:parse <- [DW_OP_LLVM_fragment 96 32] 1
	.loc	1 0 28                          @ ../../../../../../kernel/freertos/dpl/SystemP_freertos.c:0:28
	b	.LBB1_123
.Ltmp143:
.LBB1_58:                               @   in Loop: Header=BB1_2 Depth=1
	@DEBUG_VALUE: doPrint:parse <- [DW_OP_LLVM_fragment 96 32] 0
	@DEBUG_VALUE: doPrint:parse <- [DW_OP_plus_uconst 44, DW_OP_LLVM_fragment 160 32] [$sp+0]
	@DEBUG_VALUE: doPrint:parse <- [DW_OP_plus_uconst 84, DW_OP_stack_value, DW_OP_LLVM_fragment 192 32] $sp
	@DEBUG_VALUE: doPrint:fmt <- [DW_OP_plus_uconst 76] [$sp+0]
	@DEBUG_VALUE: doPrint:n <- [DW_OP_plus_uconst 40] [$sp+0]
	@DEBUG_VALUE: doPrint:parse <- [DW_OP_plus_uconst 64, DW_OP_LLVM_fragment 128 32] [$sp+0]
	@DEBUG_VALUE: doPrint:parse <- [DW_OP_plus_uconst 52, DW_OP_LLVM_fragment 64 32] [$sp+0]
	@DEBUG_VALUE: doPrint:parse <- [DW_OP_plus_uconst 56, DW_OP_LLVM_fragment 0 32] [$sp+0]
	@DEBUG_VALUE: doPrint:c <- $r7
	@DEBUG_VALUE: doPrint:va <- [DW_OP_plus_uconst 80] [$sp+0]
	@DEBUG_VALUE: doPrint:buf <- $r6
	@DEBUG_VALUE: putChar:bufp <- undef
	@DEBUG_VALUE: putChar:c <- $r7
	@DEBUG_VALUE: putChar:n <- undef
	ldr	r1, [sp, #40]                   @ 4-byte Reload
.Ltmp144:
	@DEBUG_VALUE: doPrint:n <- $r1
	.loc	1 448 9 is_stmt 1               @ ../../../../../../kernel/freertos/dpl/SystemP_freertos.c:448:9
	cmp	r1, #2
	blo	.LBB1_60
.Ltmp145:
@ %bb.59:                               @   in Loop: Header=BB1_2 Depth=1
	@DEBUG_VALUE: putChar:c <- $r7
	@DEBUG_VALUE: doPrint:parse <- [DW_OP_LLVM_fragment 96 32] 0
	@DEBUG_VALUE: doPrint:parse <- [DW_OP_plus_uconst 44, DW_OP_LLVM_fragment 160 32] [$sp+0]
	@DEBUG_VALUE: doPrint:parse <- [DW_OP_plus_uconst 84, DW_OP_stack_value, DW_OP_LLVM_fragment 192 32] $sp
	@DEBUG_VALUE: doPrint:fmt <- [DW_OP_plus_uconst 76] [$sp+0]
	@DEBUG_VALUE: doPrint:parse <- [DW_OP_plus_uconst 64, DW_OP_LLVM_fragment 128 32] [$sp+0]
	@DEBUG_VALUE: doPrint:parse <- [DW_OP_plus_uconst 52, DW_OP_LLVM_fragment 64 32] [$sp+0]
	@DEBUG_VALUE: doPrint:parse <- [DW_OP_plus_uconst 56, DW_OP_LLVM_fragment 0 32] [$sp+0]
	@DEBUG_VALUE: doPrint:c <- $r7
	@DEBUG_VALUE: doPrint:va <- [DW_OP_plus_uconst 80] [$sp+0]
	@DEBUG_VALUE: doPrint:buf <- $r6
	@DEBUG_VALUE: doPrint:n <- $r1
	.loc	1 455 18                        @ ../../../../../../kernel/freertos/dpl/SystemP_freertos.c:455:18
	strb	r7, [r6]
	.loc	1 455 14 is_stmt 0              @ ../../../../../../kernel/freertos/dpl/SystemP_freertos.c:455:14
	adds	r6, r6, #1
.Ltmp146:
	@DEBUG_VALUE: doPrint:buf <- $r6
	.loc	1 454 9 is_stmt 1               @ ../../../../../../kernel/freertos/dpl/SystemP_freertos.c:454:9
	subs	r1, r1, #1
.Ltmp147:
	@DEBUG_VALUE: doPrint:n <- $r1
.LBB1_60:                               @   in Loop: Header=BB1_2 Depth=1
	@DEBUG_VALUE: doPrint:parse <- [DW_OP_LLVM_fragment 96 32] 0
	@DEBUG_VALUE: doPrint:parse <- [DW_OP_plus_uconst 44, DW_OP_LLVM_fragment 160 32] [$sp+0]
	@DEBUG_VALUE: doPrint:parse <- [DW_OP_plus_uconst 84, DW_OP_stack_value, DW_OP_LLVM_fragment 192 32] $sp
	@DEBUG_VALUE: doPrint:fmt <- [DW_OP_plus_uconst 76] [$sp+0]
	@DEBUG_VALUE: doPrint:parse <- [DW_OP_plus_uconst 64, DW_OP_LLVM_fragment 128 32] [$sp+0]
	@DEBUG_VALUE: doPrint:parse <- [DW_OP_plus_uconst 52, DW_OP_LLVM_fragment 64 32] [$sp+0]
	@DEBUG_VALUE: doPrint:parse <- [DW_OP_plus_uconst 56, DW_OP_LLVM_fragment 0 32] [$sp+0]
	@DEBUG_VALUE: doPrint:c <- $r7
	@DEBUG_VALUE: doPrint:va <- [DW_OP_plus_uconst 80] [$sp+0]
	@DEBUG_VALUE: doPrint:buf <- $r6
	@DEBUG_VALUE: doPrint:n <- $r1
	.loc	1 0 9 is_stmt 0                 @ ../../../../../../kernel/freertos/dpl/SystemP_freertos.c:0:9
	ldr	r0, [sp, #48]                   @ 4-byte Reload
	@DEBUG_VALUE: doPrint:buf <- $r6
	@DEBUG_VALUE: doPrint:n <- $r1
.Ltmp148:
	@DEBUG_VALUE: doPrint:res <- undef
	.loc	1 334 17 is_stmt 1              @ ../../../../../../kernel/freertos/dpl/SystemP_freertos.c:334:17
	adds	r0, r4, r0
	adds	r4, r0, #1
	b	.LBB1_2
.Ltmp149:
.LBB1_61:                               @   in Loop: Header=BB1_2 Depth=1
	@DEBUG_VALUE: doPrint:parse <- [DW_OP_LLVM_fragment 96 32] 0
	@DEBUG_VALUE: doPrint:parse <- [DW_OP_plus_uconst 44, DW_OP_LLVM_fragment 160 32] [$sp+0]
	@DEBUG_VALUE: doPrint:parse <- [DW_OP_plus_uconst 84, DW_OP_stack_value, DW_OP_LLVM_fragment 192 32] $sp
	@DEBUG_VALUE: doPrint:fmt <- [DW_OP_plus_uconst 76] [$sp+0]
	@DEBUG_VALUE: doPrint:n <- [DW_OP_plus_uconst 40] [$sp+0]
	@DEBUG_VALUE: doPrint:parse <- [DW_OP_plus_uconst 64, DW_OP_LLVM_fragment 128 32] [$sp+0]
	@DEBUG_VALUE: doPrint:parse <- [DW_OP_plus_uconst 52, DW_OP_LLVM_fragment 64 32] [$sp+0]
	@DEBUG_VALUE: doPrint:parse <- [DW_OP_plus_uconst 56, DW_OP_LLVM_fragment 0 32] [$sp+0]
	@DEBUG_VALUE: doPrint:c <- $r7
	@DEBUG_VALUE: doPrint:va <- [DW_OP_plus_uconst 80] [$sp+0]
	@DEBUG_VALUE: doPrint:buf <- $r6
	@DEBUG_VALUE: negative <- 0
	.loc	1 0 17 is_stmt 0                @ ../../../../../../kernel/freertos/dpl/SystemP_freertos.c:0:17
	ldr	r4, [sp, #80]                   @ 4-byte Reload
.Ltmp150:
	.loc	1 298 21 is_stmt 1              @ ../../../../../../kernel/freertos/dpl/SystemP_freertos.c:298:21
	adds	r4, r4, #7
	movs	r0, #7
	bics	r4, r0
.Ltmp151:
	@DEBUG_VALUE: d <- undef
	ldm	r4!, {r0, r5}
	movs	r2, #0
	str	r0, [sp, #20]                   @ 4-byte Spill
.Ltmp152:
	.loc	1 300 23                        @ ../../../../../../kernel/freertos/dpl/SystemP_freertos.c:300:23
	mov	r1, r5
	str	r2, [sp, #52]                   @ 4-byte Spill
	mov	r3, r2
.Ltmp153:
	.loc	1 298 21                        @ ../../../../../../kernel/freertos/dpl/SystemP_freertos.c:298:21
	subs	r4, #8
.Ltmp154:
	.loc	1 300 23                        @ ../../../../../../kernel/freertos/dpl/SystemP_freertos.c:300:23
	bl	__aeabi_dcmplt
.Ltmp155:
	.loc	1 300 21 is_stmt 0              @ ../../../../../../kernel/freertos/dpl/SystemP_freertos.c:300:21
	cmp	r0, #0
	str	r4, [sp, #80]                   @ 4-byte Spill
	beq	.LBB1_62
	b	.LBB1_89
.Ltmp156:
.LBB1_62:                               @   in Loop: Header=BB1_2 Depth=1
	@DEBUG_VALUE: negative <- 0
	@DEBUG_VALUE: doPrint:parse <- [DW_OP_LLVM_fragment 96 32] 0
	@DEBUG_VALUE: doPrint:parse <- [DW_OP_plus_uconst 44, DW_OP_LLVM_fragment 160 32] [$sp+0]
	@DEBUG_VALUE: doPrint:parse <- [DW_OP_plus_uconst 84, DW_OP_stack_value, DW_OP_LLVM_fragment 192 32] $sp
	@DEBUG_VALUE: doPrint:fmt <- [DW_OP_plus_uconst 76] [$sp+0]
	@DEBUG_VALUE: doPrint:n <- [DW_OP_plus_uconst 40] [$sp+0]
	@DEBUG_VALUE: doPrint:parse <- [DW_OP_plus_uconst 64, DW_OP_LLVM_fragment 128 32] [$sp+0]
	@DEBUG_VALUE: doPrint:parse <- [DW_OP_plus_uconst 52, DW_OP_LLVM_fragment 64 32] [$sp+0]
	@DEBUG_VALUE: doPrint:parse <- [DW_OP_plus_uconst 56, DW_OP_LLVM_fragment 0 32] [$sp+0]
	@DEBUG_VALUE: doPrint:c <- $r7
	@DEBUG_VALUE: doPrint:va <- [DW_OP_plus_uconst 80] [$sp+0]
	@DEBUG_VALUE: doPrint:buf <- $r6
	.loc	1 0 21                          @ ../../../../../../kernel/freertos/dpl/SystemP_freertos.c:0:21
	mov	r4, r5
	b	.LBB1_90
.Ltmp157:
.LBB1_63:                               @   in Loop: Header=BB1_2 Depth=1
	@DEBUG_VALUE: doPrint:parse <- [DW_OP_LLVM_fragment 96 32] 0
	@DEBUG_VALUE: doPrint:parse <- [DW_OP_plus_uconst 44, DW_OP_LLVM_fragment 160 32] [$sp+0]
	@DEBUG_VALUE: doPrint:parse <- [DW_OP_plus_uconst 84, DW_OP_stack_value, DW_OP_LLVM_fragment 192 32] $sp
	@DEBUG_VALUE: doPrint:fmt <- [DW_OP_plus_uconst 76] [$sp+0]
	@DEBUG_VALUE: doPrint:n <- [DW_OP_plus_uconst 40] [$sp+0]
	@DEBUG_VALUE: doPrint:parse <- [DW_OP_plus_uconst 64, DW_OP_LLVM_fragment 128 32] [$sp+0]
	@DEBUG_VALUE: doPrint:parse <- [DW_OP_plus_uconst 52, DW_OP_LLVM_fragment 64 32] [$sp+0]
	@DEBUG_VALUE: doPrint:parse <- [DW_OP_plus_uconst 56, DW_OP_LLVM_fragment 0 32] [$sp+0]
	@DEBUG_VALUE: doPrint:c <- $r7
	@DEBUG_VALUE: doPrint:va <- [DW_OP_plus_uconst 80] [$sp+0]
	@DEBUG_VALUE: doPrint:buf <- $r6
	movs	r5, #8
	b	.LBB1_77
.Ltmp158:
.LBB1_64:                               @   in Loop: Header=BB1_2 Depth=1
	@DEBUG_VALUE: doPrint:parse <- [DW_OP_LLVM_fragment 96 32] 0
	@DEBUG_VALUE: doPrint:parse <- [DW_OP_plus_uconst 44, DW_OP_LLVM_fragment 160 32] [$sp+0]
	@DEBUG_VALUE: doPrint:parse <- [DW_OP_plus_uconst 84, DW_OP_stack_value, DW_OP_LLVM_fragment 192 32] $sp
	@DEBUG_VALUE: doPrint:fmt <- [DW_OP_plus_uconst 76] [$sp+0]
	@DEBUG_VALUE: doPrint:n <- [DW_OP_plus_uconst 40] [$sp+0]
	@DEBUG_VALUE: doPrint:parse <- [DW_OP_plus_uconst 64, DW_OP_LLVM_fragment 128 32] [$sp+0]
	@DEBUG_VALUE: doPrint:parse <- [DW_OP_plus_uconst 52, DW_OP_LLVM_fragment 64 32] [$sp+0]
	@DEBUG_VALUE: doPrint:parse <- [DW_OP_plus_uconst 56, DW_OP_LLVM_fragment 0 32] [$sp+0]
	@DEBUG_VALUE: doPrint:c <- $r7
	@DEBUG_VALUE: doPrint:va <- [DW_OP_plus_uconst 80] [$sp+0]
	@DEBUG_VALUE: doPrint:buf <- $r6
	@DEBUG_VALUE: doPrint:parse <- [DW_OP_LLVM_fragment 128 32] 8
	ldr	r7, [sp, #80]                   @ 4-byte Reload
.Ltmp159:
	.loc	1 266 64 is_stmt 1              @ ../../../../../../kernel/freertos/dpl/SystemP_freertos.c:266:64
	ldr	r1, [r7]
	@DEBUG_VALUE: formatNum:un <- $r1
	movs	r0, #0
	@DEBUG_VALUE: formatNum:zpad <- 8
	@DEBUG_VALUE: formatNum:base <- 16
	@DEBUG_VALUE: formatNum:sign <- 0
	@DEBUG_VALUE: formatNum:i <- 0
	@DEBUG_VALUE: formatNum:ptr <- [DW_OP_plus_uconst 44] [$sp+0]
	ldr	r5, .LCPI1_6
.Ltmp160:
.LBB1_65:                               @   Parent Loop BB1_2 Depth=1
                                        @ =>  This Inner Loop Header: Depth=2
	@DEBUG_VALUE: formatNum:sign <- 0
	@DEBUG_VALUE: formatNum:base <- 16
	@DEBUG_VALUE: formatNum:zpad <- 8
	@DEBUG_VALUE: doPrint:parse <- [DW_OP_LLVM_fragment 128 32] 8
	@DEBUG_VALUE: doPrint:parse <- [DW_OP_LLVM_fragment 96 32] 0
	@DEBUG_VALUE: doPrint:parse <- [DW_OP_plus_uconst 44, DW_OP_LLVM_fragment 160 32] [$sp+0]
	@DEBUG_VALUE: doPrint:parse <- [DW_OP_plus_uconst 84, DW_OP_stack_value, DW_OP_LLVM_fragment 192 32] $sp
	@DEBUG_VALUE: doPrint:fmt <- [DW_OP_plus_uconst 76] [$sp+0]
	@DEBUG_VALUE: doPrint:n <- [DW_OP_plus_uconst 40] [$sp+0]
	@DEBUG_VALUE: doPrint:parse <- [DW_OP_plus_uconst 52, DW_OP_LLVM_fragment 64 32] [$sp+0]
	@DEBUG_VALUE: doPrint:parse <- [DW_OP_plus_uconst 56, DW_OP_LLVM_fragment 0 32] [$sp+0]
	@DEBUG_VALUE: doPrint:va <- [DW_OP_plus_uconst 80] [$sp+0]
	@DEBUG_VALUE: doPrint:buf <- $r6
	@DEBUG_VALUE: formatNum:ptr <- [DW_OP_LLVM_arg 0, DW_OP_consts 18446744073709551612, DW_OP_div, DW_OP_consts 18446744073709551612, DW_OP_mul, DW_OP_consts 16, DW_OP_LLVM_arg 1, DW_OP_plus_uconst 84, DW_OP_plus, DW_OP_plus, DW_OP_stack_value] $r0, $sp
	.loc	1 0 64 is_stmt 0                @ ../../../../../../kernel/freertos/dpl/SystemP_freertos.c:0:64
	add	r2, sp, #84
.Ltmp161:
	@DEBUG_VALUE: formatNum:i <- [DW_OP_consts 18446744073709551612, DW_OP_div, DW_OP_consts 4, DW_OP_mul, DW_OP_stack_value] $r0
	@DEBUG_VALUE: formatNum:ptr <- [DW_OP_LLVM_arg 0, DW_OP_consts 18446744073709551612, DW_OP_div, DW_OP_consts 18446744073709551612, DW_OP_mul, DW_OP_consts 15, DW_OP_LLVM_arg 1, DW_OP_plus_uconst 84, DW_OP_plus, DW_OP_plus, DW_OP_stack_value] $r0, $sp
	@DEBUG_VALUE: formatNum:n <- $r1
	.loc	1 418 18 is_stmt 1              @ ../../../../../../kernel/freertos/dpl/SystemP_freertos.c:418:18
	adds	r3, r2, r0
	movs	r2, #15
	.loc	1 418 47 is_stmt 0              @ ../../../../../../kernel/freertos/dpl/SystemP_freertos.c:418:47
	mov	r4, r1
	ands	r4, r2
	.loc	1 418 20                        @ ../../../../../../kernel/freertos/dpl/SystemP_freertos.c:418:20
	ldrb	r4, [r5, r4]
	.loc	1 418 18                        @ ../../../../../../kernel/freertos/dpl/SystemP_freertos.c:418:18
	strb	r4, [r3, #15]
.Ltmp162:
	@DEBUG_VALUE: formatNum:i <- [DW_OP_plus_uconst 1, DW_OP_stack_value] $r0
	@DEBUG_VALUE: formatNum:n <- [DW_OP_constu 4, DW_OP_shr, DW_OP_stack_value] $r1
	.loc	1 419 22 is_stmt 1              @ ../../../../../../kernel/freertos/dpl/SystemP_freertos.c:419:22
	lsrs	r3, r1, #4
	bne	.LBB1_66
	b	.LBB1_98
.Ltmp163:
.LBB1_66:                               @   in Loop: Header=BB1_65 Depth=2
	@DEBUG_VALUE: formatNum:n <- [DW_OP_constu 4, DW_OP_shr, DW_OP_stack_value] $r1
	@DEBUG_VALUE: formatNum:i <- [DW_OP_plus_uconst 1, DW_OP_stack_value] $r0
	@DEBUG_VALUE: formatNum:ptr <- [DW_OP_LLVM_arg 0, DW_OP_consts 18446744073709551612, DW_OP_div, DW_OP_consts 18446744073709551612, DW_OP_mul, DW_OP_consts 15, DW_OP_LLVM_arg 1, DW_OP_plus_uconst 84, DW_OP_plus, DW_OP_plus, DW_OP_stack_value] $r0, $sp
	@DEBUG_VALUE: formatNum:sign <- 0
	@DEBUG_VALUE: formatNum:base <- 16
	@DEBUG_VALUE: formatNum:zpad <- 8
	@DEBUG_VALUE: doPrint:parse <- [DW_OP_LLVM_fragment 128 32] 8
	@DEBUG_VALUE: doPrint:parse <- [DW_OP_LLVM_fragment 96 32] 0
	@DEBUG_VALUE: doPrint:parse <- [DW_OP_plus_uconst 44, DW_OP_LLVM_fragment 160 32] [$sp+0]
	@DEBUG_VALUE: doPrint:parse <- [DW_OP_plus_uconst 84, DW_OP_stack_value, DW_OP_LLVM_fragment 192 32] $sp
	@DEBUG_VALUE: doPrint:fmt <- [DW_OP_plus_uconst 76] [$sp+0]
	@DEBUG_VALUE: doPrint:n <- [DW_OP_plus_uconst 40] [$sp+0]
	@DEBUG_VALUE: doPrint:parse <- [DW_OP_plus_uconst 52, DW_OP_LLVM_fragment 64 32] [$sp+0]
	@DEBUG_VALUE: doPrint:parse <- [DW_OP_plus_uconst 56, DW_OP_LLVM_fragment 0 32] [$sp+0]
	@DEBUG_VALUE: doPrint:va <- [DW_OP_plus_uconst 80] [$sp+0]
	@DEBUG_VALUE: doPrint:buf <- $r6
	@DEBUG_VALUE: formatNum:n <- $r3
	@DEBUG_VALUE: formatNum:ptr <- [DW_OP_LLVM_arg 0, DW_OP_consts 18446744073709551612, DW_OP_div, DW_OP_consts 18446744073709551612, DW_OP_mul, DW_OP_consts 15, DW_OP_LLVM_arg 1, DW_OP_plus_uconst 84, DW_OP_plus, DW_OP_plus, DW_OP_stack_value] $r0, $sp
	@DEBUG_VALUE: formatNum:i <- [DW_OP_constu 1, DW_OP_or, DW_OP_stack_value] $r0
	.loc	1 0 22 is_stmt 0                @ ../../../../../../kernel/freertos/dpl/SystemP_freertos.c:0:22
	add	r4, sp, #84
.Ltmp164:
	@DEBUG_VALUE: formatNum:ptr <- [DW_OP_LLVM_arg 0, DW_OP_consts 18446744073709551612, DW_OP_div, DW_OP_consts 18446744073709551612, DW_OP_mul, DW_OP_consts 14, DW_OP_LLVM_arg 1, DW_OP_plus_uconst 84, DW_OP_plus, DW_OP_plus, DW_OP_stack_value] $r0, $sp
	.loc	1 418 18 is_stmt 1              @ ../../../../../../kernel/freertos/dpl/SystemP_freertos.c:418:18
	adds	r4, r4, r0
	.loc	1 418 47 is_stmt 0              @ ../../../../../../kernel/freertos/dpl/SystemP_freertos.c:418:47
	ands	r3, r2
.Ltmp165:
	.loc	1 418 20                        @ ../../../../../../kernel/freertos/dpl/SystemP_freertos.c:418:20
	ldrb	r3, [r5, r3]
	.loc	1 418 18                        @ ../../../../../../kernel/freertos/dpl/SystemP_freertos.c:418:18
	strb	r3, [r4, #14]
.Ltmp166:
	@DEBUG_VALUE: formatNum:i <- [DW_OP_plus_uconst 2, DW_OP_stack_value] $r0
	@DEBUG_VALUE: formatNum:n <- [DW_OP_constu 4, DW_OP_shr, DW_OP_stack_value] undef
	.loc	1 419 22 is_stmt 1              @ ../../../../../../kernel/freertos/dpl/SystemP_freertos.c:419:22
	lsrs	r3, r1, #8
	bne	.LBB1_67
	b	.LBB1_99
.Ltmp167:
.LBB1_67:                               @   in Loop: Header=BB1_65 Depth=2
	@DEBUG_VALUE: formatNum:i <- [DW_OP_plus_uconst 2, DW_OP_stack_value] $r0
	@DEBUG_VALUE: formatNum:ptr <- [DW_OP_LLVM_arg 0, DW_OP_consts 18446744073709551612, DW_OP_div, DW_OP_consts 18446744073709551612, DW_OP_mul, DW_OP_consts 14, DW_OP_LLVM_arg 1, DW_OP_plus_uconst 84, DW_OP_plus, DW_OP_plus, DW_OP_stack_value] $r0, $sp
	@DEBUG_VALUE: formatNum:sign <- 0
	@DEBUG_VALUE: formatNum:base <- 16
	@DEBUG_VALUE: formatNum:zpad <- 8
	@DEBUG_VALUE: doPrint:parse <- [DW_OP_LLVM_fragment 128 32] 8
	@DEBUG_VALUE: doPrint:parse <- [DW_OP_LLVM_fragment 96 32] 0
	@DEBUG_VALUE: doPrint:parse <- [DW_OP_plus_uconst 44, DW_OP_LLVM_fragment 160 32] [$sp+0]
	@DEBUG_VALUE: doPrint:parse <- [DW_OP_plus_uconst 84, DW_OP_stack_value, DW_OP_LLVM_fragment 192 32] $sp
	@DEBUG_VALUE: doPrint:fmt <- [DW_OP_plus_uconst 76] [$sp+0]
	@DEBUG_VALUE: doPrint:n <- [DW_OP_plus_uconst 40] [$sp+0]
	@DEBUG_VALUE: doPrint:parse <- [DW_OP_plus_uconst 52, DW_OP_LLVM_fragment 64 32] [$sp+0]
	@DEBUG_VALUE: doPrint:parse <- [DW_OP_plus_uconst 56, DW_OP_LLVM_fragment 0 32] [$sp+0]
	@DEBUG_VALUE: doPrint:va <- [DW_OP_plus_uconst 80] [$sp+0]
	@DEBUG_VALUE: doPrint:buf <- $r6
	@DEBUG_VALUE: formatNum:n <- $r3
	@DEBUG_VALUE: formatNum:ptr <- [DW_OP_LLVM_arg 0, DW_OP_consts 18446744073709551612, DW_OP_div, DW_OP_consts 18446744073709551612, DW_OP_mul, DW_OP_consts 14, DW_OP_LLVM_arg 1, DW_OP_plus_uconst 84, DW_OP_plus, DW_OP_plus, DW_OP_stack_value] $r0, $sp
	@DEBUG_VALUE: formatNum:i <- [DW_OP_constu 2, DW_OP_or, DW_OP_stack_value] $r0
	.loc	1 0 22 is_stmt 0                @ ../../../../../../kernel/freertos/dpl/SystemP_freertos.c:0:22
	add	r4, sp, #84
.Ltmp168:
	@DEBUG_VALUE: formatNum:ptr <- [DW_OP_LLVM_arg 0, DW_OP_consts 18446744073709551612, DW_OP_div, DW_OP_consts 18446744073709551612, DW_OP_mul, DW_OP_consts 13, DW_OP_LLVM_arg 1, DW_OP_plus_uconst 84, DW_OP_plus, DW_OP_plus, DW_OP_stack_value] $r0, $sp
	.loc	1 418 18 is_stmt 1              @ ../../../../../../kernel/freertos/dpl/SystemP_freertos.c:418:18
	adds	r4, r4, r0
	.loc	1 418 47 is_stmt 0              @ ../../../../../../kernel/freertos/dpl/SystemP_freertos.c:418:47
	ands	r3, r2
.Ltmp169:
	.loc	1 418 20                        @ ../../../../../../kernel/freertos/dpl/SystemP_freertos.c:418:20
	ldrb	r3, [r5, r3]
	.loc	1 418 18                        @ ../../../../../../kernel/freertos/dpl/SystemP_freertos.c:418:18
	strb	r3, [r4, #13]
.Ltmp170:
	@DEBUG_VALUE: formatNum:i <- [DW_OP_plus_uconst 3, DW_OP_stack_value] $r0
	@DEBUG_VALUE: formatNum:n <- [DW_OP_constu 4, DW_OP_shr, DW_OP_stack_value] undef
	.loc	1 419 22 is_stmt 1              @ ../../../../../../kernel/freertos/dpl/SystemP_freertos.c:419:22
	lsrs	r3, r1, #12
	bne	.LBB1_68
	b	.LBB1_100
.Ltmp171:
.LBB1_68:                               @   in Loop: Header=BB1_65 Depth=2
	@DEBUG_VALUE: formatNum:i <- [DW_OP_plus_uconst 3, DW_OP_stack_value] $r0
	@DEBUG_VALUE: formatNum:ptr <- [DW_OP_LLVM_arg 0, DW_OP_consts 18446744073709551612, DW_OP_div, DW_OP_consts 18446744073709551612, DW_OP_mul, DW_OP_consts 13, DW_OP_LLVM_arg 1, DW_OP_plus_uconst 84, DW_OP_plus, DW_OP_plus, DW_OP_stack_value] $r0, $sp
	@DEBUG_VALUE: formatNum:sign <- 0
	@DEBUG_VALUE: formatNum:base <- 16
	@DEBUG_VALUE: formatNum:zpad <- 8
	@DEBUG_VALUE: doPrint:parse <- [DW_OP_LLVM_fragment 128 32] 8
	@DEBUG_VALUE: doPrint:parse <- [DW_OP_LLVM_fragment 96 32] 0
	@DEBUG_VALUE: doPrint:parse <- [DW_OP_plus_uconst 44, DW_OP_LLVM_fragment 160 32] [$sp+0]
	@DEBUG_VALUE: doPrint:parse <- [DW_OP_plus_uconst 84, DW_OP_stack_value, DW_OP_LLVM_fragment 192 32] $sp
	@DEBUG_VALUE: doPrint:fmt <- [DW_OP_plus_uconst 76] [$sp+0]
	@DEBUG_VALUE: doPrint:n <- [DW_OP_plus_uconst 40] [$sp+0]
	@DEBUG_VALUE: doPrint:parse <- [DW_OP_plus_uconst 52, DW_OP_LLVM_fragment 64 32] [$sp+0]
	@DEBUG_VALUE: doPrint:parse <- [DW_OP_plus_uconst 56, DW_OP_LLVM_fragment 0 32] [$sp+0]
	@DEBUG_VALUE: doPrint:va <- [DW_OP_plus_uconst 80] [$sp+0]
	@DEBUG_VALUE: doPrint:buf <- $r6
	@DEBUG_VALUE: formatNum:n <- $r3
	@DEBUG_VALUE: formatNum:ptr <- [DW_OP_LLVM_arg 0, DW_OP_consts 18446744073709551612, DW_OP_div, DW_OP_consts 18446744073709551612, DW_OP_mul, DW_OP_consts 13, DW_OP_LLVM_arg 1, DW_OP_plus_uconst 84, DW_OP_plus, DW_OP_plus, DW_OP_stack_value] $r0, $sp
	@DEBUG_VALUE: formatNum:i <- [DW_OP_constu 3, DW_OP_or, DW_OP_stack_value] $r0
	.loc	1 0 22 is_stmt 0                @ ../../../../../../kernel/freertos/dpl/SystemP_freertos.c:0:22
	add	r4, sp, #84
.Ltmp172:
	@DEBUG_VALUE: formatNum:ptr <- [DW_OP_LLVM_arg 0, DW_OP_consts 18446744073709551612, DW_OP_div, DW_OP_consts 18446744073709551612, DW_OP_mul, DW_OP_consts 12, DW_OP_LLVM_arg 1, DW_OP_plus_uconst 84, DW_OP_plus, DW_OP_plus, DW_OP_stack_value] $r0, $sp
	.loc	1 418 18 is_stmt 1              @ ../../../../../../kernel/freertos/dpl/SystemP_freertos.c:418:18
	adds	r4, r4, r0
	.loc	1 418 47 is_stmt 0              @ ../../../../../../kernel/freertos/dpl/SystemP_freertos.c:418:47
	ands	r3, r2
.Ltmp173:
	.loc	1 418 20                        @ ../../../../../../kernel/freertos/dpl/SystemP_freertos.c:418:20
	ldrb	r2, [r5, r3]
	.loc	1 418 18                        @ ../../../../../../kernel/freertos/dpl/SystemP_freertos.c:418:18
	strb	r2, [r4, #12]
.Ltmp174:
	@DEBUG_VALUE: formatNum:i <- [DW_OP_consts 18446744073709551612, DW_OP_div, DW_OP_consts 4, DW_OP_mul, DW_OP_consts 4, DW_OP_plus, DW_OP_stack_value] $r0
	.loc	1 421 5 is_stmt 1               @ ../../../../../../kernel/freertos/dpl/SystemP_freertos.c:421:5
	subs	r0, r0, #4
.Ltmp175:
	.loc	1 419 22                        @ ../../../../../../kernel/freertos/dpl/SystemP_freertos.c:419:22
	lsrs	r1, r1, #16
.Ltmp176:
	@DEBUG_VALUE: formatNum:n <- $r1
	.loc	1 421 5                         @ ../../../../../../kernel/freertos/dpl/SystemP_freertos.c:421:5
	bne	.LBB1_65
.Ltmp177:
@ %bb.69:                               @   in Loop: Header=BB1_2 Depth=1
	@DEBUG_VALUE: doPrint:parse <- [DW_OP_LLVM_fragment 128 32] 8
	@DEBUG_VALUE: doPrint:parse <- [DW_OP_LLVM_fragment 96 32] 0
	@DEBUG_VALUE: doPrint:parse <- [DW_OP_plus_uconst 44, DW_OP_LLVM_fragment 160 32] [$sp+0]
	@DEBUG_VALUE: doPrint:parse <- [DW_OP_plus_uconst 84, DW_OP_stack_value, DW_OP_LLVM_fragment 192 32] $sp
	@DEBUG_VALUE: doPrint:fmt <- [DW_OP_plus_uconst 76] [$sp+0]
	@DEBUG_VALUE: doPrint:n <- [DW_OP_plus_uconst 40] [$sp+0]
	@DEBUG_VALUE: doPrint:parse <- [DW_OP_plus_uconst 52, DW_OP_LLVM_fragment 64 32] [$sp+0]
	@DEBUG_VALUE: doPrint:parse <- [DW_OP_plus_uconst 56, DW_OP_LLVM_fragment 0 32] [$sp+0]
	@DEBUG_VALUE: doPrint:va <- [DW_OP_plus_uconst 80] [$sp+0]
	@DEBUG_VALUE: doPrint:buf <- $r6
	.loc	1 266 64                        @ ../../../../../../kernel/freertos/dpl/SystemP_freertos.c:266:64
	ldr	r1, [sp, #36]                   @ 4-byte Reload
	subs	r1, r1, r0
	add	r2, sp, #84
	adds	r0, r2, r0
	adds	r0, #16
	b	.LBB1_101
.Ltmp178:
.LBB1_70:                               @   in Loop: Header=BB1_2 Depth=1
	@DEBUG_VALUE: doPrint:parse <- [DW_OP_LLVM_fragment 96 32] 0
	@DEBUG_VALUE: doPrint:parse <- [DW_OP_plus_uconst 44, DW_OP_LLVM_fragment 160 32] [$sp+0]
	@DEBUG_VALUE: doPrint:parse <- [DW_OP_plus_uconst 84, DW_OP_stack_value, DW_OP_LLVM_fragment 192 32] $sp
	@DEBUG_VALUE: doPrint:fmt <- [DW_OP_plus_uconst 76] [$sp+0]
	@DEBUG_VALUE: doPrint:n <- [DW_OP_plus_uconst 40] [$sp+0]
	@DEBUG_VALUE: doPrint:parse <- [DW_OP_plus_uconst 64, DW_OP_LLVM_fragment 128 32] [$sp+0]
	@DEBUG_VALUE: doPrint:parse <- [DW_OP_plus_uconst 52, DW_OP_LLVM_fragment 64 32] [$sp+0]
	@DEBUG_VALUE: doPrint:parse <- [DW_OP_plus_uconst 56, DW_OP_LLVM_fragment 0 32] [$sp+0]
	@DEBUG_VALUE: doPrint:c <- $r7
	@DEBUG_VALUE: doPrint:va <- [DW_OP_plus_uconst 80] [$sp+0]
	@DEBUG_VALUE: doPrint:buf <- $r6
	.loc	1 0 64 is_stmt 0                @ ../../../../../../kernel/freertos/dpl/SystemP_freertos.c:0:64
	ldr	r7, [sp, #80]                   @ 4-byte Reload
.Ltmp179:
	.loc	1 279 37 is_stmt 1              @ ../../../../../../kernel/freertos/dpl/SystemP_freertos.c:279:37
	ldm	r7!, {r0}
.Ltmp180:
	@DEBUG_VALUE: doPrint:parse <- [DW_OP_LLVM_fragment 192 32] $r0
	@DEBUG_VALUE: doPrint:va <- $r7
	.loc	1 282 21                        @ ../../../../../../kernel/freertos/dpl/SystemP_freertos.c:282:21
	cmp	r0, #0
	bne	.LBB1_72
.Ltmp181:
@ %bb.71:                               @   in Loop: Header=BB1_2 Depth=1
	@DEBUG_VALUE: doPrint:va <- $r7
	@DEBUG_VALUE: doPrint:parse <- [DW_OP_LLVM_fragment 192 32] $r0
	@DEBUG_VALUE: doPrint:parse <- [DW_OP_LLVM_fragment 96 32] 0
	@DEBUG_VALUE: doPrint:parse <- [DW_OP_plus_uconst 44, DW_OP_LLVM_fragment 160 32] [$sp+0]
	@DEBUG_VALUE: doPrint:fmt <- [DW_OP_plus_uconst 76] [$sp+0]
	@DEBUG_VALUE: doPrint:n <- [DW_OP_plus_uconst 40] [$sp+0]
	@DEBUG_VALUE: doPrint:parse <- [DW_OP_plus_uconst 64, DW_OP_LLVM_fragment 128 32] [$sp+0]
	@DEBUG_VALUE: doPrint:parse <- [DW_OP_plus_uconst 52, DW_OP_LLVM_fragment 64 32] [$sp+0]
	@DEBUG_VALUE: doPrint:parse <- [DW_OP_plus_uconst 56, DW_OP_LLVM_fragment 0 32] [$sp+0]
	@DEBUG_VALUE: doPrint:buf <- $r6
	.loc	1 0 21 is_stmt 0                @ ../../../../../../kernel/freertos/dpl/SystemP_freertos.c:0:21
	adr	r0, .LCPI1_7
.Ltmp182:
.LBB1_72:                               @   in Loop: Header=BB1_2 Depth=1
	@DEBUG_VALUE: doPrint:va <- $r7
	@DEBUG_VALUE: doPrint:parse <- [DW_OP_LLVM_fragment 96 32] 0
	@DEBUG_VALUE: doPrint:parse <- [DW_OP_plus_uconst 44, DW_OP_LLVM_fragment 160 32] [$sp+0]
	@DEBUG_VALUE: doPrint:fmt <- [DW_OP_plus_uconst 76] [$sp+0]
	@DEBUG_VALUE: doPrint:n <- [DW_OP_plus_uconst 40] [$sp+0]
	@DEBUG_VALUE: doPrint:parse <- [DW_OP_plus_uconst 64, DW_OP_LLVM_fragment 128 32] [$sp+0]
	@DEBUG_VALUE: doPrint:parse <- [DW_OP_plus_uconst 52, DW_OP_LLVM_fragment 64 32] [$sp+0]
	@DEBUG_VALUE: doPrint:parse <- [DW_OP_plus_uconst 56, DW_OP_LLVM_fragment 0 32] [$sp+0]
	@DEBUG_VALUE: doPrint:buf <- $r6
	@DEBUG_VALUE: doPrint:parse <- [DW_OP_LLVM_fragment 192 32] $r0
	str	r0, [sp, #64]                   @ 4-byte Spill
.Ltmp183:
	@DEBUG_VALUE: doPrint:parse <- [DW_OP_plus_uconst 64, DW_OP_LLVM_fragment 192 32] [$sp+0]
	.loc	1 286 29 is_stmt 1              @ ../../../../../../kernel/freertos/dpl/SystemP_freertos.c:286:29
	bl	strlen
.Ltmp184:
	@DEBUG_VALUE: doPrint:parse <- [DW_OP_LLVM_fragment 96 32] $r0
	.loc	1 0 29 is_stmt 0                @ ../../../../../../kernel/freertos/dpl/SystemP_freertos.c:0:29
	ldr	r1, [sp, #52]                   @ 4-byte Reload
.Ltmp185:
	.loc	1 287 40 is_stmt 1              @ ../../../../../../kernel/freertos/dpl/SystemP_freertos.c:287:40
	cmp	r1, r0
	mov	r5, r1
	blt	.LBB1_74
.Ltmp186:
@ %bb.73:                               @   in Loop: Header=BB1_2 Depth=1
	@DEBUG_VALUE: doPrint:parse <- [DW_OP_LLVM_fragment 96 32] $r0
	@DEBUG_VALUE: doPrint:parse <- [DW_OP_plus_uconst 64, DW_OP_LLVM_fragment 192 32] [$sp+0]
	@DEBUG_VALUE: doPrint:va <- $r7
	@DEBUG_VALUE: doPrint:parse <- [DW_OP_plus_uconst 44, DW_OP_LLVM_fragment 160 32] [$sp+0]
	@DEBUG_VALUE: doPrint:fmt <- [DW_OP_plus_uconst 76] [$sp+0]
	@DEBUG_VALUE: doPrint:n <- [DW_OP_plus_uconst 40] [$sp+0]
	@DEBUG_VALUE: doPrint:parse <- [DW_OP_plus_uconst 64, DW_OP_LLVM_fragment 128 32] [$sp+0]
	@DEBUG_VALUE: doPrint:parse <- [DW_OP_plus_uconst 52, DW_OP_LLVM_fragment 64 32] [$sp+0]
	@DEBUG_VALUE: doPrint:parse <- [DW_OP_plus_uconst 56, DW_OP_LLVM_fragment 0 32] [$sp+0]
	@DEBUG_VALUE: doPrint:buf <- $r6
	.loc	1 0 40 is_stmt 0                @ ../../../../../../kernel/freertos/dpl/SystemP_freertos.c:0:40
	mov	r5, r0
.Ltmp187:
.LBB1_74:                               @   in Loop: Header=BB1_2 Depth=1
	@DEBUG_VALUE: doPrint:parse <- [DW_OP_LLVM_fragment 96 32] $r0
	@DEBUG_VALUE: doPrint:parse <- [DW_OP_plus_uconst 64, DW_OP_LLVM_fragment 192 32] [$sp+0]
	@DEBUG_VALUE: doPrint:va <- $r7
	@DEBUG_VALUE: doPrint:parse <- [DW_OP_plus_uconst 44, DW_OP_LLVM_fragment 160 32] [$sp+0]
	@DEBUG_VALUE: doPrint:fmt <- [DW_OP_plus_uconst 76] [$sp+0]
	@DEBUG_VALUE: doPrint:n <- [DW_OP_plus_uconst 40] [$sp+0]
	@DEBUG_VALUE: doPrint:parse <- [DW_OP_plus_uconst 64, DW_OP_LLVM_fragment 128 32] [$sp+0]
	@DEBUG_VALUE: doPrint:parse <- [DW_OP_plus_uconst 52, DW_OP_LLVM_fragment 64 32] [$sp+0]
	@DEBUG_VALUE: doPrint:parse <- [DW_OP_plus_uconst 56, DW_OP_LLVM_fragment 0 32] [$sp+0]
	@DEBUG_VALUE: doPrint:buf <- $r6
	.loc	1 287 40                        @ ../../../../../../kernel/freertos/dpl/SystemP_freertos.c:287:40
	adds	r2, r1, #1
	ldr	r3, [sp, #56]                   @ 4-byte Reload
	beq	.LBB1_75
	b	.LBB1_123
.Ltmp188:
.LBB1_75:                               @   in Loop: Header=BB1_2 Depth=1
	@DEBUG_VALUE: doPrint:parse <- [DW_OP_LLVM_fragment 96 32] $r0
	@DEBUG_VALUE: doPrint:parse <- [DW_OP_plus_uconst 64, DW_OP_LLVM_fragment 192 32] [$sp+0]
	@DEBUG_VALUE: doPrint:va <- $r7
	@DEBUG_VALUE: doPrint:parse <- [DW_OP_plus_uconst 44, DW_OP_LLVM_fragment 160 32] [$sp+0]
	@DEBUG_VALUE: doPrint:fmt <- [DW_OP_plus_uconst 76] [$sp+0]
	@DEBUG_VALUE: doPrint:n <- [DW_OP_plus_uconst 40] [$sp+0]
	@DEBUG_VALUE: doPrint:parse <- [DW_OP_plus_uconst 64, DW_OP_LLVM_fragment 128 32] [$sp+0]
	@DEBUG_VALUE: doPrint:parse <- [DW_OP_plus_uconst 52, DW_OP_LLVM_fragment 64 32] [$sp+0]
	@DEBUG_VALUE: doPrint:parse <- [DW_OP_plus_uconst 56, DW_OP_LLVM_fragment 0 32] [$sp+0]
	@DEBUG_VALUE: doPrint:buf <- $r6
	.loc	1 0 40                          @ ../../../../../../kernel/freertos/dpl/SystemP_freertos.c:0:40
	mov	r5, r0
.Ltmp189:
	@DEBUG_VALUE: doPrint:parse <- [DW_OP_LLVM_fragment 96 32] $r5
	b	.LBB1_123
.Ltmp190:
.LBB1_76:                               @   in Loop: Header=BB1_2 Depth=1
	@DEBUG_VALUE: doPrint:parse <- [DW_OP_LLVM_fragment 96 32] 0
	@DEBUG_VALUE: doPrint:parse <- [DW_OP_plus_uconst 44, DW_OP_LLVM_fragment 160 32] [$sp+0]
	@DEBUG_VALUE: doPrint:parse <- [DW_OP_plus_uconst 84, DW_OP_stack_value, DW_OP_LLVM_fragment 192 32] $sp
	@DEBUG_VALUE: doPrint:fmt <- [DW_OP_plus_uconst 76] [$sp+0]
	@DEBUG_VALUE: doPrint:n <- [DW_OP_plus_uconst 40] [$sp+0]
	@DEBUG_VALUE: doPrint:parse <- [DW_OP_plus_uconst 64, DW_OP_LLVM_fragment 128 32] [$sp+0]
	@DEBUG_VALUE: doPrint:parse <- [DW_OP_plus_uconst 52, DW_OP_LLVM_fragment 64 32] [$sp+0]
	@DEBUG_VALUE: doPrint:parse <- [DW_OP_plus_uconst 56, DW_OP_LLVM_fragment 0 32] [$sp+0]
	@DEBUG_VALUE: doPrint:c <- $r7
	@DEBUG_VALUE: doPrint:va <- [DW_OP_plus_uconst 80] [$sp+0]
	@DEBUG_VALUE: doPrint:buf <- $r6
	movs	r5, #16
.Ltmp191:
.LBB1_77:                               @   in Loop: Header=BB1_2 Depth=1
	@DEBUG_VALUE: doPrint:parse <- [DW_OP_LLVM_fragment 96 32] 0
	@DEBUG_VALUE: doPrint:parse <- [DW_OP_plus_uconst 44, DW_OP_LLVM_fragment 160 32] [$sp+0]
	@DEBUG_VALUE: doPrint:parse <- [DW_OP_plus_uconst 84, DW_OP_stack_value, DW_OP_LLVM_fragment 192 32] $sp
	@DEBUG_VALUE: doPrint:fmt <- [DW_OP_plus_uconst 76] [$sp+0]
	@DEBUG_VALUE: doPrint:n <- [DW_OP_plus_uconst 40] [$sp+0]
	@DEBUG_VALUE: doPrint:parse <- [DW_OP_plus_uconst 64, DW_OP_LLVM_fragment 128 32] [$sp+0]
	@DEBUG_VALUE: doPrint:parse <- [DW_OP_plus_uconst 52, DW_OP_LLVM_fragment 64 32] [$sp+0]
	@DEBUG_VALUE: doPrint:parse <- [DW_OP_plus_uconst 56, DW_OP_LLVM_fragment 0 32] [$sp+0]
	@DEBUG_VALUE: doPrint:c <- $r7
	@DEBUG_VALUE: doPrint:va <- [DW_OP_plus_uconst 80] [$sp+0]
	@DEBUG_VALUE: doPrint:buf <- $r6
	@DEBUG_VALUE: doPrint:base <- $r5
	str	r6, [sp, #32]                   @ 4-byte Spill
.Ltmp192:
	@DEBUG_VALUE: doPrint:buf <- [DW_OP_plus_uconst 32] [$sp+0]
	ldr	r7, [sp, #80]                   @ 4-byte Reload
.Ltmp193:
	.loc	1 254 40 is_stmt 1              @ ../../../../../../kernel/freertos/dpl/SystemP_freertos.c:254:40
	ldr	r7, [r7]
	@DEBUG_VALUE: formatNum:un <- $r7
.Ltmp194:
	@DEBUG_VALUE: val <- $r7
	.loc	1 0 40 is_stmt 0                @ ../../../../../../kernel/freertos/dpl/SystemP_freertos.c:0:40
	movs	r6, #0
	@DEBUG_VALUE: formatNum:base <- $r5
	@DEBUG_VALUE: formatNum:sign <- 0
	@DEBUG_VALUE: formatNum:i <- 0
	@DEBUG_VALUE: formatNum:ptr <- [DW_OP_plus_uconst 44] [$sp+0]
	@DEBUG_VALUE: formatNum:n <- $r7
.Ltmp195:
.LBB1_78:                               @   Parent Loop BB1_2 Depth=1
                                        @ =>  This Inner Loop Header: Depth=2
	@DEBUG_VALUE: formatNum:n <- $r7
	@DEBUG_VALUE: formatNum:sign <- 0
	@DEBUG_VALUE: formatNum:base <- $r5
	@DEBUG_VALUE: doPrint:buf <- [DW_OP_plus_uconst 32] [$sp+0]
	@DEBUG_VALUE: doPrint:base <- $r5
	@DEBUG_VALUE: doPrint:parse <- [DW_OP_LLVM_fragment 96 32] 0
	@DEBUG_VALUE: doPrint:parse <- [DW_OP_plus_uconst 44, DW_OP_LLVM_fragment 160 32] [$sp+0]
	@DEBUG_VALUE: doPrint:parse <- [DW_OP_plus_uconst 84, DW_OP_stack_value, DW_OP_LLVM_fragment 192 32] $sp
	@DEBUG_VALUE: doPrint:fmt <- [DW_OP_plus_uconst 76] [$sp+0]
	@DEBUG_VALUE: doPrint:n <- [DW_OP_plus_uconst 40] [$sp+0]
	@DEBUG_VALUE: doPrint:parse <- [DW_OP_plus_uconst 64, DW_OP_LLVM_fragment 128 32] [$sp+0]
	@DEBUG_VALUE: doPrint:parse <- [DW_OP_plus_uconst 52, DW_OP_LLVM_fragment 64 32] [$sp+0]
	@DEBUG_VALUE: doPrint:parse <- [DW_OP_plus_uconst 56, DW_OP_LLVM_fragment 0 32] [$sp+0]
	@DEBUG_VALUE: doPrint:va <- [DW_OP_plus_uconst 80] [$sp+0]
	@DEBUG_VALUE: formatNum:n <- $r7
	@DEBUG_VALUE: formatNum:ptr <- [DW_OP_LLVM_arg 0, DW_OP_consts 18446744073709551614, DW_OP_div, DW_OP_consts 18446744073709551614, DW_OP_mul, DW_OP_consts 16, DW_OP_LLVM_arg 1, DW_OP_plus_uconst 84, DW_OP_plus, DW_OP_plus, DW_OP_stack_value] $r6, $sp
	@DEBUG_VALUE: formatNum:i <- [DW_OP_consts 18446744073709551614, DW_OP_div, DW_OP_consts 2, DW_OP_mul, DW_OP_stack_value] $r6
	.loc	1 419 22 is_stmt 1              @ ../../../../../../kernel/freertos/dpl/SystemP_freertos.c:419:22
	mov	r0, r7
	mov	r1, r5
	bl	__aeabi_uidiv
.Ltmp196:
	mov	r4, r0
	add	r0, sp, #84
.Ltmp197:
	@DEBUG_VALUE: formatNum:ptr <- [DW_OP_LLVM_arg 0, DW_OP_consts 18446744073709551614, DW_OP_div, DW_OP_consts 18446744073709551614, DW_OP_mul, DW_OP_consts 15, DW_OP_LLVM_arg 1, DW_OP_plus_uconst 84, DW_OP_plus, DW_OP_plus, DW_OP_stack_value] $r6, $sp
	.loc	1 418 18                        @ ../../../../../../kernel/freertos/dpl/SystemP_freertos.c:418:18
	adds	r0, r0, r6
	mov	r1, r5
	muls	r1, r4, r1
	subs	r1, r7, r1
	.loc	1 418 20 is_stmt 0              @ ../../../../../../kernel/freertos/dpl/SystemP_freertos.c:418:20
	ldr	r2, __arm_cp.1_1
	ldrb	r1, [r2, r1]
	.loc	1 418 18                        @ ../../../../../../kernel/freertos/dpl/SystemP_freertos.c:418:18
	strb	r1, [r0, #15]
.Ltmp198:
	@DEBUG_VALUE: formatNum:i <- [DW_OP_constu 1, DW_OP_or, DW_OP_stack_value] $r6
	@DEBUG_VALUE: formatNum:n <- undef
	.loc	1 421 5 is_stmt 1               @ ../../../../../../kernel/freertos/dpl/SystemP_freertos.c:421:5
	cmp	r5, r7
	bhi	.LBB1_81
.Ltmp199:
@ %bb.79:                               @   in Loop: Header=BB1_78 Depth=2
	@DEBUG_VALUE: formatNum:i <- [DW_OP_constu 1, DW_OP_or, DW_OP_stack_value] $r6
	@DEBUG_VALUE: formatNum:ptr <- [DW_OP_LLVM_arg 0, DW_OP_consts 18446744073709551614, DW_OP_div, DW_OP_consts 18446744073709551614, DW_OP_mul, DW_OP_consts 15, DW_OP_LLVM_arg 1, DW_OP_plus_uconst 84, DW_OP_plus, DW_OP_plus, DW_OP_stack_value] $r6, $sp
	@DEBUG_VALUE: formatNum:sign <- 0
	@DEBUG_VALUE: formatNum:base <- $r5
	@DEBUG_VALUE: doPrint:buf <- [DW_OP_plus_uconst 32] [$sp+0]
	@DEBUG_VALUE: doPrint:base <- $r5
	@DEBUG_VALUE: doPrint:parse <- [DW_OP_LLVM_fragment 96 32] 0
	@DEBUG_VALUE: doPrint:parse <- [DW_OP_plus_uconst 44, DW_OP_LLVM_fragment 160 32] [$sp+0]
	@DEBUG_VALUE: doPrint:parse <- [DW_OP_plus_uconst 84, DW_OP_stack_value, DW_OP_LLVM_fragment 192 32] $sp
	@DEBUG_VALUE: doPrint:fmt <- [DW_OP_plus_uconst 76] [$sp+0]
	@DEBUG_VALUE: doPrint:n <- [DW_OP_plus_uconst 40] [$sp+0]
	@DEBUG_VALUE: doPrint:parse <- [DW_OP_plus_uconst 64, DW_OP_LLVM_fragment 128 32] [$sp+0]
	@DEBUG_VALUE: doPrint:parse <- [DW_OP_plus_uconst 52, DW_OP_LLVM_fragment 64 32] [$sp+0]
	@DEBUG_VALUE: doPrint:parse <- [DW_OP_plus_uconst 56, DW_OP_LLVM_fragment 0 32] [$sp+0]
	@DEBUG_VALUE: doPrint:va <- [DW_OP_plus_uconst 80] [$sp+0]
	@DEBUG_VALUE: formatNum:n <- $r4
	@DEBUG_VALUE: formatNum:ptr <- [DW_OP_LLVM_arg 0, DW_OP_consts 18446744073709551614, DW_OP_div, DW_OP_consts 18446744073709551614, DW_OP_mul, DW_OP_consts 15, DW_OP_LLVM_arg 1, DW_OP_plus_uconst 84, DW_OP_plus, DW_OP_plus, DW_OP_stack_value] $r6, $sp
	@DEBUG_VALUE: formatNum:i <- [DW_OP_constu 1, DW_OP_or, DW_OP_stack_value] $r6
	.loc	1 419 22                        @ ../../../../../../kernel/freertos/dpl/SystemP_freertos.c:419:22
	mov	r0, r4
	mov	r1, r5
	bl	__aeabi_uidiv
.Ltmp200:
	mov	r7, r0
.Ltmp201:
	@DEBUG_VALUE: formatNum:n <- $r7
	.loc	1 0 22 is_stmt 0                @ ../../../../../../kernel/freertos/dpl/SystemP_freertos.c:0:22
	add	r0, sp, #84
.Ltmp202:
	@DEBUG_VALUE: formatNum:ptr <- [DW_OP_LLVM_arg 0, DW_OP_consts 18446744073709551614, DW_OP_div, DW_OP_consts 18446744073709551614, DW_OP_mul, DW_OP_consts 14, DW_OP_LLVM_arg 1, DW_OP_plus_uconst 84, DW_OP_plus, DW_OP_plus, DW_OP_stack_value] $r6, $sp
	.loc	1 418 18 is_stmt 1              @ ../../../../../../kernel/freertos/dpl/SystemP_freertos.c:418:18
	adds	r0, r0, r6
	mov	r1, r5
	muls	r1, r7, r1
	subs	r1, r4, r1
	.loc	1 418 20 is_stmt 0              @ ../../../../../../kernel/freertos/dpl/SystemP_freertos.c:418:20
	ldr	r2, __arm_cp.1_1
	ldrb	r1, [r2, r1]
	.loc	1 418 18                        @ ../../../../../../kernel/freertos/dpl/SystemP_freertos.c:418:18
	strb	r1, [r0, #14]
.Ltmp203:
	@DEBUG_VALUE: formatNum:i <- [DW_OP_consts 18446744073709551614, DW_OP_div, DW_OP_consts 2, DW_OP_mul, DW_OP_consts 2, DW_OP_plus, DW_OP_stack_value] $r6
	.loc	1 421 5 is_stmt 1               @ ../../../../../../kernel/freertos/dpl/SystemP_freertos.c:421:5
	subs	r6, r6, #2
.Ltmp204:
	cmp	r5, r4
	bls	.LBB1_78
.Ltmp205:
@ %bb.80:                               @   in Loop: Header=BB1_2 Depth=1
	@DEBUG_VALUE: doPrint:buf <- [DW_OP_plus_uconst 32] [$sp+0]
	@DEBUG_VALUE: doPrint:base <- $r5
	@DEBUG_VALUE: doPrint:parse <- [DW_OP_LLVM_fragment 96 32] 0
	@DEBUG_VALUE: doPrint:parse <- [DW_OP_plus_uconst 44, DW_OP_LLVM_fragment 160 32] [$sp+0]
	@DEBUG_VALUE: doPrint:parse <- [DW_OP_plus_uconst 84, DW_OP_stack_value, DW_OP_LLVM_fragment 192 32] $sp
	@DEBUG_VALUE: doPrint:fmt <- [DW_OP_plus_uconst 76] [$sp+0]
	@DEBUG_VALUE: doPrint:n <- [DW_OP_plus_uconst 40] [$sp+0]
	@DEBUG_VALUE: doPrint:parse <- [DW_OP_plus_uconst 64, DW_OP_LLVM_fragment 128 32] [$sp+0]
	@DEBUG_VALUE: doPrint:parse <- [DW_OP_plus_uconst 52, DW_OP_LLVM_fragment 64 32] [$sp+0]
	@DEBUG_VALUE: doPrint:parse <- [DW_OP_plus_uconst 56, DW_OP_LLVM_fragment 0 32] [$sp+0]
	@DEBUG_VALUE: doPrint:va <- [DW_OP_plus_uconst 80] [$sp+0]
	.loc	1 0 5 is_stmt 0                 @ ../../../../../../kernel/freertos/dpl/SystemP_freertos.c:0:5
	ldr	r0, [sp, #36]                   @ 4-byte Reload
	.loc	1 254 40 is_stmt 1              @ ../../../../../../kernel/freertos/dpl/SystemP_freertos.c:254:40
	mov	r1, r0
	muls	r1, r6, r1
	subs	r0, r0, r6
	add	r2, sp, #84
	adds	r5, r2, r6
.Ltmp206:
	adds	r5, #16
	b	.LBB1_82
.Ltmp207:
.LBB1_81:                               @   in Loop: Header=BB1_2 Depth=1
	@DEBUG_VALUE: doPrint:buf <- [DW_OP_plus_uconst 32] [$sp+0]
	@DEBUG_VALUE: doPrint:base <- $r5
	@DEBUG_VALUE: doPrint:parse <- [DW_OP_LLVM_fragment 96 32] 0
	@DEBUG_VALUE: doPrint:parse <- [DW_OP_plus_uconst 44, DW_OP_LLVM_fragment 160 32] [$sp+0]
	@DEBUG_VALUE: doPrint:parse <- [DW_OP_plus_uconst 84, DW_OP_stack_value, DW_OP_LLVM_fragment 192 32] $sp
	@DEBUG_VALUE: doPrint:fmt <- [DW_OP_plus_uconst 76] [$sp+0]
	@DEBUG_VALUE: doPrint:n <- [DW_OP_plus_uconst 40] [$sp+0]
	@DEBUG_VALUE: doPrint:parse <- [DW_OP_plus_uconst 64, DW_OP_LLVM_fragment 128 32] [$sp+0]
	@DEBUG_VALUE: doPrint:parse <- [DW_OP_plus_uconst 52, DW_OP_LLVM_fragment 64 32] [$sp+0]
	@DEBUG_VALUE: doPrint:parse <- [DW_OP_plus_uconst 56, DW_OP_LLVM_fragment 0 32] [$sp+0]
	@DEBUG_VALUE: doPrint:va <- [DW_OP_plus_uconst 80] [$sp+0]
	ldr	r0, [sp, #36]                   @ 4-byte Reload
	muls	r0, r6, r0
	adds	r1, r0, #1
	add	r2, sp, #84
	adds	r5, r2, r6
.Ltmp208:
	adds	r5, #15
.Ltmp209:
.LBB1_82:                               @   in Loop: Header=BB1_2 Depth=1
	@DEBUG_VALUE: doPrint:buf <- [DW_OP_plus_uconst 32] [$sp+0]
	@DEBUG_VALUE: doPrint:parse <- [DW_OP_LLVM_fragment 96 32] 0
	@DEBUG_VALUE: doPrint:parse <- [DW_OP_plus_uconst 44, DW_OP_LLVM_fragment 160 32] [$sp+0]
	@DEBUG_VALUE: doPrint:parse <- [DW_OP_plus_uconst 84, DW_OP_stack_value, DW_OP_LLVM_fragment 192 32] $sp
	@DEBUG_VALUE: doPrint:fmt <- [DW_OP_plus_uconst 76] [$sp+0]
	@DEBUG_VALUE: doPrint:n <- [DW_OP_plus_uconst 40] [$sp+0]
	@DEBUG_VALUE: doPrint:parse <- [DW_OP_plus_uconst 64, DW_OP_LLVM_fragment 128 32] [$sp+0]
	@DEBUG_VALUE: doPrint:parse <- [DW_OP_plus_uconst 52, DW_OP_LLVM_fragment 64 32] [$sp+0]
	@DEBUG_VALUE: doPrint:parse <- [DW_OP_plus_uconst 56, DW_OP_LLVM_fragment 0 32] [$sp+0]
	@DEBUG_VALUE: doPrint:va <- [DW_OP_plus_uconst 80] [$sp+0]
	.loc	1 0 40 is_stmt 0                @ ../../../../../../kernel/freertos/dpl/SystemP_freertos.c:0:40
	ldr	r2, [sp, #64]                   @ 4-byte Reload
	ldr	r3, [sp, #52]                   @ 4-byte Reload
	.loc	1 256 21 is_stmt 1              @ ../../../../../../kernel/freertos/dpl/SystemP_freertos.c:256:21
	cmp	r3, r2
	ldr	r6, [sp, #32]                   @ 4-byte Reload
.Ltmp210:
	@DEBUG_VALUE: doPrint:buf <- $r6
	.loc	1 0 21 is_stmt 0                @ ../../../../../../kernel/freertos/dpl/SystemP_freertos.c:0:21
	ldr	r7, [sp, #80]                   @ 4-byte Reload
	ldr	r4, [sp, #72]                   @ 4-byte Reload
	.loc	1 256 21                        @ ../../../../../../kernel/freertos/dpl/SystemP_freertos.c:256:21
	bgt	.LBB1_84
.Ltmp211:
@ %bb.83:                               @   in Loop: Header=BB1_2 Depth=1
	@DEBUG_VALUE: doPrint:parse <- [DW_OP_LLVM_fragment 96 32] 0
	@DEBUG_VALUE: doPrint:parse <- [DW_OP_plus_uconst 44, DW_OP_LLVM_fragment 160 32] [$sp+0]
	@DEBUG_VALUE: doPrint:parse <- [DW_OP_plus_uconst 84, DW_OP_stack_value, DW_OP_LLVM_fragment 192 32] $sp
	@DEBUG_VALUE: doPrint:fmt <- [DW_OP_plus_uconst 76] [$sp+0]
	@DEBUG_VALUE: doPrint:n <- [DW_OP_plus_uconst 40] [$sp+0]
	@DEBUG_VALUE: doPrint:parse <- [DW_OP_plus_uconst 64, DW_OP_LLVM_fragment 128 32] [$sp+0]
	@DEBUG_VALUE: doPrint:parse <- [DW_OP_plus_uconst 52, DW_OP_LLVM_fragment 64 32] [$sp+0]
	@DEBUG_VALUE: doPrint:parse <- [DW_OP_plus_uconst 56, DW_OP_LLVM_fragment 0 32] [$sp+0]
	@DEBUG_VALUE: doPrint:va <- [DW_OP_plus_uconst 80] [$sp+0]
	@DEBUG_VALUE: doPrint:buf <- $r6
	.loc	1 0 21                          @ ../../../../../../kernel/freertos/dpl/SystemP_freertos.c:0:21
	mov	r3, r2
.Ltmp212:
.LBB1_84:                               @   in Loop: Header=BB1_2 Depth=1
	@DEBUG_VALUE: doPrint:parse <- [DW_OP_LLVM_fragment 96 32] 0
	@DEBUG_VALUE: doPrint:parse <- [DW_OP_plus_uconst 44, DW_OP_LLVM_fragment 160 32] [$sp+0]
	@DEBUG_VALUE: doPrint:parse <- [DW_OP_plus_uconst 84, DW_OP_stack_value, DW_OP_LLVM_fragment 192 32] $sp
	@DEBUG_VALUE: doPrint:fmt <- [DW_OP_plus_uconst 76] [$sp+0]
	@DEBUG_VALUE: doPrint:n <- [DW_OP_plus_uconst 40] [$sp+0]
	@DEBUG_VALUE: doPrint:parse <- [DW_OP_plus_uconst 64, DW_OP_LLVM_fragment 128 32] [$sp+0]
	@DEBUG_VALUE: doPrint:parse <- [DW_OP_plus_uconst 52, DW_OP_LLVM_fragment 64 32] [$sp+0]
	@DEBUG_VALUE: doPrint:parse <- [DW_OP_plus_uconst 56, DW_OP_LLVM_fragment 0 32] [$sp+0]
	@DEBUG_VALUE: doPrint:va <- [DW_OP_plus_uconst 80] [$sp+0]
	@DEBUG_VALUE: doPrint:buf <- $r6
	@DEBUG_VALUE: doPrint:va <- undef
	@DEBUG_VALUE: doPrint:parse <- [DW_OP_LLVM_fragment 128 32] $r3
	@DEBUG_VALUE: formatNum:ptr <- $r5
	@DEBUG_VALUE: formatNum:i <- $r1
	@DEBUG_VALUE: formatNum:zpad <- $r3
	.loc	1 424 5 is_stmt 1               @ ../../../../../../kernel/freertos/dpl/SystemP_freertos.c:424:5
	cmp	r1, r3
	bge	.LBB1_86
.Ltmp213:
@ %bb.85:                               @   in Loop: Header=BB1_2 Depth=1
	@DEBUG_VALUE: formatNum:zpad <- $r3
	@DEBUG_VALUE: formatNum:i <- $r1
	@DEBUG_VALUE: formatNum:ptr <- $r5
	@DEBUG_VALUE: doPrint:parse <- [DW_OP_LLVM_fragment 128 32] $r3
	@DEBUG_VALUE: doPrint:parse <- [DW_OP_LLVM_fragment 96 32] 0
	@DEBUG_VALUE: doPrint:parse <- [DW_OP_plus_uconst 44, DW_OP_LLVM_fragment 160 32] [$sp+0]
	@DEBUG_VALUE: doPrint:parse <- [DW_OP_plus_uconst 84, DW_OP_stack_value, DW_OP_LLVM_fragment 192 32] $sp
	@DEBUG_VALUE: doPrint:fmt <- [DW_OP_plus_uconst 76] [$sp+0]
	@DEBUG_VALUE: doPrint:n <- [DW_OP_plus_uconst 40] [$sp+0]
	@DEBUG_VALUE: doPrint:parse <- [DW_OP_plus_uconst 52, DW_OP_LLVM_fragment 64 32] [$sp+0]
	@DEBUG_VALUE: doPrint:parse <- [DW_OP_plus_uconst 56, DW_OP_LLVM_fragment 0 32] [$sp+0]
	@DEBUG_VALUE: doPrint:buf <- $r6
	ldr	r1, [sp, #44]                   @ 4-byte Reload
.Ltmp214:
	subs	r5, r1, r3
.Ltmp215:
	mvns	r0, r0
	adds	r1, r3, r0
	movs	r2, #48
.Ltmp216:
	.loc	1 426 18                        @ ../../../../../../kernel/freertos/dpl/SystemP_freertos.c:426:18
	mov	r0, r5
	bl	__aeabi_memset
.Ltmp217:
	@DEBUG_VALUE: formatNum:i <- undef
	@DEBUG_VALUE: formatNum:ptr <- undef
.LBB1_86:                               @   in Loop: Header=BB1_2 Depth=1
	@DEBUG_VALUE: doPrint:parse <- [DW_OP_LLVM_fragment 96 32] 0
	@DEBUG_VALUE: doPrint:parse <- [DW_OP_plus_uconst 44, DW_OP_LLVM_fragment 160 32] [$sp+0]
	@DEBUG_VALUE: doPrint:parse <- [DW_OP_plus_uconst 84, DW_OP_stack_value, DW_OP_LLVM_fragment 192 32] $sp
	@DEBUG_VALUE: doPrint:fmt <- [DW_OP_plus_uconst 76] [$sp+0]
	@DEBUG_VALUE: doPrint:n <- [DW_OP_plus_uconst 40] [$sp+0]
	@DEBUG_VALUE: doPrint:parse <- [DW_OP_plus_uconst 52, DW_OP_LLVM_fragment 64 32] [$sp+0]
	@DEBUG_VALUE: doPrint:parse <- [DW_OP_plus_uconst 56, DW_OP_LLVM_fragment 0 32] [$sp+0]
	@DEBUG_VALUE: doPrint:buf <- $r6
	.loc	1 0 0 is_stmt 0                 @ ../../../../../../kernel/freertos/dpl/SystemP_freertos.c:0:0
	adds	r7, r7, #4
	@DEBUG_VALUE: formatNum:ptr <- $r5
.Ltmp218:
	@DEBUG_VALUE: doPrint:parse <- [DW_OP_LLVM_fragment 192 32] $r5
	@DEBUG_VALUE: doPrint:va <- $r7
	.loc	1 261 39 is_stmt 1              @ ../../../../../../kernel/freertos/dpl/SystemP_freertos.c:261:39
	ldr	r0, [sp, #44]                   @ 4-byte Reload
	str	r5, [sp, #64]                   @ 4-byte Spill
	@DEBUG_VALUE: formatNum:ptr <- [DW_OP_plus_uconst 64] [$sp+0]
.Ltmp219:
	@DEBUG_VALUE: doPrint:parse <- [DW_OP_plus_uconst 64, DW_OP_LLVM_fragment 192 32] [$sp+0]
	subs	r5, r0, r5
.Ltmp220:
	@DEBUG_VALUE: doPrint:parse <- [DW_OP_LLVM_fragment 96 32] $r5
	.loc	1 0 39 is_stmt 0                @ ../../../../../../kernel/freertos/dpl/SystemP_freertos.c:0:39
	ldr	r3, [sp, #56]                   @ 4-byte Reload
	b	.LBB1_123
.Ltmp221:
.LBB1_87:                               @   in Loop: Header=BB1_2 Depth=1
	@DEBUG_VALUE: doPrint:parse <- [DW_OP_LLVM_fragment 64 32] $r2
	@DEBUG_VALUE: doPrint:parse <- [DW_OP_plus_uconst 56, DW_OP_LLVM_fragment 0 32] [$sp+0]
	@DEBUG_VALUE: doPrint:fmt <- [DW_OP_plus_uconst 1, DW_OP_stack_value] $r5
	@DEBUG_VALUE: doPrint:va <- [DW_OP_plus_uconst 80] [$sp+0]
	@DEBUG_VALUE: doPrint:buf <- $r6
	@DEBUG_VALUE: doPrint:n <- $r1
	str	r2, [sp, #52]                   @ 4-byte Spill
.Ltmp222:
	@DEBUG_VALUE: doPrint:parse <- [DW_OP_plus_uconst 52, DW_OP_LLVM_fragment 64 32] [$sp+0]
	.loc	1 216 17 is_stmt 1              @ ../../../../../../kernel/freertos/dpl/SystemP_freertos.c:216:17
	adds	r5, r5, #1
.Ltmp223:
.LBB1_88:                               @   in Loop: Header=BB1_2 Depth=1
	@DEBUG_VALUE: doPrint:parse <- [DW_OP_plus_uconst 52, DW_OP_LLVM_fragment 64 32] [$sp+0]
	@DEBUG_VALUE: doPrint:parse <- [DW_OP_plus_uconst 56, DW_OP_LLVM_fragment 0 32] [$sp+0]
	@DEBUG_VALUE: doPrint:va <- [DW_OP_plus_uconst 80] [$sp+0]
	@DEBUG_VALUE: doPrint:buf <- $r6
	@DEBUG_VALUE: doPrint:n <- $r1
	.loc	1 0 17 is_stmt 0                @ ../../../../../../kernel/freertos/dpl/SystemP_freertos.c:0:17
	ldr	r4, [sp, #72]                   @ 4-byte Reload
	ldr	r3, [sp, #56]                   @ 4-byte Reload
	ldr	r2, [sp, #76]                   @ 4-byte Reload
	b	.LBB1_32
.Ltmp224:
.LBB1_89:                               @   in Loop: Header=BB1_2 Depth=1
	@DEBUG_VALUE: negative <- 0
	@DEBUG_VALUE: doPrint:parse <- [DW_OP_LLVM_fragment 96 32] 0
	@DEBUG_VALUE: doPrint:parse <- [DW_OP_plus_uconst 44, DW_OP_LLVM_fragment 160 32] [$sp+0]
	@DEBUG_VALUE: doPrint:parse <- [DW_OP_plus_uconst 84, DW_OP_stack_value, DW_OP_LLVM_fragment 192 32] $sp
	@DEBUG_VALUE: doPrint:fmt <- [DW_OP_plus_uconst 76] [$sp+0]
	@DEBUG_VALUE: doPrint:n <- [DW_OP_plus_uconst 40] [$sp+0]
	@DEBUG_VALUE: doPrint:parse <- [DW_OP_plus_uconst 64, DW_OP_LLVM_fragment 128 32] [$sp+0]
	@DEBUG_VALUE: doPrint:parse <- [DW_OP_plus_uconst 52, DW_OP_LLVM_fragment 64 32] [$sp+0]
	@DEBUG_VALUE: doPrint:parse <- [DW_OP_plus_uconst 56, DW_OP_LLVM_fragment 0 32] [$sp+0]
	@DEBUG_VALUE: doPrint:c <- $r7
	@DEBUG_VALUE: doPrint:va <- [DW_OP_plus_uconst 80] [$sp+0]
	@DEBUG_VALUE: doPrint:buf <- $r6
	movs	r0, #1
	lsls	r4, r0, #31
	eors	r4, r5
.Ltmp225:
.LBB1_90:                               @   in Loop: Header=BB1_2 Depth=1
	@DEBUG_VALUE: negative <- 0
	@DEBUG_VALUE: doPrint:parse <- [DW_OP_LLVM_fragment 96 32] 0
	@DEBUG_VALUE: doPrint:parse <- [DW_OP_plus_uconst 44, DW_OP_LLVM_fragment 160 32] [$sp+0]
	@DEBUG_VALUE: doPrint:parse <- [DW_OP_plus_uconst 84, DW_OP_stack_value, DW_OP_LLVM_fragment 192 32] $sp
	@DEBUG_VALUE: doPrint:fmt <- [DW_OP_plus_uconst 76] [$sp+0]
	@DEBUG_VALUE: doPrint:n <- [DW_OP_plus_uconst 40] [$sp+0]
	@DEBUG_VALUE: doPrint:parse <- [DW_OP_plus_uconst 64, DW_OP_LLVM_fragment 128 32] [$sp+0]
	@DEBUG_VALUE: doPrint:parse <- [DW_OP_plus_uconst 52, DW_OP_LLVM_fragment 64 32] [$sp+0]
	@DEBUG_VALUE: doPrint:parse <- [DW_OP_plus_uconst 56, DW_OP_LLVM_fragment 0 32] [$sp+0]
	@DEBUG_VALUE: doPrint:c <- $r7
	@DEBUG_VALUE: doPrint:va <- [DW_OP_plus_uconst 80] [$sp+0]
	@DEBUG_VALUE: doPrint:buf <- $r6
	@DEBUG_VALUE: negative <- undef
	@DEBUG_VALUE: d <- undef
	ldr	r7, [sp, #20]                   @ 4-byte Reload
.Ltmp226:
	.loc	1 314 30 is_stmt 1              @ ../../../../../../kernel/freertos/dpl/SystemP_freertos.c:314:30
	mov	r0, r7
	mov	r1, r4
	bl	__aeabi_d2iz
.Ltmp227:
	.loc	1 0 30 is_stmt 0                @ ../../../../../../kernel/freertos/dpl/SystemP_freertos.c:0:30
	str	r0, [sp, #12]                   @ 4-byte Spill
	.loc	1 314 30                        @ ../../../../../../kernel/freertos/dpl/SystemP_freertos.c:314:30
	bl	__aeabi_i2d
.Ltmp228:
	mov	r2, r0
	mov	r3, r1
	.loc	1 314 28                        @ ../../../../../../kernel/freertos/dpl/SystemP_freertos.c:314:28
	mov	r0, r7
	mov	r1, r4
	bl	__aeabi_dsub
.Ltmp229:
	.loc	1 0 28                          @ ../../../../../../kernel/freertos/dpl/SystemP_freertos.c:0:28
	ldr	r4, [sp, #52]                   @ 4-byte Reload
	.loc	1 314 42                        @ ../../../../../../kernel/freertos/dpl/SystemP_freertos.c:314:42
	mov	r2, r4
	ldr	r3, .LCPI1_0
	bl	__aeabi_dmul
.Ltmp230:
	@DEBUG_VALUE: tmp <- undef
	.loc	1 315 25 is_stmt 1              @ ../../../../../../kernel/freertos/dpl/SystemP_freertos.c:315:25
	bl	__aeabi_d2uiz
.Ltmp231:
	str	r0, [sp, #32]                   @ 4-byte Spill
	@DEBUG_VALUE: formatNum:n <- [DW_OP_plus_uconst 32] [$sp+0]
	@DEBUG_VALUE: formatNum:un <- [DW_OP_plus_uconst 32] [$sp+0]
.Ltmp232:
	@DEBUG_VALUE: fract <- [DW_OP_plus_uconst 32] [$sp+0]
	.loc	1 300 21                        @ ../../../../../../kernel/freertos/dpl/SystemP_freertos.c:300:21
	mov	r0, r7
	str	r5, [sp, #16]                   @ 4-byte Spill
	mov	r1, r5
	mov	r2, r4
	mov	r3, r4
	bl	__aeabi_dcmplt
.Ltmp233:
	cmp	r0, #0
	beq	.LBB1_92
.Ltmp234:
@ %bb.91:                               @   in Loop: Header=BB1_2 Depth=1
	@DEBUG_VALUE: fract <- [DW_OP_plus_uconst 32] [$sp+0]
	@DEBUG_VALUE: formatNum:un <- [DW_OP_plus_uconst 32] [$sp+0]
	@DEBUG_VALUE: formatNum:n <- [DW_OP_plus_uconst 32] [$sp+0]
	@DEBUG_VALUE: doPrint:parse <- [DW_OP_LLVM_fragment 96 32] 0
	@DEBUG_VALUE: doPrint:parse <- [DW_OP_plus_uconst 44, DW_OP_LLVM_fragment 160 32] [$sp+0]
	@DEBUG_VALUE: doPrint:parse <- [DW_OP_plus_uconst 84, DW_OP_stack_value, DW_OP_LLVM_fragment 192 32] $sp
	@DEBUG_VALUE: doPrint:fmt <- [DW_OP_plus_uconst 76] [$sp+0]
	@DEBUG_VALUE: doPrint:n <- [DW_OP_plus_uconst 40] [$sp+0]
	@DEBUG_VALUE: doPrint:parse <- [DW_OP_plus_uconst 64, DW_OP_LLVM_fragment 128 32] [$sp+0]
	@DEBUG_VALUE: doPrint:parse <- [DW_OP_plus_uconst 52, DW_OP_LLVM_fragment 64 32] [$sp+0]
	@DEBUG_VALUE: doPrint:parse <- [DW_OP_plus_uconst 56, DW_OP_LLVM_fragment 0 32] [$sp+0]
	@DEBUG_VALUE: doPrint:va <- [DW_OP_plus_uconst 80] [$sp+0]
	@DEBUG_VALUE: doPrint:buf <- $r6
	.loc	1 0 21 is_stmt 0                @ ../../../../../../kernel/freertos/dpl/SystemP_freertos.c:0:21
	mvns	r0, r4
.Ltmp235:
.LBB1_92:                               @   in Loop: Header=BB1_2 Depth=1
	@DEBUG_VALUE: fract <- [DW_OP_plus_uconst 32] [$sp+0]
	@DEBUG_VALUE: formatNum:un <- [DW_OP_plus_uconst 32] [$sp+0]
	@DEBUG_VALUE: formatNum:n <- [DW_OP_plus_uconst 32] [$sp+0]
	@DEBUG_VALUE: doPrint:parse <- [DW_OP_LLVM_fragment 96 32] 0
	@DEBUG_VALUE: doPrint:parse <- [DW_OP_plus_uconst 44, DW_OP_LLVM_fragment 160 32] [$sp+0]
	@DEBUG_VALUE: doPrint:parse <- [DW_OP_plus_uconst 84, DW_OP_stack_value, DW_OP_LLVM_fragment 192 32] $sp
	@DEBUG_VALUE: doPrint:fmt <- [DW_OP_plus_uconst 76] [$sp+0]
	@DEBUG_VALUE: doPrint:n <- [DW_OP_plus_uconst 40] [$sp+0]
	@DEBUG_VALUE: doPrint:parse <- [DW_OP_plus_uconst 64, DW_OP_LLVM_fragment 128 32] [$sp+0]
	@DEBUG_VALUE: doPrint:parse <- [DW_OP_plus_uconst 52, DW_OP_LLVM_fragment 64 32] [$sp+0]
	@DEBUG_VALUE: doPrint:parse <- [DW_OP_plus_uconst 56, DW_OP_LLVM_fragment 0 32] [$sp+0]
	@DEBUG_VALUE: doPrint:va <- [DW_OP_plus_uconst 80] [$sp+0]
	@DEBUG_VALUE: doPrint:buf <- $r6
	str	r0, [sp, #8]                    @ 4-byte Spill
	@DEBUG_VALUE: formatNum:ptr <- [DW_OP_plus_uconst 44] [$sp+0]
	@DEBUG_VALUE: formatNum:i <- 0
	@DEBUG_VALUE: formatNum:sign <- 0
	@DEBUG_VALUE: formatNum:base <- 10
	@DEBUG_VALUE: formatNum:zpad <- 4
	ldr	r7, [sp, #32]                   @ 4-byte Reload
.Ltmp236:
.LBB1_93:                               @   Parent Loop BB1_2 Depth=1
                                        @ =>  This Inner Loop Header: Depth=2
	@DEBUG_VALUE: formatNum:zpad <- 4
	@DEBUG_VALUE: formatNum:base <- 10
	@DEBUG_VALUE: formatNum:sign <- 0
	@DEBUG_VALUE: fract <- [DW_OP_plus_uconst 32] [$sp+0]
	@DEBUG_VALUE: formatNum:un <- [DW_OP_plus_uconst 32] [$sp+0]
	@DEBUG_VALUE: doPrint:parse <- [DW_OP_LLVM_fragment 96 32] 0
	@DEBUG_VALUE: doPrint:parse <- [DW_OP_plus_uconst 44, DW_OP_LLVM_fragment 160 32] [$sp+0]
	@DEBUG_VALUE: doPrint:parse <- [DW_OP_plus_uconst 84, DW_OP_stack_value, DW_OP_LLVM_fragment 192 32] $sp
	@DEBUG_VALUE: doPrint:fmt <- [DW_OP_plus_uconst 76] [$sp+0]
	@DEBUG_VALUE: doPrint:n <- [DW_OP_plus_uconst 40] [$sp+0]
	@DEBUG_VALUE: doPrint:parse <- [DW_OP_plus_uconst 64, DW_OP_LLVM_fragment 128 32] [$sp+0]
	@DEBUG_VALUE: doPrint:parse <- [DW_OP_plus_uconst 52, DW_OP_LLVM_fragment 64 32] [$sp+0]
	@DEBUG_VALUE: doPrint:parse <- [DW_OP_plus_uconst 56, DW_OP_LLVM_fragment 0 32] [$sp+0]
	@DEBUG_VALUE: doPrint:va <- [DW_OP_plus_uconst 80] [$sp+0]
	@DEBUG_VALUE: doPrint:buf <- $r6
	@DEBUG_VALUE: formatNum:n <- $r7
	@DEBUG_VALUE: formatNum:ptr <- [DW_OP_LLVM_arg 0, DW_OP_consts 18446744073709551612, DW_OP_div, DW_OP_consts 18446744073709551612, DW_OP_mul, DW_OP_consts 16, DW_OP_LLVM_arg 1, DW_OP_plus_uconst 84, DW_OP_plus, DW_OP_plus, DW_OP_stack_value] $r4, $sp
	@DEBUG_VALUE: formatNum:i <- [DW_OP_consts 18446744073709551612, DW_OP_div, DW_OP_consts 4, DW_OP_mul, DW_OP_stack_value] $r4
	mov	r5, r4
.Ltmp237:
	@DEBUG_VALUE: formatNum:ptr <- [DW_OP_LLVM_arg 0, DW_OP_consts 18446744073709551612, DW_OP_div, DW_OP_consts 18446744073709551612, DW_OP_mul, DW_OP_consts 16, DW_OP_LLVM_arg 1, DW_OP_plus_uconst 84, DW_OP_plus, DW_OP_plus, DW_OP_stack_value] $r5, $sp
	@DEBUG_VALUE: formatNum:ptr <- [DW_OP_LLVM_arg 0, DW_OP_consts 18446744073709551612, DW_OP_div, DW_OP_consts 18446744073709551612, DW_OP_mul, DW_OP_consts 16, DW_OP_LLVM_arg 1, DW_OP_plus_uconst 84, DW_OP_plus, DW_OP_plus, DW_OP_stack_value] $r5, $sp
	@DEBUG_VALUE: formatNum:i <- [DW_OP_consts 18446744073709551612, DW_OP_div, DW_OP_consts 4, DW_OP_mul, DW_OP_stack_value] $r5
	@DEBUG_VALUE: formatNum:ptr <- [DW_OP_LLVM_arg 0, DW_OP_consts 18446744073709551612, DW_OP_div, DW_OP_consts 18446744073709551612, DW_OP_mul, DW_OP_consts 16, DW_OP_LLVM_arg 1, DW_OP_plus_uconst 84, DW_OP_plus, DW_OP_plus, DW_OP_stack_value] $r5, $sp
	movs	r4, #10
.Ltmp238:
	.loc	1 419 22 is_stmt 1              @ ../../../../../../kernel/freertos/dpl/SystemP_freertos.c:419:22
	mov	r0, r7
	mov	r1, r4
	bl	__aeabi_uidiv
.Ltmp239:
	.loc	1 0 22 is_stmt 0                @ ../../../../../../kernel/freertos/dpl/SystemP_freertos.c:0:22
	add	r1, sp, #84
.Ltmp240:
	@DEBUG_VALUE: formatNum:ptr <- [DW_OP_LLVM_arg 0, DW_OP_consts 18446744073709551612, DW_OP_div, DW_OP_consts 18446744073709551612, DW_OP_mul, DW_OP_consts 15, DW_OP_LLVM_arg 1, DW_OP_plus_uconst 84, DW_OP_plus, DW_OP_plus, DW_OP_stack_value] $r5, $sp
	.loc	1 418 18 is_stmt 1              @ ../../../../../../kernel/freertos/dpl/SystemP_freertos.c:418:18
	adds	r1, r1, r5
	str	r4, [sp, #52]                   @ 4-byte Spill
	muls	r4, r0, r4
	subs	r2, r7, r4
	ldr	r4, __arm_cp.1_1
	.loc	1 418 20 is_stmt 0              @ ../../../../../../kernel/freertos/dpl/SystemP_freertos.c:418:20
	ldrb	r2, [r4, r2]
	.loc	1 418 18                        @ ../../../../../../kernel/freertos/dpl/SystemP_freertos.c:418:18
	strb	r2, [r1, #15]
.Ltmp241:
	@DEBUG_VALUE: formatNum:i <- [DW_OP_plus_uconst 1, DW_OP_stack_value] $r5
	@DEBUG_VALUE: formatNum:n <- undef
	.loc	1 421 5 is_stmt 1               @ ../../../../../../kernel/freertos/dpl/SystemP_freertos.c:421:5
	cmp	r7, #10
	blo	.LBB1_104
.Ltmp242:
@ %bb.94:                               @   in Loop: Header=BB1_93 Depth=2
	@DEBUG_VALUE: formatNum:i <- [DW_OP_plus_uconst 1, DW_OP_stack_value] $r5
	@DEBUG_VALUE: formatNum:ptr <- [DW_OP_LLVM_arg 0, DW_OP_consts 18446744073709551612, DW_OP_div, DW_OP_consts 18446744073709551612, DW_OP_mul, DW_OP_consts 15, DW_OP_LLVM_arg 1, DW_OP_plus_uconst 84, DW_OP_plus, DW_OP_plus, DW_OP_stack_value] $r5, $sp
	@DEBUG_VALUE: formatNum:zpad <- 4
	@DEBUG_VALUE: formatNum:base <- 10
	@DEBUG_VALUE: formatNum:sign <- 0
	@DEBUG_VALUE: fract <- [DW_OP_plus_uconst 32] [$sp+0]
	@DEBUG_VALUE: formatNum:un <- [DW_OP_plus_uconst 32] [$sp+0]
	@DEBUG_VALUE: doPrint:parse <- [DW_OP_LLVM_fragment 96 32] 0
	@DEBUG_VALUE: doPrint:parse <- [DW_OP_plus_uconst 44, DW_OP_LLVM_fragment 160 32] [$sp+0]
	@DEBUG_VALUE: doPrint:parse <- [DW_OP_plus_uconst 84, DW_OP_stack_value, DW_OP_LLVM_fragment 192 32] $sp
	@DEBUG_VALUE: doPrint:fmt <- [DW_OP_plus_uconst 76] [$sp+0]
	@DEBUG_VALUE: doPrint:n <- [DW_OP_plus_uconst 40] [$sp+0]
	@DEBUG_VALUE: doPrint:parse <- [DW_OP_plus_uconst 64, DW_OP_LLVM_fragment 128 32] [$sp+0]
	@DEBUG_VALUE: doPrint:parse <- [DW_OP_plus_uconst 52, DW_OP_LLVM_fragment 64 32] [$sp+0]
	@DEBUG_VALUE: doPrint:parse <- [DW_OP_plus_uconst 56, DW_OP_LLVM_fragment 0 32] [$sp+0]
	@DEBUG_VALUE: doPrint:va <- [DW_OP_plus_uconst 80] [$sp+0]
	@DEBUG_VALUE: doPrint:buf <- $r6
	@DEBUG_VALUE: formatNum:n <- $r0
	@DEBUG_VALUE: formatNum:ptr <- [DW_OP_LLVM_arg 0, DW_OP_consts 18446744073709551612, DW_OP_div, DW_OP_consts 18446744073709551612, DW_OP_mul, DW_OP_consts 15, DW_OP_LLVM_arg 1, DW_OP_plus_uconst 84, DW_OP_plus, DW_OP_plus, DW_OP_stack_value] $r5, $sp
	@DEBUG_VALUE: formatNum:i <- [DW_OP_constu 1, DW_OP_or, DW_OP_stack_value] $r5
	.loc	1 0 5 is_stmt 0                 @ ../../../../../../kernel/freertos/dpl/SystemP_freertos.c:0:5
	movs	r1, #10
	.loc	1 418 47 is_stmt 1              @ ../../../../../../kernel/freertos/dpl/SystemP_freertos.c:418:47
	bl	__aeabi_uidivmod
.Ltmp243:
	.loc	1 0 47 is_stmt 0                @ ../../../../../../kernel/freertos/dpl/SystemP_freertos.c:0:47
	add	r0, sp, #84
.Ltmp244:
	@DEBUG_VALUE: formatNum:ptr <- [DW_OP_LLVM_arg 0, DW_OP_consts 18446744073709551612, DW_OP_div, DW_OP_consts 18446744073709551612, DW_OP_mul, DW_OP_consts 14, DW_OP_LLVM_arg 1, DW_OP_plus_uconst 84, DW_OP_plus, DW_OP_plus, DW_OP_stack_value] $r5, $sp
	.loc	1 418 18                        @ ../../../../../../kernel/freertos/dpl/SystemP_freertos.c:418:18
	adds	r0, r0, r5
	.loc	1 418 20                        @ ../../../../../../kernel/freertos/dpl/SystemP_freertos.c:418:20
	ldrb	r1, [r4, r1]
	.loc	1 418 18                        @ ../../../../../../kernel/freertos/dpl/SystemP_freertos.c:418:18
	strb	r1, [r0, #14]
.Ltmp245:
	@DEBUG_VALUE: formatNum:i <- [DW_OP_plus_uconst 2, DW_OP_stack_value] $r5
	@DEBUG_VALUE: formatNum:n <- undef
	.loc	1 421 5 is_stmt 1               @ ../../../../../../kernel/freertos/dpl/SystemP_freertos.c:421:5
	cmp	r7, #100
	mov	r4, r5
.Ltmp246:
	@DEBUG_VALUE: formatNum:ptr <- [DW_OP_LLVM_arg 0, DW_OP_consts 18446744073709551612, DW_OP_div, DW_OP_consts 18446744073709551612, DW_OP_mul, DW_OP_consts 14, DW_OP_LLVM_arg 1, DW_OP_plus_uconst 84, DW_OP_plus, DW_OP_plus, DW_OP_stack_value] $r4, $sp
	@DEBUG_VALUE: formatNum:i <- [DW_OP_plus_uconst 2, DW_OP_stack_value] $r4
	@DEBUG_VALUE: formatNum:ptr <- [DW_OP_LLVM_arg 0, DW_OP_consts 18446744073709551612, DW_OP_div, DW_OP_consts 18446744073709551612, DW_OP_mul, DW_OP_consts 14, DW_OP_LLVM_arg 1, DW_OP_plus_uconst 84, DW_OP_plus, DW_OP_plus, DW_OP_stack_value] $r4, $sp
	blo	.LBB1_105
.Ltmp247:
@ %bb.95:                               @   in Loop: Header=BB1_93 Depth=2
	@DEBUG_VALUE: formatNum:i <- [DW_OP_plus_uconst 2, DW_OP_stack_value] $r4
	@DEBUG_VALUE: formatNum:ptr <- [DW_OP_LLVM_arg 0, DW_OP_consts 18446744073709551612, DW_OP_div, DW_OP_consts 18446744073709551612, DW_OP_mul, DW_OP_consts 14, DW_OP_LLVM_arg 1, DW_OP_plus_uconst 84, DW_OP_plus, DW_OP_plus, DW_OP_stack_value] $r4, $sp
	@DEBUG_VALUE: formatNum:zpad <- 4
	@DEBUG_VALUE: formatNum:base <- 10
	@DEBUG_VALUE: formatNum:sign <- 0
	@DEBUG_VALUE: fract <- [DW_OP_plus_uconst 32] [$sp+0]
	@DEBUG_VALUE: formatNum:un <- [DW_OP_plus_uconst 32] [$sp+0]
	@DEBUG_VALUE: doPrint:parse <- [DW_OP_LLVM_fragment 96 32] 0
	@DEBUG_VALUE: doPrint:parse <- [DW_OP_plus_uconst 44, DW_OP_LLVM_fragment 160 32] [$sp+0]
	@DEBUG_VALUE: doPrint:parse <- [DW_OP_plus_uconst 84, DW_OP_stack_value, DW_OP_LLVM_fragment 192 32] $sp
	@DEBUG_VALUE: doPrint:fmt <- [DW_OP_plus_uconst 76] [$sp+0]
	@DEBUG_VALUE: doPrint:n <- [DW_OP_plus_uconst 40] [$sp+0]
	@DEBUG_VALUE: doPrint:parse <- [DW_OP_plus_uconst 64, DW_OP_LLVM_fragment 128 32] [$sp+0]
	@DEBUG_VALUE: doPrint:parse <- [DW_OP_plus_uconst 52, DW_OP_LLVM_fragment 64 32] [$sp+0]
	@DEBUG_VALUE: doPrint:parse <- [DW_OP_plus_uconst 56, DW_OP_LLVM_fragment 0 32] [$sp+0]
	@DEBUG_VALUE: doPrint:va <- [DW_OP_plus_uconst 80] [$sp+0]
	@DEBUG_VALUE: doPrint:buf <- $r6
	@DEBUG_VALUE: formatNum:i <- [DW_OP_constu 2, DW_OP_or, DW_OP_stack_value] $r4
	.loc	1 0 5 is_stmt 0                 @ ../../../../../../kernel/freertos/dpl/SystemP_freertos.c:0:5
	movs	r1, #100
	.loc	1 419 22 is_stmt 1              @ ../../../../../../kernel/freertos/dpl/SystemP_freertos.c:419:22
	mov	r0, r7
	bl	__aeabi_uidiv
.Ltmp248:
	@DEBUG_VALUE: formatNum:ptr <- [DW_OP_LLVM_arg 0, DW_OP_consts 18446744073709551612, DW_OP_div, DW_OP_consts 18446744073709551612, DW_OP_mul, DW_OP_consts 14, DW_OP_LLVM_arg 1, DW_OP_plus_uconst 84, DW_OP_plus, DW_OP_plus, DW_OP_stack_value] $r4, $sp
	@DEBUG_VALUE: formatNum:n <- $r0
	.loc	1 0 22 is_stmt 0                @ ../../../../../../kernel/freertos/dpl/SystemP_freertos.c:0:22
	movs	r1, #10
	.loc	1 418 47 is_stmt 1              @ ../../../../../../kernel/freertos/dpl/SystemP_freertos.c:418:47
	bl	__aeabi_uidivmod
.Ltmp249:
	.loc	1 0 47 is_stmt 0                @ ../../../../../../kernel/freertos/dpl/SystemP_freertos.c:0:47
	add	r0, sp, #84
.Ltmp250:
	@DEBUG_VALUE: formatNum:ptr <- [DW_OP_LLVM_arg 0, DW_OP_consts 18446744073709551612, DW_OP_div, DW_OP_consts 18446744073709551612, DW_OP_mul, DW_OP_consts 13, DW_OP_LLVM_arg 1, DW_OP_plus_uconst 84, DW_OP_plus, DW_OP_plus, DW_OP_stack_value] $r4, $sp
	.loc	1 418 18                        @ ../../../../../../kernel/freertos/dpl/SystemP_freertos.c:418:18
	adds	r0, r0, r4
	ldr	r5, __arm_cp.1_1
	.loc	1 418 20                        @ ../../../../../../kernel/freertos/dpl/SystemP_freertos.c:418:20
	ldrb	r1, [r5, r1]
	.loc	1 418 18                        @ ../../../../../../kernel/freertos/dpl/SystemP_freertos.c:418:18
	strb	r1, [r0, #13]
.Ltmp251:
	@DEBUG_VALUE: formatNum:i <- [DW_OP_plus_uconst 3, DW_OP_stack_value] $r4
	@DEBUG_VALUE: formatNum:n <- undef
	.loc	1 421 5 is_stmt 1               @ ../../../../../../kernel/freertos/dpl/SystemP_freertos.c:421:5
	lsrs	r0, r7, #3
	cmp	r0, #125
	blo	.LBB1_107
.Ltmp252:
@ %bb.96:                               @   in Loop: Header=BB1_93 Depth=2
	@DEBUG_VALUE: formatNum:i <- [DW_OP_plus_uconst 3, DW_OP_stack_value] $r4
	@DEBUG_VALUE: formatNum:ptr <- [DW_OP_LLVM_arg 0, DW_OP_consts 18446744073709551612, DW_OP_div, DW_OP_consts 18446744073709551612, DW_OP_mul, DW_OP_consts 13, DW_OP_LLVM_arg 1, DW_OP_plus_uconst 84, DW_OP_plus, DW_OP_plus, DW_OP_stack_value] $r4, $sp
	@DEBUG_VALUE: formatNum:zpad <- 4
	@DEBUG_VALUE: formatNum:base <- 10
	@DEBUG_VALUE: formatNum:sign <- 0
	@DEBUG_VALUE: fract <- [DW_OP_plus_uconst 32] [$sp+0]
	@DEBUG_VALUE: formatNum:un <- [DW_OP_plus_uconst 32] [$sp+0]
	@DEBUG_VALUE: doPrint:parse <- [DW_OP_LLVM_fragment 96 32] 0
	@DEBUG_VALUE: doPrint:parse <- [DW_OP_plus_uconst 44, DW_OP_LLVM_fragment 160 32] [$sp+0]
	@DEBUG_VALUE: doPrint:parse <- [DW_OP_plus_uconst 84, DW_OP_stack_value, DW_OP_LLVM_fragment 192 32] $sp
	@DEBUG_VALUE: doPrint:fmt <- [DW_OP_plus_uconst 76] [$sp+0]
	@DEBUG_VALUE: doPrint:n <- [DW_OP_plus_uconst 40] [$sp+0]
	@DEBUG_VALUE: doPrint:parse <- [DW_OP_plus_uconst 64, DW_OP_LLVM_fragment 128 32] [$sp+0]
	@DEBUG_VALUE: doPrint:parse <- [DW_OP_plus_uconst 52, DW_OP_LLVM_fragment 64 32] [$sp+0]
	@DEBUG_VALUE: doPrint:parse <- [DW_OP_plus_uconst 56, DW_OP_LLVM_fragment 0 32] [$sp+0]
	@DEBUG_VALUE: doPrint:va <- [DW_OP_plus_uconst 80] [$sp+0]
	@DEBUG_VALUE: doPrint:buf <- $r6
	@DEBUG_VALUE: formatNum:i <- [DW_OP_constu 3, DW_OP_or, DW_OP_stack_value] $r4
	.loc	1 0 5 is_stmt 0                 @ ../../../../../../kernel/freertos/dpl/SystemP_freertos.c:0:5
	movs	r0, #125
	lsls	r1, r0, #3
	.loc	1 419 22 is_stmt 1              @ ../../../../../../kernel/freertos/dpl/SystemP_freertos.c:419:22
	mov	r0, r7
	bl	__aeabi_uidiv
.Ltmp253:
	@DEBUG_VALUE: formatNum:ptr <- [DW_OP_LLVM_arg 0, DW_OP_consts 18446744073709551612, DW_OP_div, DW_OP_consts 18446744073709551612, DW_OP_mul, DW_OP_consts 13, DW_OP_LLVM_arg 1, DW_OP_plus_uconst 84, DW_OP_plus, DW_OP_plus, DW_OP_stack_value] $r4, $sp
	@DEBUG_VALUE: formatNum:n <- $r0
	.loc	1 0 22 is_stmt 0                @ ../../../../../../kernel/freertos/dpl/SystemP_freertos.c:0:22
	movs	r1, #10
	.loc	1 418 47 is_stmt 1              @ ../../../../../../kernel/freertos/dpl/SystemP_freertos.c:418:47
	bl	__aeabi_uidivmod
.Ltmp254:
	.loc	1 0 47 is_stmt 0                @ ../../../../../../kernel/freertos/dpl/SystemP_freertos.c:0:47
	add	r0, sp, #84
.Ltmp255:
	@DEBUG_VALUE: formatNum:ptr <- [DW_OP_LLVM_arg 0, DW_OP_consts 18446744073709551612, DW_OP_div, DW_OP_consts 18446744073709551612, DW_OP_mul, DW_OP_consts 12, DW_OP_LLVM_arg 1, DW_OP_plus_uconst 84, DW_OP_plus, DW_OP_plus, DW_OP_stack_value] $r4, $sp
	.loc	1 418 18                        @ ../../../../../../kernel/freertos/dpl/SystemP_freertos.c:418:18
	adds	r0, r0, r4
	.loc	1 418 20                        @ ../../../../../../kernel/freertos/dpl/SystemP_freertos.c:418:20
	ldrb	r1, [r5, r1]
	.loc	1 418 18                        @ ../../../../../../kernel/freertos/dpl/SystemP_freertos.c:418:18
	strb	r1, [r0, #12]
	.loc	1 419 22 is_stmt 1              @ ../../../../../../kernel/freertos/dpl/SystemP_freertos.c:419:22
	mov	r0, r7
	ldr	r1, __arm_cp.1_2
	bl	__aeabi_uidiv
.Ltmp256:
	@DEBUG_VALUE: formatNum:i <- [DW_OP_consts 18446744073709551612, DW_OP_div, DW_OP_consts 4, DW_OP_mul, DW_OP_consts 4, DW_OP_plus, DW_OP_stack_value] $r4
	@DEBUG_VALUE: formatNum:n <- $r0
	.loc	1 421 5                         @ ../../../../../../kernel/freertos/dpl/SystemP_freertos.c:421:5
	subs	r4, r4, #4
.Ltmp257:
	ldr	r1, __arm_cp.1_3
	cmp	r7, r1
	mov	r7, r0
.Ltmp258:
	@DEBUG_VALUE: formatNum:n <- $r7
	@DEBUG_VALUE: formatNum:n <- $r7
	bhi	.LBB1_93
.Ltmp259:
@ %bb.97:                               @   in Loop: Header=BB1_2 Depth=1
	@DEBUG_VALUE: fract <- [DW_OP_plus_uconst 32] [$sp+0]
	@DEBUG_VALUE: doPrint:parse <- [DW_OP_LLVM_fragment 96 32] 0
	@DEBUG_VALUE: doPrint:parse <- [DW_OP_plus_uconst 44, DW_OP_LLVM_fragment 160 32] [$sp+0]
	@DEBUG_VALUE: doPrint:parse <- [DW_OP_plus_uconst 84, DW_OP_stack_value, DW_OP_LLVM_fragment 192 32] $sp
	@DEBUG_VALUE: doPrint:fmt <- [DW_OP_plus_uconst 76] [$sp+0]
	@DEBUG_VALUE: doPrint:n <- [DW_OP_plus_uconst 40] [$sp+0]
	@DEBUG_VALUE: doPrint:parse <- [DW_OP_plus_uconst 64, DW_OP_LLVM_fragment 128 32] [$sp+0]
	@DEBUG_VALUE: doPrint:parse <- [DW_OP_plus_uconst 52, DW_OP_LLVM_fragment 64 32] [$sp+0]
	@DEBUG_VALUE: doPrint:parse <- [DW_OP_plus_uconst 56, DW_OP_LLVM_fragment 0 32] [$sp+0]
	@DEBUG_VALUE: doPrint:va <- [DW_OP_plus_uconst 80] [$sp+0]
	@DEBUG_VALUE: doPrint:buf <- $r6
	.loc	1 0 5 is_stmt 0                 @ ../../../../../../kernel/freertos/dpl/SystemP_freertos.c:0:5
	ldr	r2, [sp, #36]                   @ 4-byte Reload
	.loc	1 298 21 is_stmt 1              @ ../../../../../../kernel/freertos/dpl/SystemP_freertos.c:298:21
	subs	r0, r2, r4
	add	r1, sp, #84
	adds	r4, r1, r4
	adds	r4, #16
	b	.LBB1_108
.Ltmp260:
.LBB1_98:                               @   in Loop: Header=BB1_2 Depth=1
	@DEBUG_VALUE: doPrint:parse <- [DW_OP_LLVM_fragment 128 32] 8
	@DEBUG_VALUE: doPrint:parse <- [DW_OP_LLVM_fragment 96 32] 0
	@DEBUG_VALUE: doPrint:parse <- [DW_OP_plus_uconst 44, DW_OP_LLVM_fragment 160 32] [$sp+0]
	@DEBUG_VALUE: doPrint:parse <- [DW_OP_plus_uconst 84, DW_OP_stack_value, DW_OP_LLVM_fragment 192 32] $sp
	@DEBUG_VALUE: doPrint:fmt <- [DW_OP_plus_uconst 76] [$sp+0]
	@DEBUG_VALUE: doPrint:n <- [DW_OP_plus_uconst 40] [$sp+0]
	@DEBUG_VALUE: doPrint:parse <- [DW_OP_plus_uconst 52, DW_OP_LLVM_fragment 64 32] [$sp+0]
	@DEBUG_VALUE: doPrint:parse <- [DW_OP_plus_uconst 56, DW_OP_LLVM_fragment 0 32] [$sp+0]
	@DEBUG_VALUE: doPrint:va <- [DW_OP_plus_uconst 80] [$sp+0]
	@DEBUG_VALUE: doPrint:buf <- $r6
	.loc	1 266 64                        @ ../../../../../../kernel/freertos/dpl/SystemP_freertos.c:266:64
	ldr	r1, [sp, #36]                   @ 4-byte Reload
	muls	r1, r0, r1
	add	r2, sp, #84
	adds	r0, r2, r0
	adds	r0, #15
	b	.LBB1_101
.Ltmp261:
.LBB1_99:                               @   in Loop: Header=BB1_2 Depth=1
	@DEBUG_VALUE: doPrint:parse <- [DW_OP_LLVM_fragment 128 32] 8
	@DEBUG_VALUE: doPrint:parse <- [DW_OP_LLVM_fragment 96 32] 0
	@DEBUG_VALUE: doPrint:parse <- [DW_OP_plus_uconst 44, DW_OP_LLVM_fragment 160 32] [$sp+0]
	@DEBUG_VALUE: doPrint:parse <- [DW_OP_plus_uconst 84, DW_OP_stack_value, DW_OP_LLVM_fragment 192 32] $sp
	@DEBUG_VALUE: doPrint:fmt <- [DW_OP_plus_uconst 76] [$sp+0]
	@DEBUG_VALUE: doPrint:n <- [DW_OP_plus_uconst 40] [$sp+0]
	@DEBUG_VALUE: doPrint:parse <- [DW_OP_plus_uconst 52, DW_OP_LLVM_fragment 64 32] [$sp+0]
	@DEBUG_VALUE: doPrint:parse <- [DW_OP_plus_uconst 56, DW_OP_LLVM_fragment 0 32] [$sp+0]
	@DEBUG_VALUE: doPrint:va <- [DW_OP_plus_uconst 80] [$sp+0]
	@DEBUG_VALUE: doPrint:buf <- $r6
	ldr	r1, [sp, #36]                   @ 4-byte Reload
	muls	r1, r0, r1
	adds	r1, r1, #1
	add	r2, sp, #84
	adds	r0, r2, r0
	adds	r0, #14
	b	.LBB1_101
.Ltmp262:
.LBB1_100:                              @   in Loop: Header=BB1_2 Depth=1
	@DEBUG_VALUE: doPrint:parse <- [DW_OP_LLVM_fragment 128 32] 8
	@DEBUG_VALUE: doPrint:parse <- [DW_OP_LLVM_fragment 96 32] 0
	@DEBUG_VALUE: doPrint:parse <- [DW_OP_plus_uconst 44, DW_OP_LLVM_fragment 160 32] [$sp+0]
	@DEBUG_VALUE: doPrint:parse <- [DW_OP_plus_uconst 84, DW_OP_stack_value, DW_OP_LLVM_fragment 192 32] $sp
	@DEBUG_VALUE: doPrint:fmt <- [DW_OP_plus_uconst 76] [$sp+0]
	@DEBUG_VALUE: doPrint:n <- [DW_OP_plus_uconst 40] [$sp+0]
	@DEBUG_VALUE: doPrint:parse <- [DW_OP_plus_uconst 52, DW_OP_LLVM_fragment 64 32] [$sp+0]
	@DEBUG_VALUE: doPrint:parse <- [DW_OP_plus_uconst 56, DW_OP_LLVM_fragment 0 32] [$sp+0]
	@DEBUG_VALUE: doPrint:va <- [DW_OP_plus_uconst 80] [$sp+0]
	@DEBUG_VALUE: doPrint:buf <- $r6
	ldr	r1, [sp, #36]                   @ 4-byte Reload
	muls	r1, r0, r1
	adds	r1, r1, #2
	add	r2, sp, #84
	adds	r0, r2, r0
	adds	r0, #13
.Ltmp263:
.LBB1_101:                              @   in Loop: Header=BB1_2 Depth=1
	@DEBUG_VALUE: doPrint:parse <- [DW_OP_LLVM_fragment 128 32] 8
	@DEBUG_VALUE: doPrint:parse <- [DW_OP_LLVM_fragment 96 32] 0
	@DEBUG_VALUE: doPrint:parse <- [DW_OP_plus_uconst 44, DW_OP_LLVM_fragment 160 32] [$sp+0]
	@DEBUG_VALUE: doPrint:parse <- [DW_OP_plus_uconst 84, DW_OP_stack_value, DW_OP_LLVM_fragment 192 32] $sp
	@DEBUG_VALUE: doPrint:fmt <- [DW_OP_plus_uconst 76] [$sp+0]
	@DEBUG_VALUE: doPrint:n <- [DW_OP_plus_uconst 40] [$sp+0]
	@DEBUG_VALUE: doPrint:parse <- [DW_OP_plus_uconst 52, DW_OP_LLVM_fragment 64 32] [$sp+0]
	@DEBUG_VALUE: doPrint:parse <- [DW_OP_plus_uconst 56, DW_OP_LLVM_fragment 0 32] [$sp+0]
	@DEBUG_VALUE: doPrint:va <- [DW_OP_plus_uconst 80] [$sp+0]
	@DEBUG_VALUE: doPrint:buf <- $r6
	.loc	1 0 64 is_stmt 0                @ ../../../../../../kernel/freertos/dpl/SystemP_freertos.c:0:64
	ldr	r4, [sp, #72]                   @ 4-byte Reload
	ldr	r3, [sp, #56]                   @ 4-byte Reload
.Ltmp264:
	@DEBUG_VALUE: doPrint:va <- undef
	@DEBUG_VALUE: formatNum:ptr <- $r0
	@DEBUG_VALUE: formatNum:i <- undef
	.loc	1 424 5 is_stmt 1               @ ../../../../../../kernel/freertos/dpl/SystemP_freertos.c:424:5
	cmp	r1, #6
	bhi	.LBB1_103
.Ltmp265:
@ %bb.102:                              @   in Loop: Header=BB1_2 Depth=1
	@DEBUG_VALUE: formatNum:ptr <- $r0
	@DEBUG_VALUE: doPrint:parse <- [DW_OP_LLVM_fragment 128 32] 8
	@DEBUG_VALUE: doPrint:parse <- [DW_OP_LLVM_fragment 96 32] 0
	@DEBUG_VALUE: doPrint:parse <- [DW_OP_plus_uconst 44, DW_OP_LLVM_fragment 160 32] [$sp+0]
	@DEBUG_VALUE: doPrint:parse <- [DW_OP_plus_uconst 84, DW_OP_stack_value, DW_OP_LLVM_fragment 192 32] $sp
	@DEBUG_VALUE: doPrint:fmt <- [DW_OP_plus_uconst 76] [$sp+0]
	@DEBUG_VALUE: doPrint:n <- [DW_OP_plus_uconst 40] [$sp+0]
	@DEBUG_VALUE: doPrint:parse <- [DW_OP_plus_uconst 52, DW_OP_LLVM_fragment 64 32] [$sp+0]
	@DEBUG_VALUE: doPrint:parse <- [DW_OP_plus_uconst 56, DW_OP_LLVM_fragment 0 32] [$sp+0]
	@DEBUG_VALUE: doPrint:buf <- $r6
	.loc	1 0 5 is_stmt 0                 @ ../../../../../../kernel/freertos/dpl/SystemP_freertos.c:0:5
	movs	r0, #7
.Ltmp266:
	.loc	1 424 5                         @ ../../../../../../kernel/freertos/dpl/SystemP_freertos.c:424:5
	subs	r1, r0, r1
	movs	r2, #48
	ldr	r4, [sp, #28]                   @ 4-byte Reload
.Ltmp267:
	.loc	1 426 18 is_stmt 1              @ ../../../../../../kernel/freertos/dpl/SystemP_freertos.c:426:18
	mov	r0, r4
	bl	__aeabi_memset4
.Ltmp268:
	.loc	1 0 18 is_stmt 0                @ ../../../../../../kernel/freertos/dpl/SystemP_freertos.c:0:18
	ldr	r3, [sp, #56]                   @ 4-byte Reload
.Ltmp269:
	@DEBUG_VALUE: formatNum:i <- undef
	@DEBUG_VALUE: formatNum:ptr <- undef
	mov	r0, r4
	ldr	r4, [sp, #72]                   @ 4-byte Reload
.Ltmp270:
.LBB1_103:                              @   in Loop: Header=BB1_2 Depth=1
	@DEBUG_VALUE: doPrint:parse <- [DW_OP_LLVM_fragment 128 32] 8
	@DEBUG_VALUE: doPrint:parse <- [DW_OP_LLVM_fragment 96 32] 0
	@DEBUG_VALUE: doPrint:parse <- [DW_OP_plus_uconst 44, DW_OP_LLVM_fragment 160 32] [$sp+0]
	@DEBUG_VALUE: doPrint:parse <- [DW_OP_plus_uconst 84, DW_OP_stack_value, DW_OP_LLVM_fragment 192 32] $sp
	@DEBUG_VALUE: doPrint:fmt <- [DW_OP_plus_uconst 76] [$sp+0]
	@DEBUG_VALUE: doPrint:n <- [DW_OP_plus_uconst 40] [$sp+0]
	@DEBUG_VALUE: doPrint:parse <- [DW_OP_plus_uconst 52, DW_OP_LLVM_fragment 64 32] [$sp+0]
	@DEBUG_VALUE: doPrint:parse <- [DW_OP_plus_uconst 56, DW_OP_LLVM_fragment 0 32] [$sp+0]
	@DEBUG_VALUE: doPrint:buf <- $r6
	.loc	1 266 0 is_stmt 1               @ ../../../../../../kernel/freertos/dpl/SystemP_freertos.c:266:0
	adds	r7, r7, #4
	@DEBUG_VALUE: formatNum:ptr <- $r0
.Ltmp271:
	@DEBUG_VALUE: doPrint:parse <- [DW_OP_LLVM_fragment 192 32] $r0
	@DEBUG_VALUE: doPrint:va <- $r7
	.loc	1 267 19                        @ ../../../../../../kernel/freertos/dpl/SystemP_freertos.c:267:19
	subs	r1, r0, #1
.Ltmp272:
	@DEBUG_VALUE: doPrint:parse <- [DW_OP_LLVM_fragment 192 32] $r1
	.loc	1 0 19 is_stmt 0                @ ../../../../../../kernel/freertos/dpl/SystemP_freertos.c:0:19
	movs	r0, #64
	.loc	1 267 32                        @ ../../../../../../kernel/freertos/dpl/SystemP_freertos.c:267:32
	strb	r0, [r1]
	.loc	1 268 44 is_stmt 1              @ ../../../../../../kernel/freertos/dpl/SystemP_freertos.c:268:44
	ldr	r0, [sp, #44]                   @ 4-byte Reload
	str	r1, [sp, #64]                   @ 4-byte Spill
.Ltmp273:
	@DEBUG_VALUE: doPrint:parse <- [DW_OP_plus_uconst 64, DW_OP_LLVM_fragment 192 32] [$sp+0]
	subs	r5, r0, r1
.Ltmp274:
	@DEBUG_VALUE: doPrint:parse <- [DW_OP_LLVM_fragment 96 32] $r5
	.loc	1 0 44 is_stmt 0                @ ../../../../../../kernel/freertos/dpl/SystemP_freertos.c:0:44
	b	.LBB1_123
.Ltmp275:
.LBB1_104:                              @   in Loop: Header=BB1_2 Depth=1
	@DEBUG_VALUE: fract <- [DW_OP_plus_uconst 32] [$sp+0]
	@DEBUG_VALUE: doPrint:parse <- [DW_OP_LLVM_fragment 96 32] 0
	@DEBUG_VALUE: doPrint:parse <- [DW_OP_plus_uconst 44, DW_OP_LLVM_fragment 160 32] [$sp+0]
	@DEBUG_VALUE: doPrint:parse <- [DW_OP_plus_uconst 84, DW_OP_stack_value, DW_OP_LLVM_fragment 192 32] $sp
	@DEBUG_VALUE: doPrint:fmt <- [DW_OP_plus_uconst 76] [$sp+0]
	@DEBUG_VALUE: doPrint:n <- [DW_OP_plus_uconst 40] [$sp+0]
	@DEBUG_VALUE: doPrint:parse <- [DW_OP_plus_uconst 64, DW_OP_LLVM_fragment 128 32] [$sp+0]
	@DEBUG_VALUE: doPrint:parse <- [DW_OP_plus_uconst 52, DW_OP_LLVM_fragment 64 32] [$sp+0]
	@DEBUG_VALUE: doPrint:parse <- [DW_OP_plus_uconst 56, DW_OP_LLVM_fragment 0 32] [$sp+0]
	@DEBUG_VALUE: doPrint:va <- [DW_OP_plus_uconst 80] [$sp+0]
	@DEBUG_VALUE: doPrint:buf <- $r6
	ldr	r2, [sp, #36]                   @ 4-byte Reload
.Ltmp276:
	.loc	1 298 21 is_stmt 1              @ ../../../../../../kernel/freertos/dpl/SystemP_freertos.c:298:21
	mov	r0, r2
	muls	r0, r5, r0
	add	r1, sp, #84
	adds	r4, r1, r5
	adds	r4, #15
	b	.LBB1_108
.Ltmp277:
.LBB1_105:                              @   in Loop: Header=BB1_2 Depth=1
	@DEBUG_VALUE: fract <- [DW_OP_plus_uconst 32] [$sp+0]
	@DEBUG_VALUE: doPrint:parse <- [DW_OP_LLVM_fragment 96 32] 0
	@DEBUG_VALUE: doPrint:parse <- [DW_OP_plus_uconst 44, DW_OP_LLVM_fragment 160 32] [$sp+0]
	@DEBUG_VALUE: doPrint:parse <- [DW_OP_plus_uconst 84, DW_OP_stack_value, DW_OP_LLVM_fragment 192 32] $sp
	@DEBUG_VALUE: doPrint:fmt <- [DW_OP_plus_uconst 76] [$sp+0]
	@DEBUG_VALUE: doPrint:n <- [DW_OP_plus_uconst 40] [$sp+0]
	@DEBUG_VALUE: doPrint:parse <- [DW_OP_plus_uconst 64, DW_OP_LLVM_fragment 128 32] [$sp+0]
	@DEBUG_VALUE: doPrint:parse <- [DW_OP_plus_uconst 52, DW_OP_LLVM_fragment 64 32] [$sp+0]
	@DEBUG_VALUE: doPrint:parse <- [DW_OP_plus_uconst 56, DW_OP_LLVM_fragment 0 32] [$sp+0]
	@DEBUG_VALUE: doPrint:va <- [DW_OP_plus_uconst 80] [$sp+0]
	@DEBUG_VALUE: doPrint:buf <- $r6
	.loc	1 0 21 is_stmt 0                @ ../../../../../../kernel/freertos/dpl/SystemP_freertos.c:0:21
	ldr	r2, [sp, #36]                   @ 4-byte Reload
	.loc	1 298 21                        @ ../../../../../../kernel/freertos/dpl/SystemP_freertos.c:298:21
	mov	r0, r2
	muls	r0, r4, r0
	adds	r0, r0, #1
	add	r1, sp, #84
	adds	r4, r1, r4
	adds	r4, #14
	b	.LBB1_108
.Ltmp278:
	.p2align	2
@ %bb.106:
	.loc	1 0 21                          @ ../../../../../../kernel/freertos/dpl/SystemP_freertos.c:0:21
.LCPI1_8:
	.long	.L.str.1
	.p2align	1
.LBB1_107:                              @   in Loop: Header=BB1_2 Depth=1
.Ltmp279:
	@DEBUG_VALUE: fract <- [DW_OP_plus_uconst 32] [$sp+0]
	@DEBUG_VALUE: doPrint:parse <- [DW_OP_LLVM_fragment 96 32] 0
	@DEBUG_VALUE: doPrint:parse <- [DW_OP_plus_uconst 44, DW_OP_LLVM_fragment 160 32] [$sp+0]
	@DEBUG_VALUE: doPrint:parse <- [DW_OP_plus_uconst 84, DW_OP_stack_value, DW_OP_LLVM_fragment 192 32] $sp
	@DEBUG_VALUE: doPrint:fmt <- [DW_OP_plus_uconst 76] [$sp+0]
	@DEBUG_VALUE: doPrint:n <- [DW_OP_plus_uconst 40] [$sp+0]
	@DEBUG_VALUE: doPrint:parse <- [DW_OP_plus_uconst 64, DW_OP_LLVM_fragment 128 32] [$sp+0]
	@DEBUG_VALUE: doPrint:parse <- [DW_OP_plus_uconst 52, DW_OP_LLVM_fragment 64 32] [$sp+0]
	@DEBUG_VALUE: doPrint:parse <- [DW_OP_plus_uconst 56, DW_OP_LLVM_fragment 0 32] [$sp+0]
	@DEBUG_VALUE: doPrint:va <- [DW_OP_plus_uconst 80] [$sp+0]
	@DEBUG_VALUE: doPrint:buf <- $r6
	ldr	r2, [sp, #36]                   @ 4-byte Reload
	.loc	1 298 21                        @ ../../../../../../kernel/freertos/dpl/SystemP_freertos.c:298:21
	mov	r0, r2
	muls	r0, r4, r0
	adds	r0, r0, #2
	add	r1, sp, #84
	adds	r4, r1, r4
	adds	r4, #13
.Ltmp280:
.LBB1_108:                              @   in Loop: Header=BB1_2 Depth=1
	@DEBUG_VALUE: fract <- [DW_OP_plus_uconst 32] [$sp+0]
	@DEBUG_VALUE: doPrint:parse <- [DW_OP_LLVM_fragment 96 32] 0
	@DEBUG_VALUE: doPrint:parse <- [DW_OP_plus_uconst 44, DW_OP_LLVM_fragment 160 32] [$sp+0]
	@DEBUG_VALUE: doPrint:parse <- [DW_OP_plus_uconst 84, DW_OP_stack_value, DW_OP_LLVM_fragment 192 32] $sp
	@DEBUG_VALUE: doPrint:fmt <- [DW_OP_plus_uconst 76] [$sp+0]
	@DEBUG_VALUE: doPrint:n <- [DW_OP_plus_uconst 40] [$sp+0]
	@DEBUG_VALUE: doPrint:parse <- [DW_OP_plus_uconst 64, DW_OP_LLVM_fragment 128 32] [$sp+0]
	@DEBUG_VALUE: doPrint:parse <- [DW_OP_plus_uconst 52, DW_OP_LLVM_fragment 64 32] [$sp+0]
	@DEBUG_VALUE: doPrint:parse <- [DW_OP_plus_uconst 56, DW_OP_LLVM_fragment 0 32] [$sp+0]
	@DEBUG_VALUE: doPrint:va <- [DW_OP_plus_uconst 80] [$sp+0]
	@DEBUG_VALUE: doPrint:buf <- $r6
	.loc	1 0 21                          @ ../../../../../../kernel/freertos/dpl/SystemP_freertos.c:0:21
	ldr	r7, [sp, #80]                   @ 4-byte Reload
.Ltmp281:
	@DEBUG_VALUE: doPrint:va <- undef
	@DEBUG_VALUE: doPrint:parse <- [DW_OP_LLVM_fragment 128 32] undef
	@DEBUG_VALUE: formatNum:ptr <- $r4
	@DEBUG_VALUE: formatNum:i <- undef
	str	r6, [sp, #32]                   @ 4-byte Spill
.Ltmp282:
	@DEBUG_VALUE: doPrint:buf <- [DW_OP_plus_uconst 32] [$sp+0]
	.loc	1 424 5 is_stmt 1               @ ../../../../../../kernel/freertos/dpl/SystemP_freertos.c:424:5
	cmp	r0, #2
	bhi	.LBB1_110
.Ltmp283:
@ %bb.109:                              @   in Loop: Header=BB1_2 Depth=1
	@DEBUG_VALUE: formatNum:ptr <- $r4
	@DEBUG_VALUE: fract <- [DW_OP_plus_uconst 32] [$sp+0]
	@DEBUG_VALUE: doPrint:buf <- [DW_OP_plus_uconst 32] [$sp+0]
	@DEBUG_VALUE: doPrint:parse <- [DW_OP_LLVM_fragment 96 32] 0
	@DEBUG_VALUE: doPrint:parse <- [DW_OP_plus_uconst 44, DW_OP_LLVM_fragment 160 32] [$sp+0]
	@DEBUG_VALUE: doPrint:parse <- [DW_OP_plus_uconst 84, DW_OP_stack_value, DW_OP_LLVM_fragment 192 32] $sp
	@DEBUG_VALUE: doPrint:fmt <- [DW_OP_plus_uconst 76] [$sp+0]
	@DEBUG_VALUE: doPrint:n <- [DW_OP_plus_uconst 40] [$sp+0]
	@DEBUG_VALUE: doPrint:parse <- [DW_OP_plus_uconst 52, DW_OP_LLVM_fragment 64 32] [$sp+0]
	@DEBUG_VALUE: doPrint:parse <- [DW_OP_plus_uconst 56, DW_OP_LLVM_fragment 0 32] [$sp+0]
	.loc	1 0 5 is_stmt 0                 @ ../../../../../../kernel/freertos/dpl/SystemP_freertos.c:0:5
	movs	r1, #3
	.loc	1 424 5                         @ ../../../../../../kernel/freertos/dpl/SystemP_freertos.c:424:5
	subs	r1, r1, r0
	mov	r5, r2
	movs	r2, #48
	ldr	r4, [sp, #24]                   @ 4-byte Reload
.Ltmp284:
	.loc	1 426 18 is_stmt 1              @ ../../../../../../kernel/freertos/dpl/SystemP_freertos.c:426:18
	mov	r0, r4
	bl	__aeabi_memset4
.Ltmp285:
	.loc	1 0 18 is_stmt 0                @ ../../../../../../kernel/freertos/dpl/SystemP_freertos.c:0:18
	mov	r2, r5
.Ltmp286:
	@DEBUG_VALUE: formatNum:i <- undef
	@DEBUG_VALUE: formatNum:ptr <- undef
.LBB1_110:                              @   in Loop: Header=BB1_2 Depth=1
	@DEBUG_VALUE: fract <- [DW_OP_plus_uconst 32] [$sp+0]
	@DEBUG_VALUE: doPrint:buf <- [DW_OP_plus_uconst 32] [$sp+0]
	@DEBUG_VALUE: doPrint:parse <- [DW_OP_LLVM_fragment 96 32] 0
	@DEBUG_VALUE: doPrint:parse <- [DW_OP_plus_uconst 44, DW_OP_LLVM_fragment 160 32] [$sp+0]
	@DEBUG_VALUE: doPrint:parse <- [DW_OP_plus_uconst 84, DW_OP_stack_value, DW_OP_LLVM_fragment 192 32] $sp
	@DEBUG_VALUE: doPrint:fmt <- [DW_OP_plus_uconst 76] [$sp+0]
	@DEBUG_VALUE: doPrint:n <- [DW_OP_plus_uconst 40] [$sp+0]
	@DEBUG_VALUE: doPrint:parse <- [DW_OP_plus_uconst 52, DW_OP_LLVM_fragment 64 32] [$sp+0]
	@DEBUG_VALUE: doPrint:parse <- [DW_OP_plus_uconst 56, DW_OP_LLVM_fragment 0 32] [$sp+0]
	ldr	r0, [sp, #64]                   @ 4-byte Reload
	ldr	r3, [sp, #8]                    @ 4-byte Reload
	adds	r0, r0, r3
.Ltmp287:
	@DEBUG_VALUE: doPrint:parse <- [DW_OP_LLVM_fragment 128 32] $r0
	str	r0, [sp, #8]                    @ 4-byte Spill
.Ltmp288:
	@DEBUG_VALUE: doPrint:parse <- [DW_OP_plus_uconst 8, DW_OP_LLVM_fragment 128 32] [$sp+0]
	@DEBUG_VALUE: doPrint:parse <- [DW_OP_plus_uconst 8, DW_OP_LLVM_fragment 128 32] [$sp+0]
	adds	r7, #8
	@DEBUG_VALUE: formatNum:ptr <- $r4
.Ltmp289:
	@DEBUG_VALUE: doPrint:parse <- [DW_OP_LLVM_fragment 192 32] $r4
	@DEBUG_VALUE: doPrint:va <- $r7
	str	r7, [sp, #80]                   @ 4-byte Spill
.Ltmp290:
	@DEBUG_VALUE: doPrint:va <- [DW_OP_plus_uconst 80] [$sp+0]
	@DEBUG_VALUE: doPrint:va <- [DW_OP_plus_uconst 80] [$sp+0]
	@DEBUG_VALUE: doPrint:va <- undef
	.loc	1 318 19 is_stmt 1              @ ../../../../../../kernel/freertos/dpl/SystemP_freertos.c:318:19
	subs	r4, r4, #1
.Ltmp291:
	@DEBUG_VALUE: doPrint:parse <- [DW_OP_LLVM_fragment 192 32] $r4
	.loc	1 0 19 is_stmt 0                @ ../../../../../../kernel/freertos/dpl/SystemP_freertos.c:0:19
	movs	r0, #46
	.loc	1 318 32                        @ ../../../../../../kernel/freertos/dpl/SystemP_freertos.c:318:32
	strb	r0, [r4]
	.loc	1 320 39 is_stmt 1              @ ../../../../../../kernel/freertos/dpl/SystemP_freertos.c:320:39
	ldr	r0, [sp, #44]                   @ 4-byte Reload
	subs	r0, r4, r0
	@DEBUG_VALUE: formatNum:base <- 10
	@DEBUG_VALUE: formatNum:sign <- 0
	@DEBUG_VALUE: formatNum:i <- 0
	@DEBUG_VALUE: formatNum:un <- [DW_OP_plus_uconst 12] [$sp+0]
	@DEBUG_VALUE: formatNum:ptr <- $r4
.Ltmp292:
	@DEBUG_VALUE: doPrint:parse <- [DW_OP_LLVM_arg 0, DW_OP_plus_uconst 44, DW_OP_deref, DW_OP_LLVM_arg 1, DW_OP_minus, DW_OP_stack_value, DW_OP_LLVM_fragment 96 32] $sp, $r4
	.loc	1 0 39 is_stmt 0                @ ../../../../../../kernel/freertos/dpl/SystemP_freertos.c:0:39
	str	r0, [sp, #4]                    @ 4-byte Spill
	mov	r3, r2
	str	r4, [sp]                        @ 4-byte Spill
	@DEBUG_VALUE: formatNum:ptr <- [$sp+0]
.Ltmp293:
	@DEBUG_VALUE: doPrint:parse <- [DW_OP_LLVM_arg 0, DW_OP_plus_uconst 44, DW_OP_deref, DW_OP_LLVM_arg 1, DW_OP_deref, DW_OP_minus, DW_OP_stack_value, DW_OP_LLVM_fragment 96 32] $sp, $sp
	@DEBUG_VALUE: doPrint:parse <- [DW_OP_LLVM_fragment 192 32] [$sp+0]
	ldr	r6, __arm_cp.1_1
	ldr	r7, [sp, #12]                   @ 4-byte Reload
	@DEBUG_VALUE: formatNum:n <- $r7
	@DEBUG_VALUE: formatNum:un <- $r7
.Ltmp294:
.LBB1_111:                              @   Parent Loop BB1_2 Depth=1
                                        @ =>  This Inner Loop Header: Depth=2
	@DEBUG_VALUE: formatNum:n <- $r7
	@DEBUG_VALUE: doPrint:parse <- [DW_OP_LLVM_fragment 192 32] [$sp+0]
	@DEBUG_VALUE: doPrint:parse <- [DW_OP_LLVM_arg 0, DW_OP_plus_uconst 44, DW_OP_deref, DW_OP_LLVM_arg 0, DW_OP_deref, DW_OP_minus, DW_OP_stack_value, DW_OP_LLVM_fragment 96 32] $sp
	@DEBUG_VALUE: formatNum:sign <- 0
	@DEBUG_VALUE: formatNum:base <- 10
	@DEBUG_VALUE: doPrint:parse <- [DW_OP_plus_uconst 8, DW_OP_LLVM_fragment 128 32] [$sp+0]
	@DEBUG_VALUE: fract <- [DW_OP_plus_uconst 32] [$sp+0]
	@DEBUG_VALUE: doPrint:buf <- [DW_OP_plus_uconst 32] [$sp+0]
	@DEBUG_VALUE: doPrint:parse <- [DW_OP_plus_uconst 44, DW_OP_LLVM_fragment 160 32] [$sp+0]
	@DEBUG_VALUE: doPrint:fmt <- [DW_OP_plus_uconst 76] [$sp+0]
	@DEBUG_VALUE: doPrint:n <- [DW_OP_plus_uconst 40] [$sp+0]
	@DEBUG_VALUE: doPrint:parse <- [DW_OP_plus_uconst 52, DW_OP_LLVM_fragment 64 32] [$sp+0]
	@DEBUG_VALUE: doPrint:parse <- [DW_OP_plus_uconst 56, DW_OP_LLVM_fragment 0 32] [$sp+0]
	@DEBUG_VALUE: formatNum:ptr <- undef
	@DEBUG_VALUE: formatNum:i <- [DW_OP_LLVM_arg 0, DW_OP_consts 18446744073709551615, DW_OP_LLVM_arg 0, DW_OP_plus, DW_OP_minus, DW_OP_consts 18446744073709551614, DW_OP_div, DW_OP_consts 2, DW_OP_mul, DW_OP_stack_value] undef
	@DEBUG_VALUE: formatNum:n <- $r7
	str	r3, [sp, #64]                   @ 4-byte Spill
.Ltmp295:
	.loc	1 419 22 is_stmt 1              @ ../../../../../../kernel/freertos/dpl/SystemP_freertos.c:419:22
	mov	r0, r7
	ldr	r5, [sp, #52]                   @ 4-byte Reload
	mov	r1, r5
	bl	__aeabi_uidiv
.Ltmp296:
	.loc	1 0 22 is_stmt 0                @ ../../../../../../kernel/freertos/dpl/SystemP_freertos.c:0:22
	mov	r1, r5
	muls	r1, r0, r1
	subs	r1, r7, r1
	.loc	1 418 20 is_stmt 1              @ ../../../../../../kernel/freertos/dpl/SystemP_freertos.c:418:20
	ldrb	r2, [r6, r1]
.Ltmp297:
	@DEBUG_VALUE: formatNum:ptr <- [DW_OP_constu 1, DW_OP_minus, DW_OP_stack_value] $r4
	.loc	1 418 18 is_stmt 0              @ ../../../../../../kernel/freertos/dpl/SystemP_freertos.c:418:18
	subs	r1, r4, #1
	strb	r2, [r1]
.Ltmp298:
	@DEBUG_VALUE: formatNum:n <- undef
	@DEBUG_VALUE: formatNum:i <- [DW_OP_constu 1, DW_OP_or, DW_OP_stack_value] $r4
	.loc	1 421 5 is_stmt 1               @ ../../../../../../kernel/freertos/dpl/SystemP_freertos.c:421:5
	cmp	r7, #10
	blo	.LBB1_116
.Ltmp299:
@ %bb.112:                              @   in Loop: Header=BB1_111 Depth=2
	@DEBUG_VALUE: formatNum:i <- [DW_OP_constu 1, DW_OP_or, DW_OP_stack_value] $r4
	@DEBUG_VALUE: formatNum:ptr <- [DW_OP_constu 1, DW_OP_minus, DW_OP_stack_value] $r4
	@DEBUG_VALUE: doPrint:parse <- [DW_OP_LLVM_fragment 192 32] [$sp+0]
	@DEBUG_VALUE: doPrint:parse <- [DW_OP_LLVM_arg 0, DW_OP_plus_uconst 44, DW_OP_deref, DW_OP_LLVM_arg 0, DW_OP_deref, DW_OP_minus, DW_OP_stack_value, DW_OP_LLVM_fragment 96 32] $sp
	@DEBUG_VALUE: formatNum:sign <- 0
	@DEBUG_VALUE: formatNum:base <- 10
	@DEBUG_VALUE: doPrint:parse <- [DW_OP_plus_uconst 8, DW_OP_LLVM_fragment 128 32] [$sp+0]
	@DEBUG_VALUE: fract <- [DW_OP_plus_uconst 32] [$sp+0]
	@DEBUG_VALUE: doPrint:buf <- [DW_OP_plus_uconst 32] [$sp+0]
	@DEBUG_VALUE: doPrint:parse <- [DW_OP_plus_uconst 44, DW_OP_LLVM_fragment 160 32] [$sp+0]
	@DEBUG_VALUE: doPrint:fmt <- [DW_OP_plus_uconst 76] [$sp+0]
	@DEBUG_VALUE: doPrint:n <- [DW_OP_plus_uconst 40] [$sp+0]
	@DEBUG_VALUE: doPrint:parse <- [DW_OP_plus_uconst 52, DW_OP_LLVM_fragment 64 32] [$sp+0]
	@DEBUG_VALUE: doPrint:parse <- [DW_OP_plus_uconst 56, DW_OP_LLVM_fragment 0 32] [$sp+0]
	@DEBUG_VALUE: formatNum:ptr <- [DW_OP_constu 1, DW_OP_minus, DW_OP_stack_value] $r4
	@DEBUG_VALUE: formatNum:i <- [DW_OP_constu 1, DW_OP_or, DW_OP_stack_value] $r4
	@DEBUG_VALUE: formatNum:n <- $r0
	.loc	1 0 5 is_stmt 0                 @ ../../../../../../kernel/freertos/dpl/SystemP_freertos.c:0:5
	movs	r1, #10
	.loc	1 418 47 is_stmt 1              @ ../../../../../../kernel/freertos/dpl/SystemP_freertos.c:418:47
	bl	__aeabi_uidivmod
.Ltmp300:
	.loc	1 418 20 is_stmt 0              @ ../../../../../../kernel/freertos/dpl/SystemP_freertos.c:418:20
	ldrb	r0, [r6, r1]
.Ltmp301:
	@DEBUG_VALUE: formatNum:ptr <- [DW_OP_constu 2, DW_OP_minus, DW_OP_stack_value] $r4
	.loc	1 418 18                        @ ../../../../../../kernel/freertos/dpl/SystemP_freertos.c:418:18
	subs	r4, r4, #2
.Ltmp302:
	strb	r0, [r4]
	movs	r1, #100
	.loc	1 419 22 is_stmt 1              @ ../../../../../../kernel/freertos/dpl/SystemP_freertos.c:419:22
	mov	r0, r7
	bl	__aeabi_uidiv
.Ltmp303:
	@DEBUG_VALUE: formatNum:n <- $r0
	@DEBUG_VALUE: formatNum:i <- [DW_OP_LLVM_arg 0, DW_OP_consts 18446744073709551615, DW_OP_LLVM_arg 0, DW_OP_plus, DW_OP_minus, DW_OP_consts 18446744073709551614, DW_OP_div, DW_OP_consts 2, DW_OP_mul, DW_OP_consts 2, DW_OP_plus, DW_OP_stack_value] undef
	.loc	1 0 22 is_stmt 0                @ ../../../../../../kernel/freertos/dpl/SystemP_freertos.c:0:22
	ldr	r3, [sp, #64]                   @ 4-byte Reload
	.loc	1 421 5 is_stmt 1               @ ../../../../../../kernel/freertos/dpl/SystemP_freertos.c:421:5
	adds	r3, r3, #2
	cmp	r7, #99
	mov	r7, r0
.Ltmp304:
	@DEBUG_VALUE: formatNum:n <- $r7
	@DEBUG_VALUE: formatNum:n <- $r7
	@DEBUG_VALUE: formatNum:n <- $r7
	bhi	.LBB1_111
.Ltmp305:
@ %bb.113:                              @   in Loop: Header=BB1_2 Depth=1
	@DEBUG_VALUE: doPrint:parse <- [DW_OP_LLVM_fragment 192 32] [$sp+0]
	@DEBUG_VALUE: doPrint:parse <- [DW_OP_LLVM_arg 0, DW_OP_plus_uconst 44, DW_OP_deref, DW_OP_LLVM_arg 0, DW_OP_deref, DW_OP_minus, DW_OP_stack_value, DW_OP_LLVM_fragment 96 32] $sp
	@DEBUG_VALUE: doPrint:parse <- [DW_OP_plus_uconst 8, DW_OP_LLVM_fragment 128 32] [$sp+0]
	@DEBUG_VALUE: fract <- [DW_OP_plus_uconst 32] [$sp+0]
	@DEBUG_VALUE: doPrint:buf <- [DW_OP_plus_uconst 32] [$sp+0]
	@DEBUG_VALUE: doPrint:parse <- [DW_OP_plus_uconst 44, DW_OP_LLVM_fragment 160 32] [$sp+0]
	@DEBUG_VALUE: doPrint:fmt <- [DW_OP_plus_uconst 76] [$sp+0]
	@DEBUG_VALUE: doPrint:n <- [DW_OP_plus_uconst 40] [$sp+0]
	@DEBUG_VALUE: doPrint:parse <- [DW_OP_plus_uconst 52, DW_OP_LLVM_fragment 64 32] [$sp+0]
	@DEBUG_VALUE: doPrint:parse <- [DW_OP_plus_uconst 56, DW_OP_LLVM_fragment 0 32] [$sp+0]
	.loc	1 322 73                        @ ../../../../../../kernel/freertos/dpl/SystemP_freertos.c:322:73
	adds	r0, r3, #1
	mov	r5, r4
	b	.LBB1_117
.Ltmp306:
	.p2align	2
@ %bb.114:
	.loc	1 0 73 is_stmt 0                @ ../../../../../../kernel/freertos/dpl/SystemP_freertos.c:0:73
.LCPI1_6:
	.long	.L.str.1
	.p2align	2
@ %bb.115:
.LCPI1_7:
.L.str:
	.asciz	"(null)\000"
	.p2align	1
.LBB1_116:                              @   in Loop: Header=BB1_2 Depth=1
.Ltmp307:
	@DEBUG_VALUE: doPrint:parse <- [DW_OP_LLVM_fragment 192 32] [$sp+0]
	@DEBUG_VALUE: doPrint:parse <- [DW_OP_LLVM_arg 0, DW_OP_plus_uconst 44, DW_OP_deref, DW_OP_LLVM_arg 0, DW_OP_deref, DW_OP_minus, DW_OP_stack_value, DW_OP_LLVM_fragment 96 32] $sp
	@DEBUG_VALUE: doPrint:parse <- [DW_OP_plus_uconst 8, DW_OP_LLVM_fragment 128 32] [$sp+0]
	@DEBUG_VALUE: fract <- [DW_OP_plus_uconst 32] [$sp+0]
	@DEBUG_VALUE: doPrint:buf <- [DW_OP_plus_uconst 32] [$sp+0]
	@DEBUG_VALUE: doPrint:parse <- [DW_OP_plus_uconst 44, DW_OP_LLVM_fragment 160 32] [$sp+0]
	@DEBUG_VALUE: doPrint:fmt <- [DW_OP_plus_uconst 76] [$sp+0]
	@DEBUG_VALUE: doPrint:n <- [DW_OP_plus_uconst 40] [$sp+0]
	@DEBUG_VALUE: doPrint:parse <- [DW_OP_plus_uconst 52, DW_OP_LLVM_fragment 64 32] [$sp+0]
	@DEBUG_VALUE: doPrint:parse <- [DW_OP_plus_uconst 56, DW_OP_LLVM_fragment 0 32] [$sp+0]
	ldr	r3, [sp, #64]                   @ 4-byte Reload
	.loc	1 322 73                        @ ../../../../../../kernel/freertos/dpl/SystemP_freertos.c:322:73
	adds	r0, r3, #2
	adds	r3, r3, #1
	mov	r5, r1
.Ltmp308:
.LBB1_117:                              @   in Loop: Header=BB1_2 Depth=1
	@DEBUG_VALUE: doPrint:parse <- [DW_OP_LLVM_fragment 192 32] [$sp+0]
	@DEBUG_VALUE: doPrint:parse <- [DW_OP_LLVM_arg 0, DW_OP_plus_uconst 44, DW_OP_deref, DW_OP_LLVM_arg 0, DW_OP_deref, DW_OP_minus, DW_OP_stack_value, DW_OP_LLVM_fragment 96 32] $sp
	@DEBUG_VALUE: doPrint:parse <- [DW_OP_plus_uconst 8, DW_OP_LLVM_fragment 128 32] [$sp+0]
	@DEBUG_VALUE: fract <- [DW_OP_plus_uconst 32] [$sp+0]
	@DEBUG_VALUE: doPrint:buf <- [DW_OP_plus_uconst 32] [$sp+0]
	@DEBUG_VALUE: doPrint:parse <- [DW_OP_plus_uconst 44, DW_OP_LLVM_fragment 160 32] [$sp+0]
	@DEBUG_VALUE: doPrint:fmt <- [DW_OP_plus_uconst 76] [$sp+0]
	@DEBUG_VALUE: doPrint:n <- [DW_OP_plus_uconst 40] [$sp+0]
	@DEBUG_VALUE: doPrint:parse <- [DW_OP_plus_uconst 52, DW_OP_LLVM_fragment 64 32] [$sp+0]
	@DEBUG_VALUE: doPrint:parse <- [DW_OP_plus_uconst 56, DW_OP_LLVM_fragment 0 32] [$sp+0]
	ldr	r1, [sp, #8]                    @ 4-byte Reload
	ldr	r2, [sp, #4]                    @ 4-byte Reload
	adds	r1, r1, r2
.Ltmp309:
	@DEBUG_VALUE: formatNum:zpad <- $r1
	@DEBUG_VALUE: formatNum:i <- $r0
	@DEBUG_VALUE: formatNum:ptr <- $r5
	.loc	1 424 5 is_stmt 1               @ ../../../../../../kernel/freertos/dpl/SystemP_freertos.c:424:5
	cmp	r0, r1
	bge	.LBB1_119
.Ltmp310:
@ %bb.118:                              @   in Loop: Header=BB1_2 Depth=1
	@DEBUG_VALUE: formatNum:ptr <- $r5
	@DEBUG_VALUE: formatNum:i <- $r0
	@DEBUG_VALUE: formatNum:zpad <- $r1
	@DEBUG_VALUE: doPrint:parse <- [DW_OP_LLVM_fragment 192 32] [$sp+0]
	@DEBUG_VALUE: doPrint:parse <- [DW_OP_LLVM_arg 0, DW_OP_plus_uconst 44, DW_OP_deref, DW_OP_LLVM_arg 0, DW_OP_deref, DW_OP_minus, DW_OP_stack_value, DW_OP_LLVM_fragment 96 32] $sp
	@DEBUG_VALUE: doPrint:parse <- [DW_OP_plus_uconst 8, DW_OP_LLVM_fragment 128 32] [$sp+0]
	@DEBUG_VALUE: fract <- [DW_OP_plus_uconst 32] [$sp+0]
	@DEBUG_VALUE: doPrint:buf <- [DW_OP_plus_uconst 32] [$sp+0]
	@DEBUG_VALUE: doPrint:parse <- [DW_OP_plus_uconst 44, DW_OP_LLVM_fragment 160 32] [$sp+0]
	@DEBUG_VALUE: doPrint:fmt <- [DW_OP_plus_uconst 76] [$sp+0]
	@DEBUG_VALUE: doPrint:n <- [DW_OP_plus_uconst 40] [$sp+0]
	@DEBUG_VALUE: doPrint:parse <- [DW_OP_plus_uconst 52, DW_OP_LLVM_fragment 64 32] [$sp+0]
	@DEBUG_VALUE: doPrint:parse <- [DW_OP_plus_uconst 56, DW_OP_LLVM_fragment 0 32] [$sp+0]
	ldr	r0, [sp]                        @ 4-byte Reload
.Ltmp311:
	subs	r5, r0, r1
.Ltmp312:
	mvns	r0, r3
	adds	r1, r1, r0
.Ltmp313:
	.loc	1 0 5 is_stmt 0                 @ ../../../../../../kernel/freertos/dpl/SystemP_freertos.c:0:5
	movs	r2, #48
.Ltmp314:
	.loc	1 426 18 is_stmt 1              @ ../../../../../../kernel/freertos/dpl/SystemP_freertos.c:426:18
	mov	r0, r5
	bl	__aeabi_memset
.Ltmp315:
	@DEBUG_VALUE: formatNum:i <- undef
	@DEBUG_VALUE: formatNum:ptr <- undef
.LBB1_119:                              @   in Loop: Header=BB1_2 Depth=1
	@DEBUG_VALUE: doPrint:parse <- [DW_OP_LLVM_fragment 192 32] [$sp+0]
	@DEBUG_VALUE: doPrint:parse <- [DW_OP_LLVM_arg 0, DW_OP_plus_uconst 44, DW_OP_deref, DW_OP_LLVM_arg 0, DW_OP_deref, DW_OP_minus, DW_OP_stack_value, DW_OP_LLVM_fragment 96 32] $sp
	@DEBUG_VALUE: doPrint:parse <- [DW_OP_plus_uconst 8, DW_OP_LLVM_fragment 128 32] [$sp+0]
	@DEBUG_VALUE: fract <- [DW_OP_plus_uconst 32] [$sp+0]
	@DEBUG_VALUE: doPrint:buf <- [DW_OP_plus_uconst 32] [$sp+0]
	@DEBUG_VALUE: doPrint:parse <- [DW_OP_plus_uconst 44, DW_OP_LLVM_fragment 160 32] [$sp+0]
	@DEBUG_VALUE: doPrint:fmt <- [DW_OP_plus_uconst 76] [$sp+0]
	@DEBUG_VALUE: doPrint:n <- [DW_OP_plus_uconst 40] [$sp+0]
	@DEBUG_VALUE: doPrint:parse <- [DW_OP_plus_uconst 52, DW_OP_LLVM_fragment 64 32] [$sp+0]
	@DEBUG_VALUE: doPrint:parse <- [DW_OP_plus_uconst 56, DW_OP_LLVM_fragment 0 32] [$sp+0]
	.loc	1 0 18 is_stmt 0                @ ../../../../../../kernel/freertos/dpl/SystemP_freertos.c:0:18
	movs	r2, #0
.Ltmp316:
	.loc	1 300 23 is_stmt 1              @ ../../../../../../kernel/freertos/dpl/SystemP_freertos.c:300:23
	ldr	r0, [sp, #20]                   @ 4-byte Reload
	ldr	r1, [sp, #16]                   @ 4-byte Reload
	mov	r3, r2
	bl	__aeabi_dcmpge
.Ltmp317:
	@DEBUG_VALUE: formatNum:ptr <- $r5
	@DEBUG_VALUE: doPrint:parse <- [DW_OP_LLVM_fragment 192 32] $r5
	.loc	1 323 21                        @ ../../../../../../kernel/freertos/dpl/SystemP_freertos.c:323:21
	cmp	r0, #0
	ldr	r7, [sp, #80]                   @ 4-byte Reload
	bne	.LBB1_121
.Ltmp318:
@ %bb.120:                              @   in Loop: Header=BB1_2 Depth=1
	@DEBUG_VALUE: doPrint:parse <- [DW_OP_LLVM_arg 0, DW_OP_plus_uconst 44, DW_OP_deref, DW_OP_LLVM_arg 0, DW_OP_deref, DW_OP_minus, DW_OP_stack_value, DW_OP_LLVM_fragment 96 32] $sp
	@DEBUG_VALUE: doPrint:parse <- [DW_OP_plus_uconst 8, DW_OP_LLVM_fragment 128 32] [$sp+0]
	@DEBUG_VALUE: fract <- [DW_OP_plus_uconst 32] [$sp+0]
	@DEBUG_VALUE: doPrint:parse <- [DW_OP_LLVM_fragment 192 32] $r5
	@DEBUG_VALUE: doPrint:buf <- [DW_OP_plus_uconst 32] [$sp+0]
	@DEBUG_VALUE: doPrint:parse <- [DW_OP_plus_uconst 44, DW_OP_LLVM_fragment 160 32] [$sp+0]
	@DEBUG_VALUE: doPrint:fmt <- [DW_OP_plus_uconst 76] [$sp+0]
	@DEBUG_VALUE: doPrint:n <- [DW_OP_plus_uconst 40] [$sp+0]
	@DEBUG_VALUE: doPrint:parse <- [DW_OP_plus_uconst 52, DW_OP_LLVM_fragment 64 32] [$sp+0]
	@DEBUG_VALUE: doPrint:parse <- [DW_OP_plus_uconst 56, DW_OP_LLVM_fragment 0 32] [$sp+0]
	.loc	1 325 23                        @ ../../../../../../kernel/freertos/dpl/SystemP_freertos.c:325:23
	subs	r5, r5, #1
.Ltmp319:
	@DEBUG_VALUE: doPrint:parse <- [DW_OP_LLVM_fragment 192 32] $r5
	.loc	1 0 23 is_stmt 0                @ ../../../../../../kernel/freertos/dpl/SystemP_freertos.c:0:23
	movs	r0, #45
	.loc	1 325 36                        @ ../../../../../../kernel/freertos/dpl/SystemP_freertos.c:325:36
	strb	r0, [r5]
.Ltmp320:
.LBB1_121:                              @   in Loop: Header=BB1_2 Depth=1
	@DEBUG_VALUE: doPrint:parse <- [DW_OP_LLVM_arg 0, DW_OP_plus_uconst 44, DW_OP_deref, DW_OP_LLVM_arg 0, DW_OP_deref, DW_OP_minus, DW_OP_stack_value, DW_OP_LLVM_fragment 96 32] $sp
	@DEBUG_VALUE: doPrint:parse <- [DW_OP_plus_uconst 8, DW_OP_LLVM_fragment 128 32] [$sp+0]
	@DEBUG_VALUE: fract <- [DW_OP_plus_uconst 32] [$sp+0]
	@DEBUG_VALUE: doPrint:parse <- [DW_OP_LLVM_fragment 192 32] $r5
	@DEBUG_VALUE: doPrint:buf <- [DW_OP_plus_uconst 32] [$sp+0]
	@DEBUG_VALUE: doPrint:parse <- [DW_OP_plus_uconst 44, DW_OP_LLVM_fragment 160 32] [$sp+0]
	@DEBUG_VALUE: doPrint:fmt <- [DW_OP_plus_uconst 76] [$sp+0]
	@DEBUG_VALUE: doPrint:n <- [DW_OP_plus_uconst 40] [$sp+0]
	@DEBUG_VALUE: doPrint:parse <- [DW_OP_plus_uconst 52, DW_OP_LLVM_fragment 64 32] [$sp+0]
	@DEBUG_VALUE: doPrint:parse <- [DW_OP_plus_uconst 56, DW_OP_LLVM_fragment 0 32] [$sp+0]
	.loc	1 0 36                          @ ../../../../../../kernel/freertos/dpl/SystemP_freertos.c:0:36
	ldr	r6, [sp, #32]                   @ 4-byte Reload
.Ltmp321:
	@DEBUG_VALUE: doPrint:buf <- $r6
	ldr	r4, [sp, #72]                   @ 4-byte Reload
	ldr	r3, [sp, #56]                   @ 4-byte Reload
.Ltmp322:
.LBB1_122:                              @   in Loop: Header=BB1_2 Depth=1
	@DEBUG_VALUE: doPrint:parse <- [DW_OP_LLVM_fragment 192 32] $r5
	@DEBUG_VALUE: doPrint:parse <- [DW_OP_plus_uconst 44, DW_OP_LLVM_fragment 160 32] [$sp+0]
	@DEBUG_VALUE: doPrint:fmt <- [DW_OP_plus_uconst 76] [$sp+0]
	@DEBUG_VALUE: doPrint:n <- [DW_OP_plus_uconst 40] [$sp+0]
	@DEBUG_VALUE: doPrint:parse <- [DW_OP_plus_uconst 52, DW_OP_LLVM_fragment 64 32] [$sp+0]
	@DEBUG_VALUE: doPrint:parse <- [DW_OP_plus_uconst 56, DW_OP_LLVM_fragment 0 32] [$sp+0]
	@DEBUG_VALUE: doPrint:buf <- $r6
	@DEBUG_VALUE: doPrint:parse <- [DW_OP_LLVM_fragment 192 32] $r5
	ldr	r0, [sp, #44]                   @ 4-byte Reload
	str	r5, [sp, #64]                   @ 4-byte Spill
.Ltmp323:
	@DEBUG_VALUE: doPrint:parse <- [DW_OP_plus_uconst 64, DW_OP_LLVM_fragment 192 32] [$sp+0]
	subs	r5, r0, r5
.Ltmp324:
	@DEBUG_VALUE: doPrint:parse <- [DW_OP_LLVM_fragment 96 32] $r5
.LBB1_123:                              @   in Loop: Header=BB1_2 Depth=1
	@DEBUG_VALUE: doPrint:parse <- [DW_OP_plus_uconst 44, DW_OP_LLVM_fragment 160 32] [$sp+0]
	@DEBUG_VALUE: doPrint:fmt <- [DW_OP_plus_uconst 76] [$sp+0]
	@DEBUG_VALUE: doPrint:n <- [DW_OP_plus_uconst 40] [$sp+0]
	@DEBUG_VALUE: doPrint:parse <- [DW_OP_plus_uconst 52, DW_OP_LLVM_fragment 64 32] [$sp+0]
	@DEBUG_VALUE: doPrint:parse <- [DW_OP_plus_uconst 56, DW_OP_LLVM_fragment 0 32] [$sp+0]
	@DEBUG_VALUE: doPrint:buf <- $r6
	ldr	r0, [sp, #48]                   @ 4-byte Reload
	adds	r0, r4, r0
.Ltmp325:
	@DEBUG_VALUE: doPrint:parse <- [DW_OP_LLVM_fragment 96 32] $r5
	@DEBUG_VALUE: doPrint:parse <- [DW_OP_plus_uconst 64, DW_OP_LLVM_fragment 192 32] [$sp+0]
	@DEBUG_VALUE: doPrint:va <- $r7
	.loc	1 338 25 is_stmt 1              @ ../../../../../../kernel/freertos/dpl/SystemP_freertos.c:338:25
	subs	r2, r3, r5
.Ltmp326:
	@DEBUG_VALUE: doPrint:parse <- [DW_OP_LLVM_fragment 0 32] $r2
	.loc	1 340 17                        @ ../../../../../../kernel/freertos/dpl/SystemP_freertos.c:340:17
	ldr	r1, [sp, #68]                   @ 4-byte Reload
	cmp	r1, #0
	str	r7, [sp, #80]                   @ 4-byte Spill
.Ltmp327:
	@DEBUG_VALUE: doPrint:va <- [DW_OP_plus_uconst 80] [$sp+0]
	beq	.LBB1_125
.Ltmp328:
@ %bb.124:                              @   in Loop: Header=BB1_2 Depth=1
	@DEBUG_VALUE: doPrint:parse <- [DW_OP_LLVM_fragment 0 32] $r2
	@DEBUG_VALUE: doPrint:parse <- [DW_OP_LLVM_fragment 96 32] $r5
	@DEBUG_VALUE: doPrint:parse <- [DW_OP_plus_uconst 64, DW_OP_LLVM_fragment 192 32] [$sp+0]
	@DEBUG_VALUE: doPrint:parse <- [DW_OP_plus_uconst 44, DW_OP_LLVM_fragment 160 32] [$sp+0]
	@DEBUG_VALUE: doPrint:fmt <- [DW_OP_plus_uconst 76] [$sp+0]
	@DEBUG_VALUE: doPrint:n <- [DW_OP_plus_uconst 40] [$sp+0]
	@DEBUG_VALUE: doPrint:parse <- [DW_OP_plus_uconst 52, DW_OP_LLVM_fragment 64 32] [$sp+0]
	@DEBUG_VALUE: doPrint:va <- [DW_OP_plus_uconst 80] [$sp+0]
	@DEBUG_VALUE: doPrint:buf <- $r6
	.loc	1 0 17 is_stmt 0                @ ../../../../../../kernel/freertos/dpl/SystemP_freertos.c:0:17
	ldr	r1, [sp, #40]                   @ 4-byte Reload
.Ltmp329:
	@DEBUG_VALUE: doPrint:n <- $r1
	b	.LBB1_139
.Ltmp330:
.LBB1_125:                              @   in Loop: Header=BB1_2 Depth=1
	@DEBUG_VALUE: doPrint:parse <- [DW_OP_LLVM_fragment 0 32] $r2
	@DEBUG_VALUE: doPrint:parse <- [DW_OP_LLVM_fragment 96 32] $r5
	@DEBUG_VALUE: doPrint:parse <- [DW_OP_plus_uconst 64, DW_OP_LLVM_fragment 192 32] [$sp+0]
	@DEBUG_VALUE: doPrint:parse <- [DW_OP_plus_uconst 44, DW_OP_LLVM_fragment 160 32] [$sp+0]
	@DEBUG_VALUE: doPrint:fmt <- [DW_OP_plus_uconst 76] [$sp+0]
	@DEBUG_VALUE: doPrint:n <- [DW_OP_plus_uconst 40] [$sp+0]
	@DEBUG_VALUE: doPrint:parse <- [DW_OP_plus_uconst 52, DW_OP_LLVM_fragment 64 32] [$sp+0]
	@DEBUG_VALUE: doPrint:va <- [DW_OP_plus_uconst 80] [$sp+0]
	@DEBUG_VALUE: doPrint:buf <- $r6
	@DEBUG_VALUE: doPrint:buf <- $r6
	@DEBUG_VALUE: doPrint:n <- [DW_OP_plus_uconst 40] [$sp+0]
	@DEBUG_VALUE: doPrint:res <- undef
	@DEBUG_VALUE: doPrint:parse <- [DW_OP_LLVM_fragment 0 32] $r2
	.loc	1 343 24 is_stmt 1              @ ../../../../../../kernel/freertos/dpl/SystemP_freertos.c:343:24
	subs	r3, r2, #1
.Ltmp331:
	@DEBUG_VALUE: doPrint:parse <- [DW_OP_LLVM_fragment 0 32] $r3
	.loc	1 0 24 is_stmt 0                @ ../../../../../../kernel/freertos/dpl/SystemP_freertos.c:0:24
	ldr	r1, [sp, #40]                   @ 4-byte Reload
.Ltmp332:
	@DEBUG_VALUE: doPrint:n <- $r1
	.loc	1 343 17                        @ ../../../../../../kernel/freertos/dpl/SystemP_freertos.c:343:17
	blt	.LBB1_128
.Ltmp333:
@ %bb.126:                              @   in Loop: Header=BB1_2 Depth=1
	@DEBUG_VALUE: doPrint:parse <- [DW_OP_LLVM_fragment 0 32] $r3
	@DEBUG_VALUE: doPrint:parse <- [DW_OP_LLVM_fragment 96 32] $r5
	@DEBUG_VALUE: doPrint:parse <- [DW_OP_plus_uconst 64, DW_OP_LLVM_fragment 192 32] [$sp+0]
	@DEBUG_VALUE: doPrint:parse <- [DW_OP_plus_uconst 44, DW_OP_LLVM_fragment 160 32] [$sp+0]
	@DEBUG_VALUE: doPrint:fmt <- [DW_OP_plus_uconst 76] [$sp+0]
	@DEBUG_VALUE: doPrint:parse <- [DW_OP_plus_uconst 52, DW_OP_LLVM_fragment 64 32] [$sp+0]
	@DEBUG_VALUE: doPrint:va <- [DW_OP_plus_uconst 80] [$sp+0]
	@DEBUG_VALUE: doPrint:buf <- $r6
	@DEBUG_VALUE: doPrint:n <- $r1
	lsls	r0, r2, #31
	bne	.LBB1_129
.Ltmp334:
@ %bb.127:                              @   in Loop: Header=BB1_2 Depth=1
	@DEBUG_VALUE: doPrint:parse <- [DW_OP_LLVM_fragment 0 32] $r3
	@DEBUG_VALUE: doPrint:parse <- [DW_OP_LLVM_fragment 96 32] $r5
	@DEBUG_VALUE: doPrint:parse <- [DW_OP_plus_uconst 64, DW_OP_LLVM_fragment 192 32] [$sp+0]
	@DEBUG_VALUE: doPrint:parse <- [DW_OP_plus_uconst 44, DW_OP_LLVM_fragment 160 32] [$sp+0]
	@DEBUG_VALUE: doPrint:fmt <- [DW_OP_plus_uconst 76] [$sp+0]
	@DEBUG_VALUE: doPrint:parse <- [DW_OP_plus_uconst 52, DW_OP_LLVM_fragment 64 32] [$sp+0]
	@DEBUG_VALUE: doPrint:va <- [DW_OP_plus_uconst 80] [$sp+0]
	@DEBUG_VALUE: doPrint:buf <- $r6
	@DEBUG_VALUE: doPrint:n <- $r1
	.loc	1 0 17                          @ ../../../../../../kernel/freertos/dpl/SystemP_freertos.c:0:17
	mov	r0, r3
	.loc	1 343 17                        @ ../../../../../../kernel/freertos/dpl/SystemP_freertos.c:343:17
	cmp	r3, #0
	bne	.LBB1_132
	b	.LBB1_138
.Ltmp335:
.LBB1_128:                              @   in Loop: Header=BB1_2 Depth=1
	@DEBUG_VALUE: doPrint:parse <- [DW_OP_LLVM_fragment 0 32] $r3
	@DEBUG_VALUE: doPrint:parse <- [DW_OP_LLVM_fragment 96 32] $r5
	@DEBUG_VALUE: doPrint:parse <- [DW_OP_plus_uconst 64, DW_OP_LLVM_fragment 192 32] [$sp+0]
	@DEBUG_VALUE: doPrint:parse <- [DW_OP_plus_uconst 44, DW_OP_LLVM_fragment 160 32] [$sp+0]
	@DEBUG_VALUE: doPrint:fmt <- [DW_OP_plus_uconst 76] [$sp+0]
	@DEBUG_VALUE: doPrint:parse <- [DW_OP_plus_uconst 52, DW_OP_LLVM_fragment 64 32] [$sp+0]
	@DEBUG_VALUE: doPrint:va <- [DW_OP_plus_uconst 80] [$sp+0]
	@DEBUG_VALUE: doPrint:buf <- $r6
	@DEBUG_VALUE: doPrint:n <- $r1
	.loc	1 0 17                          @ ../../../../../../kernel/freertos/dpl/SystemP_freertos.c:0:17
	mov	r2, r3
	b	.LBB1_139
.Ltmp336:
.LBB1_129:                              @   in Loop: Header=BB1_2 Depth=1
	@DEBUG_VALUE: doPrint:parse <- [DW_OP_LLVM_fragment 0 32] $r3
	@DEBUG_VALUE: doPrint:parse <- [DW_OP_LLVM_fragment 96 32] $r5
	@DEBUG_VALUE: doPrint:parse <- [DW_OP_plus_uconst 64, DW_OP_LLVM_fragment 192 32] [$sp+0]
	@DEBUG_VALUE: doPrint:parse <- [DW_OP_plus_uconst 44, DW_OP_LLVM_fragment 160 32] [$sp+0]
	@DEBUG_VALUE: doPrint:fmt <- [DW_OP_plus_uconst 76] [$sp+0]
	@DEBUG_VALUE: doPrint:parse <- [DW_OP_plus_uconst 52, DW_OP_LLVM_fragment 64 32] [$sp+0]
	@DEBUG_VALUE: doPrint:va <- [DW_OP_plus_uconst 80] [$sp+0]
	@DEBUG_VALUE: doPrint:buf <- $r6
	@DEBUG_VALUE: doPrint:n <- $r1
	@DEBUG_VALUE: doPrint:buf <- $r6
	@DEBUG_VALUE: doPrint:n <- $r1
	@DEBUG_VALUE: doPrint:res <- undef
	@DEBUG_VALUE: putChar:bufp <- undef
	@DEBUG_VALUE: putChar:c <- 32
	@DEBUG_VALUE: putChar:n <- undef
	.loc	1 448 9 is_stmt 1               @ ../../../../../../kernel/freertos/dpl/SystemP_freertos.c:448:9
	cmp	r1, #2
	blo	.LBB1_131
.Ltmp337:
@ %bb.130:                              @   in Loop: Header=BB1_2 Depth=1
	@DEBUG_VALUE: putChar:c <- 32
	@DEBUG_VALUE: doPrint:parse <- [DW_OP_LLVM_fragment 0 32] $r3
	@DEBUG_VALUE: doPrint:parse <- [DW_OP_LLVM_fragment 96 32] $r5
	@DEBUG_VALUE: doPrint:parse <- [DW_OP_plus_uconst 64, DW_OP_LLVM_fragment 192 32] [$sp+0]
	@DEBUG_VALUE: doPrint:parse <- [DW_OP_plus_uconst 44, DW_OP_LLVM_fragment 160 32] [$sp+0]
	@DEBUG_VALUE: doPrint:fmt <- [DW_OP_plus_uconst 76] [$sp+0]
	@DEBUG_VALUE: doPrint:parse <- [DW_OP_plus_uconst 52, DW_OP_LLVM_fragment 64 32] [$sp+0]
	@DEBUG_VALUE: doPrint:va <- [DW_OP_plus_uconst 80] [$sp+0]
	@DEBUG_VALUE: doPrint:buf <- $r6
	@DEBUG_VALUE: doPrint:n <- $r1
	.loc	1 0 9 is_stmt 0                 @ ../../../../../../kernel/freertos/dpl/SystemP_freertos.c:0:9
	movs	r0, #32
	.loc	1 455 18 is_stmt 1              @ ../../../../../../kernel/freertos/dpl/SystemP_freertos.c:455:18
	strb	r0, [r6]
	.loc	1 455 14 is_stmt 0              @ ../../../../../../kernel/freertos/dpl/SystemP_freertos.c:455:14
	adds	r6, r6, #1
.Ltmp338:
	@DEBUG_VALUE: doPrint:buf <- $r6
	.loc	1 454 9 is_stmt 1               @ ../../../../../../kernel/freertos/dpl/SystemP_freertos.c:454:9
	subs	r1, r1, #1
.Ltmp339:
	@DEBUG_VALUE: doPrint:n <- $r1
.LBB1_131:                              @   in Loop: Header=BB1_2 Depth=1
	@DEBUG_VALUE: doPrint:parse <- [DW_OP_LLVM_fragment 0 32] $r3
	@DEBUG_VALUE: doPrint:parse <- [DW_OP_LLVM_fragment 96 32] $r5
	@DEBUG_VALUE: doPrint:parse <- [DW_OP_plus_uconst 64, DW_OP_LLVM_fragment 192 32] [$sp+0]
	@DEBUG_VALUE: doPrint:parse <- [DW_OP_plus_uconst 44, DW_OP_LLVM_fragment 160 32] [$sp+0]
	@DEBUG_VALUE: doPrint:fmt <- [DW_OP_plus_uconst 76] [$sp+0]
	@DEBUG_VALUE: doPrint:parse <- [DW_OP_plus_uconst 52, DW_OP_LLVM_fragment 64 32] [$sp+0]
	@DEBUG_VALUE: doPrint:va <- [DW_OP_plus_uconst 80] [$sp+0]
	@DEBUG_VALUE: doPrint:buf <- $r6
	@DEBUG_VALUE: doPrint:n <- $r1
	@DEBUG_VALUE: doPrint:buf <- $r6
	@DEBUG_VALUE: doPrint:n <- $r1
	@DEBUG_VALUE: doPrint:res <- undef
	@DEBUG_VALUE: doPrint:parse <- [DW_OP_LLVM_fragment 0 32] $r3
	.loc	1 343 24                        @ ../../../../../../kernel/freertos/dpl/SystemP_freertos.c:343:24
	subs	r0, r2, #2
.Ltmp340:
	@DEBUG_VALUE: doPrint:parse <- [DW_OP_LLVM_fragment 0 32] $r0
	.loc	1 343 17 is_stmt 0              @ ../../../../../../kernel/freertos/dpl/SystemP_freertos.c:343:17
	cmp	r3, #0
	beq	.LBB1_138
.Ltmp341:
.LBB1_132:                              @   in Loop: Header=BB1_2 Depth=1
	@DEBUG_VALUE: doPrint:parse <- [DW_OP_LLVM_fragment 96 32] $r5
	@DEBUG_VALUE: doPrint:parse <- [DW_OP_plus_uconst 64, DW_OP_LLVM_fragment 192 32] [$sp+0]
	@DEBUG_VALUE: doPrint:parse <- [DW_OP_plus_uconst 44, DW_OP_LLVM_fragment 160 32] [$sp+0]
	@DEBUG_VALUE: doPrint:fmt <- [DW_OP_plus_uconst 76] [$sp+0]
	@DEBUG_VALUE: doPrint:parse <- [DW_OP_plus_uconst 52, DW_OP_LLVM_fragment 64 32] [$sp+0]
	@DEBUG_VALUE: doPrint:va <- [DW_OP_plus_uconst 80] [$sp+0]
	@DEBUG_VALUE: doPrint:buf <- $r6
	@DEBUG_VALUE: doPrint:n <- $r1
	adds	r0, r0, #2
	b	.LBB1_134
.Ltmp342:
.LBB1_133:                              @   in Loop: Header=BB1_134 Depth=2
	@DEBUG_VALUE: doPrint:parse <- [DW_OP_constu 1, DW_OP_minus, DW_OP_stack_value, DW_OP_LLVM_fragment 0 32] $r0
	@DEBUG_VALUE: doPrint:parse <- [DW_OP_LLVM_fragment 96 32] $r5
	@DEBUG_VALUE: doPrint:parse <- [DW_OP_plus_uconst 64, DW_OP_LLVM_fragment 192 32] [$sp+0]
	@DEBUG_VALUE: doPrint:parse <- [DW_OP_plus_uconst 44, DW_OP_LLVM_fragment 160 32] [$sp+0]
	@DEBUG_VALUE: doPrint:fmt <- [DW_OP_plus_uconst 76] [$sp+0]
	@DEBUG_VALUE: doPrint:parse <- [DW_OP_plus_uconst 52, DW_OP_LLVM_fragment 64 32] [$sp+0]
	@DEBUG_VALUE: doPrint:va <- [DW_OP_plus_uconst 80] [$sp+0]
	@DEBUG_VALUE: doPrint:buf <- $r6
	@DEBUG_VALUE: doPrint:n <- $r1
	@DEBUG_VALUE: doPrint:buf <- $r6
	@DEBUG_VALUE: doPrint:n <- $r1
	@DEBUG_VALUE: doPrint:res <- undef
	@DEBUG_VALUE: doPrint:parse <- [DW_OP_LLVM_fragment 0 32] $r0
	.loc	1 343 38                        @ ../../../../../../kernel/freertos/dpl/SystemP_freertos.c:343:38
	subs	r0, r0, #2
.Ltmp343:
	.loc	1 343 17                        @ ../../../../../../kernel/freertos/dpl/SystemP_freertos.c:343:17
	cmp	r0, #1
	ble	.LBB1_138
.Ltmp344:
.LBB1_134:                              @   Parent Loop BB1_2 Depth=1
                                        @ =>  This Inner Loop Header: Depth=2
	@DEBUG_VALUE: doPrint:parse <- [DW_OP_LLVM_fragment 96 32] $r5
	@DEBUG_VALUE: doPrint:parse <- [DW_OP_plus_uconst 64, DW_OP_LLVM_fragment 192 32] [$sp+0]
	@DEBUG_VALUE: doPrint:parse <- [DW_OP_plus_uconst 44, DW_OP_LLVM_fragment 160 32] [$sp+0]
	@DEBUG_VALUE: doPrint:fmt <- [DW_OP_plus_uconst 76] [$sp+0]
	@DEBUG_VALUE: doPrint:parse <- [DW_OP_plus_uconst 52, DW_OP_LLVM_fragment 64 32] [$sp+0]
	@DEBUG_VALUE: doPrint:va <- [DW_OP_plus_uconst 80] [$sp+0]
	@DEBUG_VALUE: doPrint:buf <- $r6
	@DEBUG_VALUE: doPrint:n <- $r1
	@DEBUG_VALUE: doPrint:buf <- $r6
	@DEBUG_VALUE: doPrint:n <- $r1
	@DEBUG_VALUE: doPrint:res <- undef
	@DEBUG_VALUE: putChar:bufp <- undef
	@DEBUG_VALUE: putChar:c <- 32
	@DEBUG_VALUE: putChar:n <- undef
	.loc	1 448 9 is_stmt 1               @ ../../../../../../kernel/freertos/dpl/SystemP_freertos.c:448:9
	cmp	r1, #2
	blo	.LBB1_136
.Ltmp345:
@ %bb.135:                              @   in Loop: Header=BB1_134 Depth=2
	@DEBUG_VALUE: putChar:c <- 32
	@DEBUG_VALUE: doPrint:parse <- [DW_OP_LLVM_fragment 96 32] $r5
	@DEBUG_VALUE: doPrint:parse <- [DW_OP_plus_uconst 64, DW_OP_LLVM_fragment 192 32] [$sp+0]
	@DEBUG_VALUE: doPrint:parse <- [DW_OP_plus_uconst 44, DW_OP_LLVM_fragment 160 32] [$sp+0]
	@DEBUG_VALUE: doPrint:fmt <- [DW_OP_plus_uconst 76] [$sp+0]
	@DEBUG_VALUE: doPrint:parse <- [DW_OP_plus_uconst 52, DW_OP_LLVM_fragment 64 32] [$sp+0]
	@DEBUG_VALUE: doPrint:va <- [DW_OP_plus_uconst 80] [$sp+0]
	@DEBUG_VALUE: doPrint:buf <- $r6
	@DEBUG_VALUE: doPrint:n <- $r1
	.loc	1 0 9 is_stmt 0                 @ ../../../../../../kernel/freertos/dpl/SystemP_freertos.c:0:9
	movs	r3, #32
	.loc	1 455 18 is_stmt 1              @ ../../../../../../kernel/freertos/dpl/SystemP_freertos.c:455:18
	strb	r3, [r6]
	.loc	1 455 14 is_stmt 0              @ ../../../../../../kernel/freertos/dpl/SystemP_freertos.c:455:14
	adds	r6, r6, #1
.Ltmp346:
	@DEBUG_VALUE: doPrint:buf <- $r6
	.loc	1 454 9 is_stmt 1               @ ../../../../../../kernel/freertos/dpl/SystemP_freertos.c:454:9
	subs	r1, r1, #1
.Ltmp347:
	@DEBUG_VALUE: doPrint:n <- $r1
.LBB1_136:                              @   in Loop: Header=BB1_134 Depth=2
	@DEBUG_VALUE: putChar:c <- 32
	@DEBUG_VALUE: doPrint:parse <- [DW_OP_LLVM_fragment 96 32] $r5
	@DEBUG_VALUE: doPrint:parse <- [DW_OP_plus_uconst 64, DW_OP_LLVM_fragment 192 32] [$sp+0]
	@DEBUG_VALUE: doPrint:parse <- [DW_OP_plus_uconst 44, DW_OP_LLVM_fragment 160 32] [$sp+0]
	@DEBUG_VALUE: doPrint:fmt <- [DW_OP_plus_uconst 76] [$sp+0]
	@DEBUG_VALUE: doPrint:parse <- [DW_OP_plus_uconst 52, DW_OP_LLVM_fragment 64 32] [$sp+0]
	@DEBUG_VALUE: doPrint:va <- [DW_OP_plus_uconst 80] [$sp+0]
	@DEBUG_VALUE: doPrint:buf <- $r6
	@DEBUG_VALUE: doPrint:n <- $r1
	@DEBUG_VALUE: doPrint:buf <- $r6
	@DEBUG_VALUE: doPrint:n <- $r1
	@DEBUG_VALUE: doPrint:res <- undef
	@DEBUG_VALUE: doPrint:parse <- [DW_OP_constu 1, DW_OP_minus, DW_OP_stack_value, DW_OP_LLVM_fragment 0 32] $r0
	@DEBUG_VALUE: putChar:bufp <- undef
	@DEBUG_VALUE: putChar:c <- 32
	@DEBUG_VALUE: putChar:n <- undef
	.loc	1 448 9                         @ ../../../../../../kernel/freertos/dpl/SystemP_freertos.c:448:9
	cmp	r1, #2
	blo	.LBB1_133
.Ltmp348:
@ %bb.137:                              @   in Loop: Header=BB1_134 Depth=2
	@DEBUG_VALUE: doPrint:parse <- [DW_OP_constu 1, DW_OP_minus, DW_OP_stack_value, DW_OP_LLVM_fragment 0 32] $r0
	@DEBUG_VALUE: putChar:c <- 32
	@DEBUG_VALUE: doPrint:parse <- [DW_OP_LLVM_fragment 96 32] $r5
	@DEBUG_VALUE: doPrint:parse <- [DW_OP_plus_uconst 64, DW_OP_LLVM_fragment 192 32] [$sp+0]
	@DEBUG_VALUE: doPrint:parse <- [DW_OP_plus_uconst 44, DW_OP_LLVM_fragment 160 32] [$sp+0]
	@DEBUG_VALUE: doPrint:fmt <- [DW_OP_plus_uconst 76] [$sp+0]
	@DEBUG_VALUE: doPrint:parse <- [DW_OP_plus_uconst 52, DW_OP_LLVM_fragment 64 32] [$sp+0]
	@DEBUG_VALUE: doPrint:va <- [DW_OP_plus_uconst 80] [$sp+0]
	@DEBUG_VALUE: doPrint:buf <- $r6
	@DEBUG_VALUE: doPrint:n <- $r1
	.loc	1 0 9 is_stmt 0                 @ ../../../../../../kernel/freertos/dpl/SystemP_freertos.c:0:9
	movs	r3, #32
	.loc	1 455 18 is_stmt 1              @ ../../../../../../kernel/freertos/dpl/SystemP_freertos.c:455:18
	strb	r3, [r6]
	.loc	1 455 14 is_stmt 0              @ ../../../../../../kernel/freertos/dpl/SystemP_freertos.c:455:14
	adds	r6, r6, #1
.Ltmp349:
	@DEBUG_VALUE: doPrint:buf <- $r6
	.loc	1 454 9 is_stmt 1               @ ../../../../../../kernel/freertos/dpl/SystemP_freertos.c:454:9
	subs	r1, r1, #1
.Ltmp350:
	@DEBUG_VALUE: doPrint:n <- $r1
	.loc	1 0 9 is_stmt 0                 @ ../../../../../../kernel/freertos/dpl/SystemP_freertos.c:0:9
	b	.LBB1_133
.Ltmp351:
.LBB1_138:                              @   in Loop: Header=BB1_2 Depth=1
	@DEBUG_VALUE: doPrint:parse <- [DW_OP_LLVM_fragment 96 32] $r5
	@DEBUG_VALUE: doPrint:parse <- [DW_OP_plus_uconst 64, DW_OP_LLVM_fragment 192 32] [$sp+0]
	@DEBUG_VALUE: doPrint:parse <- [DW_OP_plus_uconst 44, DW_OP_LLVM_fragment 160 32] [$sp+0]
	@DEBUG_VALUE: doPrint:fmt <- [DW_OP_plus_uconst 76] [$sp+0]
	@DEBUG_VALUE: doPrint:parse <- [DW_OP_plus_uconst 52, DW_OP_LLVM_fragment 64 32] [$sp+0]
	@DEBUG_VALUE: doPrint:va <- [DW_OP_plus_uconst 80] [$sp+0]
	@DEBUG_VALUE: doPrint:buf <- $r6
	@DEBUG_VALUE: doPrint:n <- $r1
	.loc	1 351 13 is_stmt 1              @ ../../../../../../kernel/freertos/dpl/SystemP_freertos.c:351:13
	adds	r0, r4, r2
	ldr	r2, [sp, #48]                   @ 4-byte Reload
	adds	r0, r0, r2
	ldr	r2, [sp, #36]                   @ 4-byte Reload
.Ltmp352:
.LBB1_139:                              @   in Loop: Header=BB1_2 Depth=1
	@DEBUG_VALUE: doPrint:parse <- [DW_OP_LLVM_fragment 96 32] $r5
	@DEBUG_VALUE: doPrint:parse <- [DW_OP_plus_uconst 64, DW_OP_LLVM_fragment 192 32] [$sp+0]
	@DEBUG_VALUE: doPrint:parse <- [DW_OP_plus_uconst 44, DW_OP_LLVM_fragment 160 32] [$sp+0]
	@DEBUG_VALUE: doPrint:fmt <- [DW_OP_plus_uconst 76] [$sp+0]
	@DEBUG_VALUE: doPrint:parse <- [DW_OP_plus_uconst 52, DW_OP_LLVM_fragment 64 32] [$sp+0]
	@DEBUG_VALUE: doPrint:va <- [DW_OP_plus_uconst 80] [$sp+0]
	@DEBUG_VALUE: doPrint:buf <- $r6
	@DEBUG_VALUE: doPrint:n <- $r1
	@DEBUG_VALUE: doPrint:buf <- $r6
	@DEBUG_VALUE: doPrint:n <- $r1
	@DEBUG_VALUE: doPrint:res <- $r0
	@DEBUG_VALUE: doPrint:parse <- [DW_OP_LLVM_fragment 0 32] $r2
	@DEBUG_VALUE: doPrint:parse <- [DW_OP_plus_uconst 64, DW_OP_LLVM_fragment 192 32] [$sp+0]
	@DEBUG_VALUE: doPrint:parse <- [DW_OP_constu 1, DW_OP_minus, DW_OP_stack_value, DW_OP_LLVM_fragment 96 32] $r5
	cmp	r5, #0
	mov	r7, r2
.Ltmp353:
	@DEBUG_VALUE: doPrint:parse <- [DW_OP_LLVM_fragment 0 32] $r7
	.loc	1 0 13 is_stmt 0                @ ../../../../../../kernel/freertos/dpl/SystemP_freertos.c:0:13
	beq	.LBB1_142
.Ltmp354:
@ %bb.140:                              @   in Loop: Header=BB1_2 Depth=1
	@DEBUG_VALUE: doPrint:parse <- [DW_OP_LLVM_fragment 0 32] $r7
	@DEBUG_VALUE: doPrint:parse <- [DW_OP_constu 1, DW_OP_minus, DW_OP_stack_value, DW_OP_LLVM_fragment 96 32] $r5
	@DEBUG_VALUE: doPrint:res <- $r0
	@DEBUG_VALUE: doPrint:parse <- [DW_OP_plus_uconst 64, DW_OP_LLVM_fragment 192 32] [$sp+0]
	@DEBUG_VALUE: doPrint:parse <- [DW_OP_plus_uconst 44, DW_OP_LLVM_fragment 160 32] [$sp+0]
	@DEBUG_VALUE: doPrint:fmt <- [DW_OP_plus_uconst 76] [$sp+0]
	@DEBUG_VALUE: doPrint:parse <- [DW_OP_plus_uconst 52, DW_OP_LLVM_fragment 64 32] [$sp+0]
	@DEBUG_VALUE: doPrint:va <- [DW_OP_plus_uconst 80] [$sp+0]
	@DEBUG_VALUE: doPrint:buf <- $r6
	@DEBUG_VALUE: doPrint:n <- $r1
	.loc	1 351 13                        @ ../../../../../../kernel/freertos/dpl/SystemP_freertos.c:351:13
	lsls	r2, r5, #31
	bne	.LBB1_144
.Ltmp355:
@ %bb.141:                              @   in Loop: Header=BB1_2 Depth=1
	@DEBUG_VALUE: doPrint:parse <- [DW_OP_LLVM_fragment 0 32] $r7
	@DEBUG_VALUE: doPrint:parse <- [DW_OP_constu 1, DW_OP_minus, DW_OP_stack_value, DW_OP_LLVM_fragment 96 32] $r5
	@DEBUG_VALUE: doPrint:res <- $r0
	@DEBUG_VALUE: doPrint:parse <- [DW_OP_plus_uconst 64, DW_OP_LLVM_fragment 192 32] [$sp+0]
	@DEBUG_VALUE: doPrint:parse <- [DW_OP_plus_uconst 44, DW_OP_LLVM_fragment 160 32] [$sp+0]
	@DEBUG_VALUE: doPrint:fmt <- [DW_OP_plus_uconst 76] [$sp+0]
	@DEBUG_VALUE: doPrint:parse <- [DW_OP_plus_uconst 52, DW_OP_LLVM_fragment 64 32] [$sp+0]
	@DEBUG_VALUE: doPrint:va <- [DW_OP_plus_uconst 80] [$sp+0]
	@DEBUG_VALUE: doPrint:buf <- $r6
	@DEBUG_VALUE: doPrint:n <- $r1
	.loc	1 0 13                          @ ../../../../../../kernel/freertos/dpl/SystemP_freertos.c:0:13
	ldr	r2, [sp, #64]                   @ 4-byte Reload
	mov	r3, r5
	b	.LBB1_146
.Ltmp356:
.LBB1_142:                              @   in Loop: Header=BB1_2 Depth=1
	@DEBUG_VALUE: doPrint:parse <- [DW_OP_LLVM_fragment 0 32] $r7
	@DEBUG_VALUE: doPrint:parse <- [DW_OP_constu 1, DW_OP_minus, DW_OP_stack_value, DW_OP_LLVM_fragment 96 32] $r5
	@DEBUG_VALUE: doPrint:res <- $r0
	@DEBUG_VALUE: doPrint:parse <- [DW_OP_plus_uconst 64, DW_OP_LLVM_fragment 192 32] [$sp+0]
	@DEBUG_VALUE: doPrint:parse <- [DW_OP_plus_uconst 44, DW_OP_LLVM_fragment 160 32] [$sp+0]
	@DEBUG_VALUE: doPrint:fmt <- [DW_OP_plus_uconst 76] [$sp+0]
	@DEBUG_VALUE: doPrint:parse <- [DW_OP_plus_uconst 52, DW_OP_LLVM_fragment 64 32] [$sp+0]
	@DEBUG_VALUE: doPrint:va <- [DW_OP_plus_uconst 80] [$sp+0]
	@DEBUG_VALUE: doPrint:buf <- $r6
	@DEBUG_VALUE: doPrint:n <- $r1
	mov	r4, r0
	cmp	r2, #0
	ble	.LBB1_148
.Ltmp357:
.LBB1_143:                              @   in Loop: Header=BB1_2 Depth=1
	@DEBUG_VALUE: doPrint:parse <- [DW_OP_LLVM_fragment 0 32] $r7
	@DEBUG_VALUE: doPrint:parse <- [DW_OP_plus_uconst 44, DW_OP_LLVM_fragment 160 32] [$sp+0]
	@DEBUG_VALUE: doPrint:fmt <- [DW_OP_plus_uconst 76] [$sp+0]
	@DEBUG_VALUE: doPrint:parse <- [DW_OP_plus_uconst 52, DW_OP_LLVM_fragment 64 32] [$sp+0]
	@DEBUG_VALUE: doPrint:va <- [DW_OP_plus_uconst 80] [$sp+0]
	@DEBUG_VALUE: doPrint:buf <- $r6
	@DEBUG_VALUE: doPrint:n <- $r1
	movs	r2, #1
	b	.LBB1_149
.Ltmp358:
.LBB1_144:                              @   in Loop: Header=BB1_2 Depth=1
	@DEBUG_VALUE: doPrint:parse <- [DW_OP_LLVM_fragment 0 32] $r7
	@DEBUG_VALUE: doPrint:parse <- [DW_OP_constu 1, DW_OP_minus, DW_OP_stack_value, DW_OP_LLVM_fragment 96 32] $r5
	@DEBUG_VALUE: doPrint:res <- $r0
	@DEBUG_VALUE: doPrint:parse <- [DW_OP_plus_uconst 64, DW_OP_LLVM_fragment 192 32] [$sp+0]
	@DEBUG_VALUE: doPrint:parse <- [DW_OP_plus_uconst 44, DW_OP_LLVM_fragment 160 32] [$sp+0]
	@DEBUG_VALUE: doPrint:fmt <- [DW_OP_plus_uconst 76] [$sp+0]
	@DEBUG_VALUE: doPrint:parse <- [DW_OP_plus_uconst 52, DW_OP_LLVM_fragment 64 32] [$sp+0]
	@DEBUG_VALUE: doPrint:va <- [DW_OP_plus_uconst 80] [$sp+0]
	@DEBUG_VALUE: doPrint:buf <- $r6
	@DEBUG_VALUE: doPrint:n <- $r1
	@DEBUG_VALUE: doPrint:buf <- $r6
	@DEBUG_VALUE: doPrint:n <- $r1
	@DEBUG_VALUE: doPrint:res <- undef
	@DEBUG_VALUE: doPrint:parse <- [DW_OP_plus_uconst 64, DW_OP_LLVM_fragment 192 32] [$sp+0]
	@DEBUG_VALUE: doPrint:parse <- [DW_OP_constu 1, DW_OP_minus, DW_OP_stack_value, DW_OP_LLVM_fragment 96 32] $r5
	ldr	r4, [sp, #64]                   @ 4-byte Reload
.Ltmp359:
	@DEBUG_VALUE: doPrint:parse <- [DW_OP_LLVM_fragment 192 32] $r4
	.loc	1 353 41 is_stmt 1              @ ../../../../../../kernel/freertos/dpl/SystemP_freertos.c:353:41
	adds	r2, r4, #1
.Ltmp360:
	@DEBUG_VALUE: doPrint:parse <- [DW_OP_LLVM_fragment 192 32] $r2
	.loc	1 351 29                        @ ../../../../../../kernel/freertos/dpl/SystemP_freertos.c:351:29
	subs	r3, r5, #1
.Ltmp361:
	@DEBUG_VALUE: putChar:n <- undef
	@DEBUG_VALUE: putChar:c <- undef
	@DEBUG_VALUE: putChar:bufp <- undef
	@DEBUG_VALUE: doPrint:parse <- [DW_OP_LLVM_fragment 96 32] $r3
	.loc	1 448 9                         @ ../../../../../../kernel/freertos/dpl/SystemP_freertos.c:448:9
	cmp	r1, #2
	blo	.LBB1_146
.Ltmp362:
@ %bb.145:                              @   in Loop: Header=BB1_2 Depth=1
	@DEBUG_VALUE: doPrint:parse <- [DW_OP_LLVM_fragment 96 32] $r3
	@DEBUG_VALUE: doPrint:parse <- [DW_OP_LLVM_fragment 192 32] $r2
	@DEBUG_VALUE: doPrint:parse <- [DW_OP_LLVM_fragment 0 32] $r7
	@DEBUG_VALUE: doPrint:parse <- [DW_OP_plus_uconst 44, DW_OP_LLVM_fragment 160 32] [$sp+0]
	@DEBUG_VALUE: doPrint:fmt <- [DW_OP_plus_uconst 76] [$sp+0]
	@DEBUG_VALUE: doPrint:parse <- [DW_OP_plus_uconst 52, DW_OP_LLVM_fragment 64 32] [$sp+0]
	@DEBUG_VALUE: doPrint:va <- [DW_OP_plus_uconst 80] [$sp+0]
	@DEBUG_VALUE: doPrint:buf <- $r6
	@DEBUG_VALUE: doPrint:n <- $r1
	.loc	1 353 31                        @ ../../../../../../kernel/freertos/dpl/SystemP_freertos.c:353:31
	ldrb	r4, [r4]
.Ltmp363:
	@DEBUG_VALUE: putChar:c <- $r4
	.loc	1 455 18                        @ ../../../../../../kernel/freertos/dpl/SystemP_freertos.c:455:18
	strb	r4, [r6]
	.loc	1 455 14 is_stmt 0              @ ../../../../../../kernel/freertos/dpl/SystemP_freertos.c:455:14
	adds	r6, r6, #1
.Ltmp364:
	@DEBUG_VALUE: doPrint:buf <- $r6
	.loc	1 454 9 is_stmt 1               @ ../../../../../../kernel/freertos/dpl/SystemP_freertos.c:454:9
	subs	r1, r1, #1
.Ltmp365:
	@DEBUG_VALUE: doPrint:n <- $r1
.LBB1_146:                              @   in Loop: Header=BB1_2 Depth=1
	@DEBUG_VALUE: doPrint:parse <- [DW_OP_LLVM_fragment 0 32] $r7
	@DEBUG_VALUE: doPrint:parse <- [DW_OP_plus_uconst 44, DW_OP_LLVM_fragment 160 32] [$sp+0]
	@DEBUG_VALUE: doPrint:fmt <- [DW_OP_plus_uconst 76] [$sp+0]
	@DEBUG_VALUE: doPrint:parse <- [DW_OP_plus_uconst 52, DW_OP_LLVM_fragment 64 32] [$sp+0]
	@DEBUG_VALUE: doPrint:va <- [DW_OP_plus_uconst 80] [$sp+0]
	@DEBUG_VALUE: doPrint:buf <- $r6
	@DEBUG_VALUE: doPrint:n <- $r1
	.loc	1 351 13                        @ ../../../../../../kernel/freertos/dpl/SystemP_freertos.c:351:13
	cmp	r5, #1
	bne	.LBB1_153
.Ltmp366:
.LBB1_147:                              @   in Loop: Header=BB1_2 Depth=1
	@DEBUG_VALUE: doPrint:parse <- [DW_OP_LLVM_fragment 0 32] $r7
	@DEBUG_VALUE: doPrint:parse <- [DW_OP_plus_uconst 44, DW_OP_LLVM_fragment 160 32] [$sp+0]
	@DEBUG_VALUE: doPrint:fmt <- [DW_OP_plus_uconst 76] [$sp+0]
	@DEBUG_VALUE: doPrint:parse <- [DW_OP_plus_uconst 52, DW_OP_LLVM_fragment 64 32] [$sp+0]
	@DEBUG_VALUE: doPrint:va <- [DW_OP_plus_uconst 80] [$sp+0]
	@DEBUG_VALUE: doPrint:buf <- $r6
	@DEBUG_VALUE: doPrint:n <- $r1
	adds	r4, r5, r0
	mov	r2, r7
	cmp	r2, #0
	bgt	.LBB1_143
.Ltmp367:
.LBB1_148:                              @   in Loop: Header=BB1_2 Depth=1
	@DEBUG_VALUE: doPrint:parse <- [DW_OP_LLVM_fragment 0 32] $r7
	@DEBUG_VALUE: doPrint:parse <- [DW_OP_plus_uconst 44, DW_OP_LLVM_fragment 160 32] [$sp+0]
	@DEBUG_VALUE: doPrint:fmt <- [DW_OP_plus_uconst 76] [$sp+0]
	@DEBUG_VALUE: doPrint:parse <- [DW_OP_plus_uconst 52, DW_OP_LLVM_fragment 64 32] [$sp+0]
	@DEBUG_VALUE: doPrint:va <- [DW_OP_plus_uconst 80] [$sp+0]
	@DEBUG_VALUE: doPrint:buf <- $r6
	@DEBUG_VALUE: doPrint:n <- $r1
	.loc	1 0 13 is_stmt 0                @ ../../../../../../kernel/freertos/dpl/SystemP_freertos.c:0:13
	movs	r2, #0
.Ltmp368:
.LBB1_149:                              @   in Loop: Header=BB1_2 Depth=1
	@DEBUG_VALUE: doPrint:parse <- [DW_OP_LLVM_fragment 0 32] $r7
	@DEBUG_VALUE: doPrint:parse <- [DW_OP_plus_uconst 44, DW_OP_LLVM_fragment 160 32] [$sp+0]
	@DEBUG_VALUE: doPrint:fmt <- [DW_OP_plus_uconst 76] [$sp+0]
	@DEBUG_VALUE: doPrint:parse <- [DW_OP_plus_uconst 52, DW_OP_LLVM_fragment 64 32] [$sp+0]
	@DEBUG_VALUE: doPrint:va <- [DW_OP_plus_uconst 80] [$sp+0]
	@DEBUG_VALUE: doPrint:buf <- $r6
	@DEBUG_VALUE: doPrint:n <- $r1
	ldr	r3, [sp, #68]                   @ 4-byte Reload
	.loc	1 357 17 is_stmt 1              @ ../../../../../../kernel/freertos/dpl/SystemP_freertos.c:357:17
	ands	r3, r2
.Ltmp369:
	@DEBUG_VALUE: doPrint:parse <- [DW_OP_constu 1, DW_OP_minus, DW_OP_stack_value, DW_OP_LLVM_fragment 0 32] $r7
	@DEBUG_VALUE: doPrint:res <- $r4
	@DEBUG_VALUE: doPrint:n <- $r1
	@DEBUG_VALUE: doPrint:buf <- $r6
	cmp	r3, #1
	beq	.LBB1_150
	b	.LBB1_2
.Ltmp370:
.LBB1_150:                              @   in Loop: Header=BB1_2 Depth=1
	@DEBUG_VALUE: doPrint:res <- $r4
	@DEBUG_VALUE: doPrint:parse <- [DW_OP_constu 1, DW_OP_minus, DW_OP_stack_value, DW_OP_LLVM_fragment 0 32] $r7
	@DEBUG_VALUE: doPrint:parse <- [DW_OP_plus_uconst 44, DW_OP_LLVM_fragment 160 32] [$sp+0]
	@DEBUG_VALUE: doPrint:fmt <- [DW_OP_plus_uconst 76] [$sp+0]
	@DEBUG_VALUE: doPrint:parse <- [DW_OP_plus_uconst 52, DW_OP_LLVM_fragment 64 32] [$sp+0]
	@DEBUG_VALUE: doPrint:va <- [DW_OP_plus_uconst 80] [$sp+0]
	@DEBUG_VALUE: doPrint:buf <- $r6
	@DEBUG_VALUE: doPrint:n <- $r1
	.loc	1 0 17 is_stmt 0                @ ../../../../../../kernel/freertos/dpl/SystemP_freertos.c:0:17
	mov	r3, r7
.Ltmp371:
	.loc	1 359 17 is_stmt 1              @ ../../../../../../kernel/freertos/dpl/SystemP_freertos.c:359:17
	lsls	r2, r7, #31
	bne	.LBB1_157
.Ltmp372:
@ %bb.151:                              @   in Loop: Header=BB1_2 Depth=1
	@DEBUG_VALUE: doPrint:res <- $r4
	@DEBUG_VALUE: doPrint:parse <- [DW_OP_constu 1, DW_OP_minus, DW_OP_stack_value, DW_OP_LLVM_fragment 0 32] $r7
	@DEBUG_VALUE: doPrint:parse <- [DW_OP_plus_uconst 44, DW_OP_LLVM_fragment 160 32] [$sp+0]
	@DEBUG_VALUE: doPrint:fmt <- [DW_OP_plus_uconst 76] [$sp+0]
	@DEBUG_VALUE: doPrint:parse <- [DW_OP_plus_uconst 52, DW_OP_LLVM_fragment 64 32] [$sp+0]
	@DEBUG_VALUE: doPrint:va <- [DW_OP_plus_uconst 80] [$sp+0]
	@DEBUG_VALUE: doPrint:buf <- $r6
	@DEBUG_VALUE: doPrint:n <- $r1
	.loc	1 0 17 is_stmt 0                @ ../../../../../../kernel/freertos/dpl/SystemP_freertos.c:0:17
	mov	r2, r3
	.loc	1 359 17                        @ ../../../../../../kernel/freertos/dpl/SystemP_freertos.c:359:17
	cmp	r3, #1
	beq	.LBB1_160
	b	.LBB1_161
.Ltmp373:
.LBB1_152:                              @   in Loop: Header=BB1_153 Depth=2
	@DEBUG_VALUE: doPrint:parse <- [DW_OP_LLVM_fragment 0 32] $r7
	@DEBUG_VALUE: doPrint:parse <- [DW_OP_plus_uconst 44, DW_OP_LLVM_fragment 160 32] [$sp+0]
	@DEBUG_VALUE: doPrint:fmt <- [DW_OP_plus_uconst 76] [$sp+0]
	@DEBUG_VALUE: doPrint:parse <- [DW_OP_plus_uconst 52, DW_OP_LLVM_fragment 64 32] [$sp+0]
	@DEBUG_VALUE: doPrint:va <- [DW_OP_plus_uconst 80] [$sp+0]
	@DEBUG_VALUE: doPrint:buf <- $r6
	@DEBUG_VALUE: doPrint:n <- $r1
	.loc	1 0 0                           @ ../../../../../../kernel/freertos/dpl/SystemP_freertos.c:0:0
	adds	r2, r2, #2
.Ltmp374:
	@DEBUG_VALUE: doPrint:parse <- [DW_OP_LLVM_fragment 192 32] $r2
	subs	r3, r3, #2
.Ltmp375:
	@DEBUG_VALUE: doPrint:parse <- [DW_OP_constu 1, DW_OP_minus, DW_OP_stack_value, DW_OP_LLVM_fragment 96 32] $r3
	@DEBUG_VALUE: doPrint:res <- undef
	@DEBUG_VALUE: doPrint:n <- $r1
	@DEBUG_VALUE: doPrint:buf <- $r6
	.loc	1 351 13 is_stmt 1              @ ../../../../../../kernel/freertos/dpl/SystemP_freertos.c:351:13
	beq	.LBB1_147
.Ltmp376:
.LBB1_153:                              @   Parent Loop BB1_2 Depth=1
                                        @ =>  This Inner Loop Header: Depth=2
	@DEBUG_VALUE: doPrint:parse <- [DW_OP_LLVM_fragment 0 32] $r7
	@DEBUG_VALUE: doPrint:parse <- [DW_OP_plus_uconst 44, DW_OP_LLVM_fragment 160 32] [$sp+0]
	@DEBUG_VALUE: doPrint:fmt <- [DW_OP_plus_uconst 76] [$sp+0]
	@DEBUG_VALUE: doPrint:parse <- [DW_OP_plus_uconst 52, DW_OP_LLVM_fragment 64 32] [$sp+0]
	@DEBUG_VALUE: doPrint:va <- [DW_OP_plus_uconst 80] [$sp+0]
	@DEBUG_VALUE: doPrint:buf <- $r6
	@DEBUG_VALUE: doPrint:n <- $r1
	@DEBUG_VALUE: doPrint:buf <- $r6
	@DEBUG_VALUE: doPrint:n <- $r1
	@DEBUG_VALUE: doPrint:res <- undef
	@DEBUG_VALUE: doPrint:parse <- [DW_OP_plus_uconst 1, DW_OP_stack_value, DW_OP_LLVM_fragment 192 32] $r2
	@DEBUG_VALUE: doPrint:parse <- [DW_OP_constu 1, DW_OP_minus, DW_OP_stack_value, DW_OP_LLVM_fragment 96 32] $r3
	@DEBUG_VALUE: putChar:bufp <- undef
	@DEBUG_VALUE: putChar:c <- undef
	@DEBUG_VALUE: putChar:n <- undef
	.loc	1 448 9                         @ ../../../../../../kernel/freertos/dpl/SystemP_freertos.c:448:9
	cmp	r1, #2
	blo	.LBB1_155
.Ltmp377:
@ %bb.154:                              @   in Loop: Header=BB1_153 Depth=2
	@DEBUG_VALUE: doPrint:parse <- [DW_OP_constu 1, DW_OP_minus, DW_OP_stack_value, DW_OP_LLVM_fragment 96 32] $r3
	@DEBUG_VALUE: doPrint:parse <- [DW_OP_plus_uconst 1, DW_OP_stack_value, DW_OP_LLVM_fragment 192 32] $r2
	@DEBUG_VALUE: doPrint:parse <- [DW_OP_LLVM_fragment 0 32] $r7
	@DEBUG_VALUE: doPrint:parse <- [DW_OP_plus_uconst 44, DW_OP_LLVM_fragment 160 32] [$sp+0]
	@DEBUG_VALUE: doPrint:fmt <- [DW_OP_plus_uconst 76] [$sp+0]
	@DEBUG_VALUE: doPrint:parse <- [DW_OP_plus_uconst 52, DW_OP_LLVM_fragment 64 32] [$sp+0]
	@DEBUG_VALUE: doPrint:va <- [DW_OP_plus_uconst 80] [$sp+0]
	@DEBUG_VALUE: doPrint:buf <- $r6
	@DEBUG_VALUE: doPrint:n <- $r1
	.loc	1 353 31                        @ ../../../../../../kernel/freertos/dpl/SystemP_freertos.c:353:31
	ldrb	r4, [r2]
.Ltmp378:
	@DEBUG_VALUE: putChar:c <- $r4
	.loc	1 455 18                        @ ../../../../../../kernel/freertos/dpl/SystemP_freertos.c:455:18
	strb	r4, [r6]
	.loc	1 455 14 is_stmt 0              @ ../../../../../../kernel/freertos/dpl/SystemP_freertos.c:455:14
	adds	r6, r6, #1
.Ltmp379:
	@DEBUG_VALUE: doPrint:buf <- $r6
	.loc	1 454 9 is_stmt 1               @ ../../../../../../kernel/freertos/dpl/SystemP_freertos.c:454:9
	subs	r1, r1, #1
.Ltmp380:
	@DEBUG_VALUE: doPrint:n <- $r1
.LBB1_155:                              @   in Loop: Header=BB1_153 Depth=2
	@DEBUG_VALUE: doPrint:parse <- [DW_OP_constu 1, DW_OP_minus, DW_OP_stack_value, DW_OP_LLVM_fragment 96 32] $r3
	@DEBUG_VALUE: doPrint:parse <- [DW_OP_plus_uconst 1, DW_OP_stack_value, DW_OP_LLVM_fragment 192 32] $r2
	@DEBUG_VALUE: doPrint:parse <- [DW_OP_LLVM_fragment 0 32] $r7
	@DEBUG_VALUE: doPrint:parse <- [DW_OP_plus_uconst 44, DW_OP_LLVM_fragment 160 32] [$sp+0]
	@DEBUG_VALUE: doPrint:fmt <- [DW_OP_plus_uconst 76] [$sp+0]
	@DEBUG_VALUE: doPrint:parse <- [DW_OP_plus_uconst 52, DW_OP_LLVM_fragment 64 32] [$sp+0]
	@DEBUG_VALUE: doPrint:va <- [DW_OP_plus_uconst 80] [$sp+0]
	@DEBUG_VALUE: doPrint:buf <- $r6
	@DEBUG_VALUE: doPrint:n <- $r1
	@DEBUG_VALUE: doPrint:buf <- $r6
	@DEBUG_VALUE: doPrint:n <- $r1
	@DEBUG_VALUE: doPrint:res <- undef
	@DEBUG_VALUE: doPrint:parse <- [DW_OP_LLVM_fragment 192 32] undef
	@DEBUG_VALUE: doPrint:parse <- [DW_OP_LLVM_fragment 96 32] undef
	@DEBUG_VALUE: putChar:bufp <- undef
	@DEBUG_VALUE: putChar:c <- undef
	@DEBUG_VALUE: putChar:n <- undef
	.loc	1 448 9                         @ ../../../../../../kernel/freertos/dpl/SystemP_freertos.c:448:9
	cmp	r1, #2
	blo	.LBB1_152
.Ltmp381:
@ %bb.156:                              @   in Loop: Header=BB1_153 Depth=2
	@DEBUG_VALUE: doPrint:parse <- [DW_OP_LLVM_fragment 0 32] $r7
	@DEBUG_VALUE: doPrint:parse <- [DW_OP_plus_uconst 44, DW_OP_LLVM_fragment 160 32] [$sp+0]
	@DEBUG_VALUE: doPrint:fmt <- [DW_OP_plus_uconst 76] [$sp+0]
	@DEBUG_VALUE: doPrint:parse <- [DW_OP_plus_uconst 52, DW_OP_LLVM_fragment 64 32] [$sp+0]
	@DEBUG_VALUE: doPrint:va <- [DW_OP_plus_uconst 80] [$sp+0]
	@DEBUG_VALUE: doPrint:buf <- $r6
	@DEBUG_VALUE: doPrint:n <- $r1
	.loc	1 353 31                        @ ../../../../../../kernel/freertos/dpl/SystemP_freertos.c:353:31
	ldrb	r4, [r2, #1]
.Ltmp382:
	@DEBUG_VALUE: putChar:c <- $r4
	.loc	1 455 18                        @ ../../../../../../kernel/freertos/dpl/SystemP_freertos.c:455:18
	strb	r4, [r6]
	.loc	1 455 14 is_stmt 0              @ ../../../../../../kernel/freertos/dpl/SystemP_freertos.c:455:14
	adds	r6, r6, #1
.Ltmp383:
	@DEBUG_VALUE: doPrint:buf <- $r6
	.loc	1 454 9 is_stmt 1               @ ../../../../../../kernel/freertos/dpl/SystemP_freertos.c:454:9
	subs	r1, r1, #1
.Ltmp384:
	@DEBUG_VALUE: doPrint:n <- $r1
	.loc	1 0 9 is_stmt 0                 @ ../../../../../../kernel/freertos/dpl/SystemP_freertos.c:0:9
	b	.LBB1_152
.Ltmp385:
.LBB1_157:                              @   in Loop: Header=BB1_2 Depth=1
	@DEBUG_VALUE: doPrint:res <- $r4
	@DEBUG_VALUE: doPrint:parse <- [DW_OP_constu 1, DW_OP_minus, DW_OP_stack_value, DW_OP_LLVM_fragment 0 32] $r7
	@DEBUG_VALUE: doPrint:parse <- [DW_OP_plus_uconst 44, DW_OP_LLVM_fragment 160 32] [$sp+0]
	@DEBUG_VALUE: doPrint:fmt <- [DW_OP_plus_uconst 76] [$sp+0]
	@DEBUG_VALUE: doPrint:parse <- [DW_OP_plus_uconst 52, DW_OP_LLVM_fragment 64 32] [$sp+0]
	@DEBUG_VALUE: doPrint:va <- [DW_OP_plus_uconst 80] [$sp+0]
	@DEBUG_VALUE: doPrint:buf <- $r6
	@DEBUG_VALUE: doPrint:n <- $r1
	@DEBUG_VALUE: doPrint:buf <- $r6
	@DEBUG_VALUE: doPrint:n <- $r1
	@DEBUG_VALUE: doPrint:res <- undef
	@DEBUG_VALUE: doPrint:parse <- [DW_OP_constu 1, DW_OP_minus, DW_OP_stack_value, DW_OP_LLVM_fragment 0 32] $r7
	.loc	1 359 24 is_stmt 1              @ ../../../../../../kernel/freertos/dpl/SystemP_freertos.c:359:24
	subs	r2, r3, #1
.Ltmp386:
	@DEBUG_VALUE: putChar:n <- undef
	@DEBUG_VALUE: putChar:c <- 32
	@DEBUG_VALUE: putChar:bufp <- undef
	@DEBUG_VALUE: doPrint:parse <- [DW_OP_LLVM_fragment 0 32] $r2
	.loc	1 448 9                         @ ../../../../../../kernel/freertos/dpl/SystemP_freertos.c:448:9
	cmp	r1, #2
	blo	.LBB1_159
.Ltmp387:
@ %bb.158:                              @   in Loop: Header=BB1_2 Depth=1
	@DEBUG_VALUE: putChar:c <- 32
	@DEBUG_VALUE: doPrint:parse <- [DW_OP_LLVM_fragment 0 32] $r2
	@DEBUG_VALUE: doPrint:parse <- [DW_OP_plus_uconst 44, DW_OP_LLVM_fragment 160 32] [$sp+0]
	@DEBUG_VALUE: doPrint:fmt <- [DW_OP_plus_uconst 76] [$sp+0]
	@DEBUG_VALUE: doPrint:parse <- [DW_OP_plus_uconst 52, DW_OP_LLVM_fragment 64 32] [$sp+0]
	@DEBUG_VALUE: doPrint:va <- [DW_OP_plus_uconst 80] [$sp+0]
	@DEBUG_VALUE: doPrint:buf <- $r6
	@DEBUG_VALUE: doPrint:n <- $r1
	.loc	1 0 9 is_stmt 0                 @ ../../../../../../kernel/freertos/dpl/SystemP_freertos.c:0:9
	movs	r3, #32
	.loc	1 455 18 is_stmt 1              @ ../../../../../../kernel/freertos/dpl/SystemP_freertos.c:455:18
	strb	r3, [r6]
	.loc	1 455 14 is_stmt 0              @ ../../../../../../kernel/freertos/dpl/SystemP_freertos.c:455:14
	adds	r6, r6, #1
.Ltmp388:
	@DEBUG_VALUE: doPrint:buf <- $r6
	.loc	1 454 9 is_stmt 1               @ ../../../../../../kernel/freertos/dpl/SystemP_freertos.c:454:9
	subs	r1, r1, #1
.Ltmp389:
	@DEBUG_VALUE: doPrint:n <- $r1
.LBB1_159:                              @   in Loop: Header=BB1_2 Depth=1
	@DEBUG_VALUE: doPrint:parse <- [DW_OP_LLVM_fragment 0 32] $r2
	@DEBUG_VALUE: doPrint:parse <- [DW_OP_plus_uconst 44, DW_OP_LLVM_fragment 160 32] [$sp+0]
	@DEBUG_VALUE: doPrint:fmt <- [DW_OP_plus_uconst 76] [$sp+0]
	@DEBUG_VALUE: doPrint:parse <- [DW_OP_plus_uconst 52, DW_OP_LLVM_fragment 64 32] [$sp+0]
	@DEBUG_VALUE: doPrint:va <- [DW_OP_plus_uconst 80] [$sp+0]
	@DEBUG_VALUE: doPrint:buf <- $r6
	@DEBUG_VALUE: doPrint:n <- $r1
	.loc	1 0 9 is_stmt 0                 @ ../../../../../../kernel/freertos/dpl/SystemP_freertos.c:0:9
	mov	r3, r7
	.loc	1 359 17 is_stmt 1              @ ../../../../../../kernel/freertos/dpl/SystemP_freertos.c:359:17
	cmp	r3, #1
	bne	.LBB1_161
.Ltmp390:
.LBB1_160:                              @   in Loop: Header=BB1_2 Depth=1
	@DEBUG_VALUE: doPrint:parse <- [DW_OP_plus_uconst 44, DW_OP_LLVM_fragment 160 32] [$sp+0]
	@DEBUG_VALUE: doPrint:fmt <- [DW_OP_plus_uconst 76] [$sp+0]
	@DEBUG_VALUE: doPrint:parse <- [DW_OP_plus_uconst 52, DW_OP_LLVM_fragment 64 32] [$sp+0]
	@DEBUG_VALUE: doPrint:va <- [DW_OP_plus_uconst 80] [$sp+0]
	@DEBUG_VALUE: doPrint:buf <- $r6
	@DEBUG_VALUE: doPrint:n <- $r1
	adds	r0, r5, r0
	adds	r4, r0, r7
	b	.LBB1_2
.Ltmp391:
.LBB1_161:                              @   in Loop: Header=BB1_2 Depth=1
	@DEBUG_VALUE: doPrint:parse <- [DW_OP_plus_uconst 44, DW_OP_LLVM_fragment 160 32] [$sp+0]
	@DEBUG_VALUE: doPrint:fmt <- [DW_OP_plus_uconst 76] [$sp+0]
	@DEBUG_VALUE: doPrint:parse <- [DW_OP_plus_uconst 52, DW_OP_LLVM_fragment 64 32] [$sp+0]
	@DEBUG_VALUE: doPrint:va <- [DW_OP_plus_uconst 80] [$sp+0]
	@DEBUG_VALUE: doPrint:buf <- $r6
	@DEBUG_VALUE: doPrint:n <- $r1
	subs	r2, r2, #1
	b	.LBB1_163
.Ltmp392:
.LBB1_162:                              @   in Loop: Header=BB1_163 Depth=2
	@DEBUG_VALUE: doPrint:parse <- [DW_OP_LLVM_fragment 0 32] $r2
	@DEBUG_VALUE: doPrint:parse <- [DW_OP_plus_uconst 44, DW_OP_LLVM_fragment 160 32] [$sp+0]
	@DEBUG_VALUE: doPrint:fmt <- [DW_OP_plus_uconst 76] [$sp+0]
	@DEBUG_VALUE: doPrint:parse <- [DW_OP_plus_uconst 52, DW_OP_LLVM_fragment 64 32] [$sp+0]
	@DEBUG_VALUE: doPrint:va <- [DW_OP_plus_uconst 80] [$sp+0]
	@DEBUG_VALUE: doPrint:buf <- $r6
	@DEBUG_VALUE: doPrint:n <- $r1
	@DEBUG_VALUE: doPrint:buf <- $r6
	@DEBUG_VALUE: doPrint:n <- $r1
	@DEBUG_VALUE: doPrint:res <- undef
	@DEBUG_VALUE: doPrint:parse <- [DW_OP_constu 1, DW_OP_minus, DW_OP_stack_value, DW_OP_LLVM_fragment 0 32] $r2
	.loc	1 359 38 is_stmt 0              @ ../../../../../../kernel/freertos/dpl/SystemP_freertos.c:359:38
	subs	r3, r2, #2
	cmp	r3, r2
	mov	r2, r3
.Ltmp393:
	.loc	1 359 17                        @ ../../../../../../kernel/freertos/dpl/SystemP_freertos.c:359:17
	bhs	.LBB1_160
.Ltmp394:
.LBB1_163:                              @   Parent Loop BB1_2 Depth=1
                                        @ =>  This Inner Loop Header: Depth=2
	@DEBUG_VALUE: doPrint:parse <- [DW_OP_plus_uconst 44, DW_OP_LLVM_fragment 160 32] [$sp+0]
	@DEBUG_VALUE: doPrint:fmt <- [DW_OP_plus_uconst 76] [$sp+0]
	@DEBUG_VALUE: doPrint:parse <- [DW_OP_plus_uconst 52, DW_OP_LLVM_fragment 64 32] [$sp+0]
	@DEBUG_VALUE: doPrint:va <- [DW_OP_plus_uconst 80] [$sp+0]
	@DEBUG_VALUE: doPrint:buf <- $r6
	@DEBUG_VALUE: doPrint:n <- $r1
	@DEBUG_VALUE: doPrint:buf <- $r6
	@DEBUG_VALUE: doPrint:n <- $r1
	@DEBUG_VALUE: doPrint:res <- undef
	@DEBUG_VALUE: doPrint:parse <- [DW_OP_constu 1, DW_OP_minus, DW_OP_stack_value, DW_OP_LLVM_fragment 0 32] $r2
	@DEBUG_VALUE: putChar:bufp <- undef
	@DEBUG_VALUE: putChar:c <- 32
	@DEBUG_VALUE: putChar:n <- undef
	.loc	1 448 9 is_stmt 1               @ ../../../../../../kernel/freertos/dpl/SystemP_freertos.c:448:9
	cmp	r1, #2
	blo	.LBB1_165
.Ltmp395:
@ %bb.164:                              @   in Loop: Header=BB1_163 Depth=2
	@DEBUG_VALUE: doPrint:parse <- [DW_OP_constu 1, DW_OP_minus, DW_OP_stack_value, DW_OP_LLVM_fragment 0 32] $r2
	@DEBUG_VALUE: putChar:c <- 32
	@DEBUG_VALUE: doPrint:parse <- [DW_OP_plus_uconst 44, DW_OP_LLVM_fragment 160 32] [$sp+0]
	@DEBUG_VALUE: doPrint:fmt <- [DW_OP_plus_uconst 76] [$sp+0]
	@DEBUG_VALUE: doPrint:parse <- [DW_OP_plus_uconst 52, DW_OP_LLVM_fragment 64 32] [$sp+0]
	@DEBUG_VALUE: doPrint:va <- [DW_OP_plus_uconst 80] [$sp+0]
	@DEBUG_VALUE: doPrint:buf <- $r6
	@DEBUG_VALUE: doPrint:n <- $r1
	.loc	1 0 9 is_stmt 0                 @ ../../../../../../kernel/freertos/dpl/SystemP_freertos.c:0:9
	movs	r3, #32
	.loc	1 455 18 is_stmt 1              @ ../../../../../../kernel/freertos/dpl/SystemP_freertos.c:455:18
	strb	r3, [r6]
	.loc	1 455 14 is_stmt 0              @ ../../../../../../kernel/freertos/dpl/SystemP_freertos.c:455:14
	adds	r6, r6, #1
.Ltmp396:
	@DEBUG_VALUE: doPrint:buf <- $r6
	.loc	1 454 9 is_stmt 1               @ ../../../../../../kernel/freertos/dpl/SystemP_freertos.c:454:9
	subs	r1, r1, #1
.Ltmp397:
	@DEBUG_VALUE: doPrint:n <- $r1
.LBB1_165:                              @   in Loop: Header=BB1_163 Depth=2
	@DEBUG_VALUE: doPrint:parse <- [DW_OP_constu 1, DW_OP_minus, DW_OP_stack_value, DW_OP_LLVM_fragment 0 32] $r2
	@DEBUG_VALUE: putChar:c <- 32
	@DEBUG_VALUE: doPrint:parse <- [DW_OP_plus_uconst 44, DW_OP_LLVM_fragment 160 32] [$sp+0]
	@DEBUG_VALUE: doPrint:fmt <- [DW_OP_plus_uconst 76] [$sp+0]
	@DEBUG_VALUE: doPrint:parse <- [DW_OP_plus_uconst 52, DW_OP_LLVM_fragment 64 32] [$sp+0]
	@DEBUG_VALUE: doPrint:va <- [DW_OP_plus_uconst 80] [$sp+0]
	@DEBUG_VALUE: doPrint:buf <- $r6
	@DEBUG_VALUE: doPrint:n <- $r1
	@DEBUG_VALUE: doPrint:buf <- $r6
	@DEBUG_VALUE: doPrint:n <- $r1
	@DEBUG_VALUE: doPrint:res <- undef
	@DEBUG_VALUE: doPrint:parse <- [DW_OP_LLVM_fragment 0 32] $r2
	@DEBUG_VALUE: putChar:bufp <- undef
	@DEBUG_VALUE: putChar:c <- 32
	@DEBUG_VALUE: putChar:n <- undef
	.loc	1 448 9                         @ ../../../../../../kernel/freertos/dpl/SystemP_freertos.c:448:9
	cmp	r1, #2
	blo	.LBB1_162
.Ltmp398:
@ %bb.166:                              @   in Loop: Header=BB1_163 Depth=2
	@DEBUG_VALUE: putChar:c <- 32
	@DEBUG_VALUE: doPrint:parse <- [DW_OP_LLVM_fragment 0 32] $r2
	@DEBUG_VALUE: doPrint:parse <- [DW_OP_plus_uconst 44, DW_OP_LLVM_fragment 160 32] [$sp+0]
	@DEBUG_VALUE: doPrint:fmt <- [DW_OP_plus_uconst 76] [$sp+0]
	@DEBUG_VALUE: doPrint:parse <- [DW_OP_plus_uconst 52, DW_OP_LLVM_fragment 64 32] [$sp+0]
	@DEBUG_VALUE: doPrint:va <- [DW_OP_plus_uconst 80] [$sp+0]
	@DEBUG_VALUE: doPrint:buf <- $r6
	@DEBUG_VALUE: doPrint:n <- $r1
	.loc	1 0 9 is_stmt 0                 @ ../../../../../../kernel/freertos/dpl/SystemP_freertos.c:0:9
	movs	r3, #32
	.loc	1 455 18 is_stmt 1              @ ../../../../../../kernel/freertos/dpl/SystemP_freertos.c:455:18
	strb	r3, [r6]
	.loc	1 455 14 is_stmt 0              @ ../../../../../../kernel/freertos/dpl/SystemP_freertos.c:455:14
	adds	r6, r6, #1
.Ltmp399:
	@DEBUG_VALUE: doPrint:buf <- $r6
	.loc	1 454 9 is_stmt 1               @ ../../../../../../kernel/freertos/dpl/SystemP_freertos.c:454:9
	subs	r1, r1, #1
.Ltmp400:
	@DEBUG_VALUE: doPrint:n <- $r1
	.loc	1 0 9 is_stmt 0                 @ ../../../../../../kernel/freertos/dpl/SystemP_freertos.c:0:9
	b	.LBB1_162
.Ltmp401:
.LBB1_167:
	@DEBUG_VALUE: doPrint:c <- $r0
	@DEBUG_VALUE: doPrint:res <- [DW_OP_LLVM_arg 0, DW_OP_LLVM_arg 1, DW_OP_plus, DW_OP_stack_value] $r5, $r4
	@DEBUG_VALUE: doPrint:fmt <- [DW_OP_LLVM_arg 0, DW_OP_consts 1, DW_OP_LLVM_arg 1, DW_OP_plus, DW_OP_plus, DW_OP_stack_value] $r5, $r2
	@DEBUG_VALUE: doPrint:va <- [DW_OP_plus_uconst 80] [$sp+0]
	@DEBUG_VALUE: doPrint:buf <- $r6
	@DEBUG_VALUE: doPrint:n <- $r1
	.loc	1 368 9 is_stmt 1               @ ../../../../../../kernel/freertos/dpl/SystemP_freertos.c:368:9
	adds	r0, r4, r5
.Ltmp402:
	cmp	r6, #0
	beq	.LBB1_169
.Ltmp403:
@ %bb.168:
	@DEBUG_VALUE: doPrint:res <- [DW_OP_LLVM_arg 0, DW_OP_LLVM_arg 1, DW_OP_plus, DW_OP_stack_value] $r5, $r4
	@DEBUG_VALUE: doPrint:fmt <- [DW_OP_LLVM_arg 0, DW_OP_consts 1, DW_OP_LLVM_arg 1, DW_OP_plus, DW_OP_plus, DW_OP_stack_value] $r5, $r2
	@DEBUG_VALUE: doPrint:va <- [DW_OP_plus_uconst 80] [$sp+0]
	@DEBUG_VALUE: doPrint:buf <- $r6
	@DEBUG_VALUE: doPrint:n <- $r1
	.loc	1 0 9 is_stmt 0                 @ ../../../../../../kernel/freertos/dpl/SystemP_freertos.c:0:9
	movs	r1, #0
.Ltmp404:
	.loc	1 370 14 is_stmt 1              @ ../../../../../../kernel/freertos/dpl/SystemP_freertos.c:370:14
	strb	r1, [r6]
.Ltmp405:
.LBB1_169:
	@DEBUG_VALUE: doPrint:res <- [DW_OP_LLVM_arg 0, DW_OP_LLVM_arg 1, DW_OP_plus, DW_OP_stack_value] $r5, $r4
	@DEBUG_VALUE: doPrint:fmt <- [DW_OP_LLVM_arg 0, DW_OP_consts 1, DW_OP_LLVM_arg 1, DW_OP_plus, DW_OP_plus, DW_OP_stack_value] $r5, $r2
	@DEBUG_VALUE: doPrint:va <- [DW_OP_plus_uconst 80] [$sp+0]
	@DEBUG_VALUE: doPrint:buf <- $r6
	.loc	1 374 1 epilogue_begin          @ ../../../../../../kernel/freertos/dpl/SystemP_freertos.c:374:1
	add	sp, #100
	pop	{r4, r5, r6, r7, pc}
.Ltmp406:
.LBB1_170:
	@DEBUG_VALUE: doPrint:res <- 0
	@DEBUG_VALUE: doPrint:fmt <- $r2
	@DEBUG_VALUE: doPrint:n <- $r1
	@DEBUG_VALUE: doPrint:buf <- $r0
	.loc	1 0 1 is_stmt 0                 @ ../../../../../../kernel/freertos/dpl/SystemP_freertos.c:0:1
	movs	r0, #0
.Ltmp407:
	@DEBUG_VALUE: doPrint:buf <- [DW_OP_LLVM_entry_value 1] $r0
	.loc	1 374 1 epilogue_begin          @ ../../../../../../kernel/freertos/dpl/SystemP_freertos.c:374:1
	add	sp, #100
	pop	{r4, r5, r6, r7, pc}
.Ltmp408:
	.p2align	2
@ %bb.171:
	.loc	1 0 1                           @ ../../../../../../kernel/freertos/dpl/SystemP_freertos.c:0:1
.LCPI1_0:
	.long	1086556160                      @ 0x40c38800
__arm_cp.1_1:
	.long	.L.str.1
.Lcpi_end0:
	.size	__arm_cp.1_1, .Lcpi_end0-__arm_cp.1_1
__arm_cp.1_2:
	.long	10000                           @ 0x2710
.Lcpi_end1:
	.size	__arm_cp.1_2, .Lcpi_end1-__arm_cp.1_2
__arm_cp.1_3:
	.long	9999                            @ 0x270f
.Lcpi_end2:
	.size	__arm_cp.1_3, .Lcpi_end2-__arm_cp.1_3
.Lfunc_end1:
	.size	doPrint, .Lfunc_end1-doPrint
	.cfi_endproc
	.file	3 "I:\\Keil5\\keil5_mdk\\ARM\\ARMCLANG\\Bin\\..\\include" "stddef.h"
	.cantunwind
	.fnend
                                        @ -- End function
	.section	.text.SystemP_vsnprintf,"ax",%progbits
	.hidden	SystemP_vsnprintf               @ -- Begin function SystemP_vsnprintf
	.globl	SystemP_vsnprintf
	.p2align	1
	.type	SystemP_vsnprintf,%function
	.code	16                              @ @SystemP_vsnprintf
	.thumb_func
SystemP_vsnprintf:
.Lfunc_begin2:
	.loc	1 109 0 is_stmt 1               @ ../../../../../../kernel/freertos/dpl/SystemP_freertos.c:109:0
	.fnstart
	.cfi_startproc
@ %bb.0:
	@DEBUG_VALUE: SystemP_vsnprintf:buf <- $r0
	@DEBUG_VALUE: SystemP_vsnprintf:n <- $r1
	@DEBUG_VALUE: SystemP_vsnprintf:format <- $r2
	.save	{r7, lr}
	push	{r7, lr}
	.cfi_def_cfa_offset 8
	.cfi_offset lr, -4
	.cfi_offset r7, -8
.Ltmp409:
	.loc	1 112 11 prologue_end           @ ../../../../../../kernel/freertos/dpl/SystemP_freertos.c:112:11
	bl	doPrint
.Ltmp410:
	@DEBUG_VALUE: SystemP_vsnprintf:format <- [DW_OP_LLVM_entry_value 1] $r2
	@DEBUG_VALUE: SystemP_vsnprintf:n <- [DW_OP_LLVM_entry_value 1] $r1
	@DEBUG_VALUE: SystemP_vsnprintf:buf <- [DW_OP_LLVM_entry_value 1] $r0
	@DEBUG_VALUE: SystemP_vsnprintf:ret <- $r0
	.loc	1 113 5 epilogue_begin          @ ../../../../../../kernel/freertos/dpl/SystemP_freertos.c:113:5
	pop	{r7, pc}
.Ltmp411:
.Lfunc_end2:
	.size	SystemP_vsnprintf, .Lfunc_end2-SystemP_vsnprintf
	.cfi_endproc
	.cantunwind
	.fnend
                                        @ -- End function
	.type	.L.str.1,%object                @ @.str.1
	.section	.rodata.str1.1,"aMS",%progbits,1
.L.str.1:
	.asciz	"0123456789abcdef"
	.size	.L.str.1, 17

	.file	4 "D:\\TI_M0G3507\\mspm0_sdk_2_05_00_05\\kernel\\freertos\\builds\\LP_MSPM0G3507\\release\\keil" "../../../../../../kernel/freertos/dpl\\SystemP_freertos.c"
	.file	5 "I:\\Keil5\\keil5_mdk\\ARM\\ARMCLANG\\Bin\\..\\include" "stdarg.h"
	.section	".note.GNU-stack","",%progbits
	.eabi_attribute	30, 1	@ Tag_ABI_optimization_goals
	.ARM_attribute	16, 1	@ Tag_AV_eba