	.text
	.syntax unified
	.eabi_attribute	67, "2.09"	@ Tag_conformance
	.cpu	cortex-m0plus
	.eabi_attribute	6, 12	@ Tag_CPU_arch
	.eabi_attribute	7, 77	@ Tag_CPU_arch_profile
	.eabi_attribute	8, 0	@ Tag_ARM_ISA_use
	.eabi_attribute	9, 1	@ Tag_THUMB_ISA_use
	.eabi_attribute	34, 0	@ Tag_CPU_unaligned_access
	.eabi_attribute	17, 1	@ Tag_ABI_PCS_GOT_use
	.eabi_attribute	20, 2	@ Tag_ABI_FP_denormal
	.eabi_attribute	21, 0	@ Tag_ABI_FP_exceptions
	.eabi_attribute	23, 1	@ Tag_ABI_FP_number_model
	.eabi_attribute	24, 1	@ Tag_ABI_align_needed
	.eabi_attribute	25, 1	@ Tag_ABI_align_preserved
	.eabi_attribute	38, 1	@ Tag_ABI_FP_16bit_format
	.eabi_attribute	18, 2	@ Tag_ABI_PCS_wchar_t
	.eabi_attribute	26, 1	@ Tag_ABI_enum_size
	.eabi_attribute	14, 0	@ Tag_ABI_PCS_R9_use
	.file	"timers.c"
	.file	1 "D:\\TI_M0G3507\\mspm0_sdk_2_05_00_05\\kernel\\freertos\\builds\\LP_MSPM0G3507\\release\\keil" "../../../../../../kernel/freertos/Source/timers.c"
	.file	2 "D:\\TI_M0G3507\\mspm0_sdk_2_05_00_05\\kernel\\freertos\\builds\\LP_MSPM0G3507\\release\\keil" "../../../../../../kernel/freertos/Source/include\\queue.h"
	.file	3 "D:\\TI_M0G3507\\mspm0_sdk_2_05_00_05\\kernel\\freertos\\builds\\LP_MSPM0G3507\\release\\keil" "../../../../../../kernel/freertos/Source/include\\task.h"
	.file	4 "D:\\TI_M0G3507\\mspm0_sdk_2_05_00_05\\kernel\\freertos\\builds\\LP_MSPM0G3507\\release\\keil" "../../../../../../kernel/freertos/Source/portable/GCC/ARM_CM0\\portmacro.h"
	.file	5 "D:\\TI_M0G3507\\mspm0_sdk_2_05_00_05\\kernel\\freertos\\builds\\LP_MSPM0G3507\\release\\keil" "../../../../../../kernel/freertos/Source/include/list.h"
	.file	6 "I:\\Keil5\\keil5_mdk\\ARM\\ARMCLANG\\Bin\\..\\include" "stdint.h"
	.file	7 "D:\\TI_M0G3507\\mspm0_sdk_2_05_00_05\\kernel\\freertos\\builds\\LP_MSPM0G3507\\release\\keil" "../../../../../../kernel/freertos/Source/include\\FreeRTOS.h"
	.file	8 "D:\\TI_M0G3507\\mspm0_sdk_2_05_00_05\\kernel\\freertos\\builds\\LP_MSPM0G3507\\release\\keil" "../../../../../../kernel/freertos/Source/include\\timers.h"
	.section	.text.xTimerCreateTimerTask,"ax",%progbits
	.hidden	xTimerCreateTimerTask           @ -- Begin function xTimerCreateTimerTask
	.globl	xTimerCreateTimerTask
	.p2align	2
	.type	xTimerCreateTimerTask,%function
	.code	16                              @ @xTimerCreateTimerTask
	.thumb_func
xTimerCreateTimerTask:
.Lfunc_begin0:
	.loc	1 222 0                         @ ../../../../../../kernel/freertos/Source/timers.c:222:0
	.fnstart
	.cfi_sections .debug_frame
	.cfi_startproc
@ %bb.0:
	.save	{r4, r5, r6, lr}
	push	{r4, r5, r6, lr}
	.cfi_def_cfa_offset 16
	.cfi_offset lr, -4
	.cfi_offset r6, -8
	.cfi_offset r5, -12
	.cfi_offset r4, -16
	.pad	#24
	sub	sp, #24
	.cfi_def_cfa_offset 40
.Ltmp0:
	@DEBUG_VALUE: xTimerCreateTimerTask:xReturn <- 0
	.loc	1 958 9 prologue_end            @ ../../../../../../kernel/freertos/Source/timers.c:958:9
	bl	vPortEnterCritical
.Ltmp1:
	.loc	1 960 17                        @ ../../../../../../kernel/freertos/Source/timers.c:960:17
	ldr	r6, __arm_cp.0_0
	ldr	r0, [r6]
.Ltmp2:
	.loc	1 960 17 is_stmt 0              @ ../../../../../../kernel/freertos/Source/timers.c:960:17
	cmp	r0, #0
	bne	.LBB0_2
.Ltmp3:
@ %bb.1:
	@DEBUG_VALUE: xTimerCreateTimerTask:xReturn <- 0
	.loc	1 962 17 is_stmt 1              @ ../../../../../../kernel/freertos/Source/timers.c:962:17
	ldr	r4, __arm_cp.0_1
	mov	r0, r4
	bl	vListInitialise
.Ltmp4:
	.loc	1 963 17                        @ ../../../../../../kernel/freertos/Source/timers.c:963:17
	ldr	r5, __arm_cp.0_2
	mov	r0, r5
	bl	vListInitialise
.Ltmp5:
	.loc	1 965 37                        @ ../../../../../../kernel/freertos/Source/timers.c:965:37
	ldr	r0, __arm_cp.0_3
	str	r5, [r0]
	.loc	1 964 36                        @ ../../../../../../kernel/freertos/Source/timers.c:964:36
	ldr	r0, __arm_cp.0_4
	str	r4, [r0]
	movs	r0, #0
.Ltmp6:
	.loc	1 974 39                        @ ../../../../../../kernel/freertos/Source/timers.c:974:39
	str	r0, [sp]
	movs	r0, #20
	movs	r1, #12
	ldr	r2, __arm_cp.0_5
	ldr	r3, __arm_cp.0_6
	bl	xQueueGenericCreateStatic
.Ltmp7:
	.loc	1 974 37 is_stmt 0              @ ../../../../../../kernel/freertos/Source/timers.c:974:37
	str	r0, [r6]
.Ltmp8:
.LBB0_2:
	@DEBUG_VALUE: xTimerCreateTimerTask:xReturn <- 0
	.loc	1 1000 9 is_stmt 1              @ ../../../../../../kernel/freertos/Source/timers.c:1000:9
	bl	vPortExitCritical
.Ltmp9:
	.loc	1 231 13                        @ ../../../../../../kernel/freertos/Source/timers.c:231:13
	ldr	r0, [r6]
.Ltmp10:
	.loc	1 231 13 is_stmt 0              @ ../../../../../../kernel/freertos/Source/timers.c:231:13
	cmp	r0, #0
	beq	.LBB0_5
.Ltmp11:
@ %bb.3:
	@DEBUG_VALUE: xTimerCreateTimerTask:xReturn <- 0
	.loc	1 0 13                          @ ../../../../../../kernel/freertos/Source/timers.c:0:13
	movs	r4, #0
.Ltmp12:
	.loc	1 235 36 is_stmt 1              @ ../../../../../../kernel/freertos/Source/timers.c:235:36
	str	r4, [sp, #20]
	.loc	1 236 35                        @ ../../../../../../kernel/freertos/Source/timers.c:236:35
	str	r4, [sp, #16]
	add	r0, sp, #20
	add	r1, sp, #16
	add	r2, sp, #12
	.loc	1 239 21                        @ ../../../../../../kernel/freertos/Source/timers.c:239:21
	bl	vApplicationGetTimerTaskMemory
.Ltmp13:
	.loc	1 242 59                        @ ../../../../../../kernel/freertos/Source/timers.c:242:59
	ldr	r2, [sp, #12]
	.loc	1 245 59                        @ ../../../../../../kernel/freertos/Source/timers.c:245:59
	ldr	r0, [sp, #16]
	.loc	1 246 59                        @ ../../../../../../kernel/freertos/Source/timers.c:246:59
	ldr	r1, [sp, #20]
	movs	r3, #5
	.loc	1 240 40                        @ ../../../../../../kernel/freertos/Source/timers.c:240:40
	str	r3, [sp]
	str	r0, [sp, #4]
	str	r1, [sp, #8]
	ldr	r0, __arm_cp.0_7
	adr	r1, .LCPI0_8
	mov	r3, r4
	bl	xTaskCreateStatic
.Ltmp14:
	.loc	1 240 38 is_stmt 0              @ ../../../../../../kernel/freertos/Source/timers.c:240:38
	ldr	r1, __arm_cp.0_9
	str	r0, [r1]
.Ltmp15:
	@DEBUG_VALUE: xTimerCreateTimerTask:xReturn <- undef
	.loc	1 269 9 is_stmt 1               @ ../../../../../../kernel/freertos/Source/timers.c:269:9
	cmp	r0, #0
	beq	.LBB0_5
.Ltmp16:
@ %bb.4:
	.loc	1 0 9 is_stmt 0                 @ ../../../../../../kernel/freertos/Source/timers.c:0:9
	movs	r0, #1
	.loc	1 270 9 epilogue_begin is_stmt 1 @ ../../../../../../kernel/freertos/Source/timers.c:270:9
	add	sp, #24
	pop	{r4, r5, r6, pc}
.LBB0_5:
.Ltmp17:
	.loc	1 269 9                         @ ../../../../../../kernel/freertos/Source/timers.c:269:9
	@APP
	cpsid i
	@NO_APP
.LBB0_6:                                @ =>This Inner Loop Header: Depth=1
.Ltmp18:
	.loc	1 269 9 is_stmt 0               @ ../../../../../../kernel/freertos/Source/timers.c:269:9
	b	.LBB0_6
.Ltmp19:
	.p2align	2
@ %bb.7:
	.loc	1 0 9                           @ ../../../../../../kernel/freertos/Source/timers.c:0:9
__arm_cp.0_0:
	.long	xTimerQueue
.Lcpi_end0:
	.size	__arm_cp.0_0, .Lcpi_end0-__arm_cp.0_0
__arm_cp.0_1:
	.long	xActiveTimerList1
.Lcpi_end1:
	.size	__arm_cp.0_1, .Lcpi_end1-__arm_cp.0_1
__arm_cp.0_2:
	.long	xActiveTimerList2
.Lcpi_end2:
	.size	__arm_cp.0_2, .Lcpi_end2-__arm_cp.0_2
__arm_cp.0_3:
	.long	pxOverflowTimerList
.Lcpi_end3:
	.size	__arm_cp.0_3, .Lcpi_end3-__arm_cp.0_3
__arm_cp.0_4:
	.long	pxCurrentTimerList
.Lcpi_end4:
	.size	__arm_cp.0_4, .Lcpi_end4-__arm_cp.0_4
__arm_cp.0_5:
	.long	prvCheckForValidListAndQueue.ucStaticTimerQueueStorage
.Lcpi_end5:
	.size	__arm_cp.0_5, .Lcpi_end5-__arm_cp.0_5
__arm_cp.0_6:
	.long	prvCheckForValidListAndQueue.xStaticTimerQueue
.Lcpi_end6:
	.size	__arm_cp.0_6, .Lcpi_end6-__arm_cp.0_6
__arm_cp.0_7:
	.long	prvTimerTask
.Lcpi_end7:
	.size	__arm_cp.0_7, .Lcpi_end7-__arm_cp.0_7
.LCPI0_8:
.L.str:
	.asciz	"Tmr Svc"
__arm_cp.0_9:
	.long	xTimerTaskHandle
.Lcpi_end8:
	.size	__arm_cp.0_9, .Lcpi_end8-__arm_cp.0_9
.Lfunc_end0:
	.size	xTimerCreateTimerTask, .Lfunc_end0-xTimerCreateTimerTask
	.cfi_endproc
	.cantunwind
	.fnend
                                        @ -- End function
	.section	.text.prvTimerTask,"ax",%progbits
	.p2align	2                               @ -- Begin function prvTimerTask
	.type	prvTimerTask,%function
	.code	16                              @ @prvTimerTask
	.thumb_func
prvTimerTask:
.Lfunc_begin1:
	.loc	1 552 0 is_stmt 1               @ ../../../../../../kernel/freertos/Source/timers.c:552:0
	.fnstart
	.cfi_startproc
@ %bb.0:
	.pad	#32
	sub	sp, #32
	.cfi_def_cfa_offset 32
	ldr	r7, __arm_cp.1_0
	ldr	r6, __arm_cp.1_2
.LBB1_1:                                @ =>This Loop Header: Depth=1
                                        @     Child Loop BB1_24 Depth 2
.Ltmp20:
	@DEBUG_VALUE: prvGetNextExpireTime:pxListWasEmpty <- undef
	.loc	1 660 27 prologue_end           @ ../../../../../../kernel/freertos/Source/timers.c:660:27
	ldr	r0, [r7]
	ldr	r4, [r0]
.Ltmp21:
	@DEBUG_VALUE: prvTimerTask:xListWasEmpty <- undef
	.loc	1 662 13                        @ ../../../../../../kernel/freertos/Source/timers.c:662:13
	cmp	r4, #0
	beq	.LBB1_3
.Ltmp22:
@ %bb.2:                                @   in Loop: Header=BB1_1 Depth=1
	.loc	1 664 31                        @ ../../../../../../kernel/freertos/Source/timers.c:664:31
	ldr	r0, [r0, #12]
	ldr	r7, [r0]
.Ltmp23:
	@DEBUG_VALUE: prvGetNextExpireTime:xNextExpireTime <- $r7
	.loc	1 0 31 is_stmt 0                @ ../../../../../../kernel/freertos/Source/timers.c:0:31
	b	.LBB1_4
.Ltmp24:
.LBB1_3:                                @   in Loop: Header=BB1_1 Depth=1
	movs	r7, #0
.LBB1_4:                                @   in Loop: Header=BB1_1 Depth=1
.Ltmp25:
	@DEBUG_VALUE: prvTimerTask:xNextExpireTime <- $r7
	@DEBUG_VALUE: prvProcessTimerOrBlockTask:xTimerListsWereSwitched <- [DW_OP_plus_uconst 8, DW_OP_deref] $sp
	@DEBUG_VALUE: prvProcessTimerOrBlockTask:xNextExpireTime <- $r7
	.loc	1 593 9 is_stmt 1               @ ../../../../../../kernel/freertos/Source/timers.c:593:9
	bl	vTaskSuspendAll
.Ltmp26:
	.loc	1 0 9 is_stmt 0                 @ ../../../../../../kernel/freertos/Source/timers.c:0:9
	add	r0, sp, #8
.Ltmp27:
	.loc	1 600 24 is_stmt 1              @ ../../../../../../kernel/freertos/Source/timers.c:600:24
	bl	prvSampleTimeNow
.Ltmp28:
	mov	r5, r0
.Ltmp29:
	@DEBUG_VALUE: prvProcessTimerOrBlockTask:xTimeNow <- $r5
	.loc	1 602 17                        @ ../../../../../../kernel/freertos/Source/timers.c:602:17
	ldr	r0, [sp, #8]
.Ltmp30:
	.loc	1 602 17 is_stmt 0              @ ../../../../../../kernel/freertos/Source/timers.c:602:17
	cmp	r0, #0
.Ltmp31:
	@DEBUG_VALUE: prvProcessTimerOrBlockTask:xListWasEmpty <- [DW_OP_constu 0, DW_OP_eq, DW_OP_LLVM_convert 1 7, DW_OP_LLVM_convert 32 7, DW_OP_stack_value] $r4
	beq	.LBB1_6
.Ltmp32:
@ %bb.5:                                @   in Loop: Header=BB1_1 Depth=1
	@DEBUG_VALUE: prvProcessTimerOrBlockTask:xListWasEmpty <- [DW_OP_constu 0, DW_OP_eq, DW_OP_LLVM_convert 1 7, DW_OP_LLVM_convert 32 7, DW_OP_stack_value] $r4
	@DEBUG_VALUE: prvProcessTimerOrBlockTask:xTimeNow <- $r5
	@DEBUG_VALUE: prvProcessTimerOrBlockTask:xNextExpireTime <- $r7
	@DEBUG_VALUE: prvProcessTimerOrBlockTask:xTimerListsWereSwitched <- [DW_OP_plus_uconst 8, DW_OP_deref] $sp
	@DEBUG_VALUE: prvTimerTask:xNextExpireTime <- $r7
	.loc	1 643 26 is_stmt 1              @ ../../../../../../kernel/freertos/Source/timers.c:643:26
	bl	xTaskResumeAll
.Ltmp33:
	.loc	1 0 26 is_stmt 0                @ ../../../../../../kernel/freertos/Source/timers.c:0:26
	b	.LBB1_21
.Ltmp34:
.LBB1_6:                                @   in Loop: Header=BB1_1 Depth=1
	@DEBUG_VALUE: prvProcessTimerOrBlockTask:xListWasEmpty <- [DW_OP_constu 0, DW_OP_eq, DW_OP_LLVM_convert 1 7, DW_OP_LLVM_convert 32 7, DW_OP_stack_value] $r4
	@DEBUG_VALUE: prvProcessTimerOrBlockTask:xTimeNow <- $r5
	@DEBUG_VALUE: prvProcessTimerOrBlockTask:xNextExpireTime <- $r7
	@DEBUG_VALUE: prvProcessTimerOrBlockTask:xTimerListsWereSwitched <- [DW_OP_plus_uconst 8, DW_OP_deref] $sp
	@DEBUG_VALUE: prvTimerTask:xNextExpireTime <- $r7
	.loc	1 605 50 is_stmt 1              @ ../../../../../../kernel/freertos/Source/timers.c:605:50
	cmp	r4, #0
	beq	.LBB1_10
.Ltmp35:
@ %bb.7:                                @   in Loop: Header=BB1_1 Depth=1
	@DEBUG_VALUE: prvProcessTimerOrBlockTask:xListWasEmpty <- [DW_OP_constu 0, DW_OP_eq, DW_OP_LLVM_convert 1 7, DW_OP_LLVM_convert 32 7, DW_OP_stack_value] $r4
	@DEBUG_VALUE: prvProcessTimerOrBlockTask:xTimeNow <- $r5
	@DEBUG_VALUE: prvProcessTimerOrBlockTask:xNextExpireTime <- $r7
	@DEBUG_VALUE: prvProcessTimerOrBlockTask:xTimerListsWereSwitched <- [DW_OP_plus_uconst 8, DW_OP_deref] $sp
	@DEBUG_VALUE: prvTimerTask:xNextExpireTime <- $r7
	cmp	r5, r7
	blo	.LBB1_10
.Ltmp36:
@ %bb.8:                                @   in Loop: Header=BB1_1 Depth=1
	@DEBUG_VALUE: prvProcessTimerOrBlockTask:xListWasEmpty <- [DW_OP_constu 0, DW_OP_eq, DW_OP_LLVM_convert 1 7, DW_OP_LLVM_convert 32 7, DW_OP_stack_value] $r4
	@DEBUG_VALUE: prvProcessTimerOrBlockTask:xTimeNow <- $r5
	@DEBUG_VALUE: prvProcessTimerOrBlockTask:xNextExpireTime <- $r7
	@DEBUG_VALUE: prvProcessTimerOrBlockTask:xTimerListsWereSwitched <- [DW_OP_plus_uconst 8, DW_OP_deref] $sp
	@DEBUG_VALUE: prvTimerTask:xNextExpireTime <- $r7
	.loc	1 607 30                        @ ../../../../../../kernel/freertos/Source/timers.c:607:30
	bl	xTaskResumeAll
.Ltmp37:
	.loc	1 0 30 is_stmt 0                @ ../../../../../../kernel/freertos/Source/timers.c:0:30
	ldr	r0, __arm_cp.1_0
.Ltmp38:
	@DEBUG_VALUE: prvProcessExpiredTimer:xTimeNow <- $r5
	@DEBUG_VALUE: prvProcessExpiredTimer:xNextExpireTime <- $r7
	.loc	1 512 49 is_stmt 1              @ ../../../../../../kernel/freertos/Source/timers.c:512:49
	ldr	r0, [r0]
	ldr	r0, [r0, #12]
	ldr	r4, [r0, #12]
.Ltmp39:
	@DEBUG_VALUE: prvProcessExpiredTimer:pxTimer <- $r4
	.loc	1 517 44                        @ ../../../../../../kernel/freertos/Source/timers.c:517:44
	adds	r0, r4, #4
	str	r0, [sp]                        @ 4-byte Spill
	.loc	1 517 18 is_stmt 0              @ ../../../../../../kernel/freertos/Source/timers.c:517:18
	bl	uxListRemove
.Ltmp40:
	.loc	1 0 18                          @ ../../../../../../kernel/freertos/Source/timers.c:0:18
	movs	r0, #40
.Ltmp41:
	.loc	1 522 24 is_stmt 1              @ ../../../../../../kernel/freertos/Source/timers.c:522:24
	ldrb	r0, [r4, r0]
.Ltmp42:
	.loc	1 522 13 is_stmt 0              @ ../../../../../../kernel/freertos/Source/timers.c:522:13
	lsls	r1, r0, #29
	bmi	.LBB1_12
.Ltmp43:
@ %bb.9:                                @   in Loop: Header=BB1_1 Depth=1
	@DEBUG_VALUE: prvProcessExpiredTimer:pxTimer <- $r4
	@DEBUG_VALUE: prvProcessExpiredTimer:xNextExpireTime <- $r7
	@DEBUG_VALUE: prvProcessExpiredTimer:xTimeNow <- $r5
	@DEBUG_VALUE: prvProcessTimerOrBlockTask:xTimeNow <- $r5
	@DEBUG_VALUE: prvProcessTimerOrBlockTask:xNextExpireTime <- $r7
	@DEBUG_VALUE: prvProcessTimerOrBlockTask:xTimerListsWereSwitched <- [DW_OP_plus_uconst 8, DW_OP_deref] $sp
	@DEBUG_VALUE: prvTimerTask:xNextExpireTime <- $r7
	.loc	1 0 13                          @ ../../../../../../kernel/freertos/Source/timers.c:0:13
	mov	r1, r4
	adds	r1, #40
	movs	r2, #254
.Ltmp44:
	.loc	1 542 31 is_stmt 1              @ ../../../../../../kernel/freertos/Source/timers.c:542:31
	ands	r0, r2
	strb	r0, [r1]
	b	.LBB1_20
.Ltmp45:
.LBB1_10:                               @   in Loop: Header=BB1_1 Depth=1
	@DEBUG_VALUE: prvProcessTimerOrBlockTask:xListWasEmpty <- [DW_OP_constu 0, DW_OP_eq, DW_OP_LLVM_convert 1 7, DW_OP_LLVM_convert 32 7, DW_OP_stack_value] $r4
	@DEBUG_VALUE: prvProcessTimerOrBlockTask:xTimeNow <- $r5
	@DEBUG_VALUE: prvProcessTimerOrBlockTask:xNextExpireTime <- $r7
	@DEBUG_VALUE: prvProcessTimerOrBlockTask:xTimerListsWereSwitched <- [DW_OP_plus_uconst 8, DW_OP_deref] $sp
	@DEBUG_VALUE: prvTimerTask:xNextExpireTime <- $r7
	.loc	1 618 25                        @ ../../../../../../kernel/freertos/Source/timers.c:618:25
	cmp	r4, #0
	beq	.LBB1_15
.Ltmp46:
@ %bb.11:                               @   in Loop: Header=BB1_1 Depth=1
	@DEBUG_VALUE: prvProcessTimerOrBlockTask:xListWasEmpty <- [DW_OP_constu 0, DW_OP_eq, DW_OP_LLVM_convert 1 7, DW_OP_LLVM_convert 32 7, DW_OP_stack_value] $r4
	@DEBUG_VALUE: prvProcessTimerOrBlockTask:xTimeNow <- $r5
	@DEBUG_VALUE: prvProcessTimerOrBlockTask:xNextExpireTime <- $r7
	@DEBUG_VALUE: prvProcessTimerOrBlockTask:xTimerListsWereSwitched <- [DW_OP_plus_uconst 8, DW_OP_deref] $sp
	@DEBUG_VALUE: prvTimerTask:xNextExpireTime <- $r7
	.loc	1 0 25 is_stmt 0                @ ../../../../../../kernel/freertos/Source/timers.c:0:25
	movs	r2, #0
	b	.LBB1_16
.Ltmp47:
.LBB1_12:                               @   in Loop: Header=BB1_1 Depth=1
	@DEBUG_VALUE: prvProcessExpiredTimer:pxTimer <- $r4
	@DEBUG_VALUE: prvProcessExpiredTimer:xNextExpireTime <- $r7
	@DEBUG_VALUE: prvProcessExpiredTimer:xTimeNow <- $r5
	@DEBUG_VALUE: prvProcessTimerOrBlockTask:xTimeNow <- $r5
	@DEBUG_VALUE: prvProcessTimerOrBlockTask:xNextExpireTime <- $r7
	@DEBUG_VALUE: prvProcessTimerOrBlockTask:xTimerListsWereSwitched <- [DW_OP_plus_uconst 8, DW_OP_deref] $sp
	@DEBUG_VALUE: prvTimerTask:xNextExpireTime <- $r7
	ldr	r2, [sp]                        @ 4-byte Reload
.Ltmp48:
	.loc	1 527 83 is_stmt 1              @ ../../../../../../kernel/freertos/Source/timers.c:527:83
	ldr	r0, [r4, #24]
	.loc	1 527 72 is_stmt 0              @ ../../../../../../kernel/freertos/Source/timers.c:527:72
	adds	r1, r0, r7
.Ltmp49:
	@DEBUG_VALUE: prvInsertTimerInActiveList:xProcessTimerNow <- 0
	@DEBUG_VALUE: prvInsertTimerInActiveList:xCommandTime <- $r7
	@DEBUG_VALUE: prvInsertTimerInActiveList:xTimeNow <- $r5
	@DEBUG_VALUE: prvInsertTimerInActiveList:pxTimer <- $r4
	@DEBUG_VALUE: prvInsertTimerInActiveList:xNextExpiryTime <- $r1
	.loc	1 706 9 is_stmt 1               @ ../../../../../../kernel/freertos/Source/timers.c:706:9
	str	r1, [r4, #4]
	.loc	1 707 9                         @ ../../../../../../kernel/freertos/Source/timers.c:707:9
	str	r4, [r4, #16]
	.loc	1 709 13                        @ ../../../../../../kernel/freertos/Source/timers.c:709:13
	cmp	r1, r5
	ldr	r1, __arm_cp.1_0
.Ltmp50:
	bhi	.LBB1_14
.Ltmp51:
@ %bb.13:                               @   in Loop: Header=BB1_1 Depth=1
	@DEBUG_VALUE: prvInsertTimerInActiveList:pxTimer <- $r4
	@DEBUG_VALUE: prvInsertTimerInActiveList:xTimeNow <- $r5
	@DEBUG_VALUE: prvInsertTimerInActiveList:xCommandTime <- $r7
	@DEBUG_VALUE: prvInsertTimerInActiveList:xProcessTimerNow <- 0
	@DEBUG_VALUE: prvProcessExpiredTimer:pxTimer <- $r4
	@DEBUG_VALUE: prvProcessExpiredTimer:xNextExpireTime <- $r7
	@DEBUG_VALUE: prvProcessExpiredTimer:xTimeNow <- $r5
	@DEBUG_VALUE: prvProcessTimerOrBlockTask:xTimeNow <- $r5
	@DEBUG_VALUE: prvProcessTimerOrBlockTask:xNextExpireTime <- $r7
	@DEBUG_VALUE: prvProcessTimerOrBlockTask:xTimerListsWereSwitched <- [DW_OP_plus_uconst 8, DW_OP_deref] $sp
	@DEBUG_VALUE: prvTimerTask:xNextExpireTime <- $r7
	.loc	1 713 45                        @ ../../../../../../kernel/freertos/Source/timers.c:713:45
	subs	r1, r5, r7
.Ltmp52:
	.loc	1 713 17 is_stmt 0              @ ../../../../../../kernel/freertos/Source/timers.c:713:17
	cmp	r1, r0
	ldr	r1, __arm_cp.1_1
	bhs	.LBB1_18
.Ltmp53:
.LBB1_14:                               @   in Loop: Header=BB1_1 Depth=1
	@DEBUG_VALUE: prvInsertTimerInActiveList:pxTimer <- $r4
	@DEBUG_VALUE: prvInsertTimerInActiveList:xTimeNow <- $r5
	@DEBUG_VALUE: prvInsertTimerInActiveList:xCommandTime <- $r7
	@DEBUG_VALUE: prvInsertTimerInActiveList:xProcessTimerNow <- 0
	@DEBUG_VALUE: prvProcessExpiredTimer:pxTimer <- $r4
	@DEBUG_VALUE: prvProcessExpiredTimer:xNextExpireTime <- $r7
	@DEBUG_VALUE: prvProcessExpiredTimer:xTimeNow <- $r5
	@DEBUG_VALUE: prvProcessTimerOrBlockTask:xTimeNow <- $r5
	@DEBUG_VALUE: prvProcessTimerOrBlockTask:xNextExpireTime <- $r7
	@DEBUG_VALUE: prvProcessTimerOrBlockTask:xTimerListsWereSwitched <- [DW_OP_plus_uconst 8, DW_OP_deref] $sp
	@DEBUG_VALUE: prvTimerTask:xNextExpireTime <- $r7
	.loc	1 0 0                           @ ../../../../../../kernel/freertos/Source/timers.c:0:0
	ldr	r0, [r1]
	mov	r1, r2
	bl	vListInsert
.Ltmp54:
	@DEBUG_VALUE: prvInsertTimerInActiveList:xProcessTimerNow <- 0
	b	.LBB1_20
.Ltmp55:
.LBB1_15:                               @   in Loop: Header=BB1_1 Depth=1
	@DEBUG_VALUE: prvProcessTimerOrBlockTask:xListWasEmpty <- [DW_OP_constu 0, DW_OP_eq, DW_OP_LLVM_convert 1 7, DW_OP_LLVM_convert 32 7, DW_OP_stack_value] $r4
	@DEBUG_VALUE: prvProcessTimerOrBlockTask:xTimeNow <- $r5
	@DEBUG_VALUE: prvProcessTimerOrBlockTask:xNextExpireTime <- $r7
	@DEBUG_VALUE: prvProcessTimerOrBlockTask:xTimerListsWereSwitched <- [DW_OP_plus_uconst 8, DW_OP_deref] $sp
	@DEBUG_VALUE: prvTimerTask:xNextExpireTime <- $r7
	.loc	1 622 41 is_stmt 1              @ ../../../../../../kernel/freertos/Source/timers.c:622:41
	ldr	r0, __arm_cp.1_1
	ldr	r0, [r0]
	ldr	r0, [r0]
	rsbs	r2, r0, #0
	adcs	r2, r0
.Ltmp56:
	@DEBUG_VALUE: prvProcessTimerOrBlockTask:xListWasEmpty <- $r2
.LBB1_16:                               @   in Loop: Header=BB1_1 Depth=1
	@DEBUG_VALUE: prvProcessTimerOrBlockTask:xTimeNow <- $r5
	@DEBUG_VALUE: prvProcessTimerOrBlockTask:xNextExpireTime <- $r7
	@DEBUG_VALUE: prvProcessTimerOrBlockTask:xTimerListsWereSwitched <- [DW_OP_plus_uconst 8, DW_OP_deref] $sp
	@DEBUG_VALUE: prvTimerTask:xNextExpireTime <- $r7
	@DEBUG_VALUE: prvProcessTimerOrBlockTask:xListWasEmpty <- $r2
	.loc	1 625 84                        @ ../../../../../../kernel/freertos/Source/timers.c:625:84
	subs	r1, r7, r5
	.loc	1 625 53 is_stmt 0              @ ../../../../../../kernel/freertos/Source/timers.c:625:53
	ldr	r0, [r6]
	.loc	1 625 21                        @ ../../../../../../kernel/freertos/Source/timers.c:625:21
	bl	vQueueWaitForMessageRestricted
.Ltmp57:
	.loc	1 627 25 is_stmt 1              @ ../../../../../../kernel/freertos/Source/timers.c:627:25
	bl	xTaskResumeAll
.Ltmp58:
	.loc	1 627 25 is_stmt 0              @ ../../../../../../kernel/freertos/Source/timers.c:627:25
	cmp	r0, #0
	ldr	r7, __arm_cp.1_0
.Ltmp59:
	bne	.LBB1_22
.Ltmp60:
@ %bb.17:                               @   in Loop: Header=BB1_1 Depth=1
	@DEBUG_VALUE: prvProcessTimerOrBlockTask:xTimeNow <- $r5
	@DEBUG_VALUE: prvProcessTimerOrBlockTask:xTimerListsWereSwitched <- [DW_OP_plus_uconst 8, DW_OP_deref] $sp
	.loc	1 633 25 is_stmt 1              @ ../../../../../../kernel/freertos/Source/timers.c:633:25
	bl	vPortYield
.Ltmp61:
	.loc	1 0 25 is_stmt 0                @ ../../../../../../kernel/freertos/Source/timers.c:0:25
	b	.LBB1_22
.Ltmp62:
.LBB1_18:                               @   in Loop: Header=BB1_1 Depth=1
	@DEBUG_VALUE: prvProcessExpiredTimer:pxTimer <- $r4
	@DEBUG_VALUE: prvProcessExpiredTimer:xNextExpireTime <- $r7
	@DEBUG_VALUE: prvProcessExpiredTimer:xTimeNow <- $r5
	@DEBUG_VALUE: prvProcessTimerOrBlockTask:xTimeNow <- $r5
	@DEBUG_VALUE: prvProcessTimerOrBlockTask:xNextExpireTime <- $r7
	@DEBUG_VALUE: prvProcessTimerOrBlockTask:xTimerListsWereSwitched <- [DW_OP_plus_uconst 8, DW_OP_deref] $sp
	@DEBUG_VALUE: prvTimerTask:xNextExpireTime <- $r7
	@DEBUG_VALUE: prvInsertTimerInActiveList:xProcessTimerNow <- 1
	@DEBUG_VALUE: xTimerGenericCommand:xMessage <- undef
	@DEBUG_VALUE: xTimerGenericCommand:xTimer <- $r4
	@DEBUG_VALUE: xTimerGenericCommand:xCommandID <- 0
	@DEBUG_VALUE: xTimerGenericCommand:xOptionalValue <- $r7
	@DEBUG_VALUE: xTimerGenericCommand:pxHigherPriorityTaskWoken <- 0
	@DEBUG_VALUE: xTimerGenericCommand:xTicksToWait <- 0
	@DEBUG_VALUE: xTimerGenericCommand:xReturn <- 0
	.loc	1 390 13 is_stmt 1              @ ../../../../../../kernel/freertos/Source/timers.c:390:13
	ldr	r0, [r6]
.Ltmp63:
	.loc	1 390 13 is_stmt 0              @ ../../../../../../kernel/freertos/Source/timers.c:390:13
	cmp	r0, #0
	bne	.LBB1_19
	b	.LBB1_52
.Ltmp64:
.LBB1_19:                               @   in Loop: Header=BB1_1 Depth=1
	@DEBUG_VALUE: xTimerGenericCommand:xReturn <- 0
	@DEBUG_VALUE: xTimerGenericCommand:xTicksToWait <- 0
	@DEBUG_VALUE: xTimerGenericCommand:pxHigherPriorityTaskWoken <- 0
	@DEBUG_VALUE: xTimerGenericCommand:xOptionalValue <- $r7
	@DEBUG_VALUE: xTimerGenericCommand:xCommandID <- 0
	@DEBUG_VALUE: xTimerGenericCommand:xTimer <- $r4
	@DEBUG_VALUE: prvProcessExpiredTimer:pxTimer <- $r4
	@DEBUG_VALUE: prvProcessExpiredTimer:xNextExpireTime <- $r7
	@DEBUG_VALUE: prvProcessExpiredTimer:xTimeNow <- $r5
	@DEBUG_VALUE: prvProcessTimerOrBlockTask:xTimeNow <- $r5
	@DEBUG_VALUE: prvProcessTimerOrBlockTask:xNextExpireTime <- $r7
	@DEBUG_VALUE: prvProcessTimerOrBlockTask:xTimerListsWereSwitched <- [DW_OP_plus_uconst 8, DW_OP_deref] $sp
	@DEBUG_VALUE: prvTimerTask:xNextExpireTime <- $r7
	@DEBUG_VALUE: xTimerGenericCommand:xMessage <- [DW_OP_plus_uconst 20, DW_OP_plus_uconst 4, DW_OP_deref, DW_OP_LLVM_fragment 32 32] $sp
	.loc	1 395 49 is_stmt 1              @ ../../../../../../kernel/freertos/Source/timers.c:395:49
	str	r4, [sp, #28]
.Ltmp65:
	@DEBUG_VALUE: xTimerGenericCommand:xMessage <- [DW_OP_plus_uconst 20, DW_OP_deref, DW_OP_LLVM_fragment 0 32] $sp
	.loc	1 394 55                        @ ../../../../../../kernel/freertos/Source/timers.c:394:55
	str	r7, [sp, #24]
	movs	r5, #0
.Ltmp66:
	.loc	1 393 33                        @ ../../../../../../kernel/freertos/Source/timers.c:393:33
	str	r5, [sp, #20]
.Ltmp67:
	@DEBUG_VALUE: xTimerGenericCommand:xMessage <- [DW_OP_plus_uconst 20, DW_OP_plus_uconst 8, DW_OP_deref, DW_OP_LLVM_fragment 64 32] $sp
	.loc	1 399 21                        @ ../../../../../../kernel/freertos/Source/timers.c:399:21
	bl	xTaskGetSchedulerState
.Ltmp68:
	.loc	1 0 0 is_stmt 0                 @ ../../../../../../kernel/freertos/Source/timers.c:0:0
	ldr	r0, [r6]
	add	r1, sp, #20
	mov	r2, r5
	mov	r3, r5
	bl	xQueueGenericSend
.Ltmp69:
	@DEBUG_VALUE: prvProcessExpiredTimer:xResult <- $r0
	@DEBUG_VALUE: xTimerGenericCommand:xReturn <- $r0
	.loc	1 532 17 is_stmt 1              @ ../../../../../../kernel/freertos/Source/timers.c:532:17
	cmp	r0, #0
	bne	.LBB1_20
	b	.LBB1_52
.Ltmp70:
.LBB1_20:                               @   in Loop: Header=BB1_1 Depth=1
	@DEBUG_VALUE: prvProcessExpiredTimer:pxTimer <- $r4
	@DEBUG_VALUE: prvProcessExpiredTimer:xNextExpireTime <- $r7
	@DEBUG_VALUE: prvProcessTimerOrBlockTask:xNextExpireTime <- $r7
	@DEBUG_VALUE: prvProcessTimerOrBlockTask:xTimerListsWereSwitched <- [DW_OP_plus_uconst 8, DW_OP_deref] $sp
	@DEBUG_VALUE: prvTimerTask:xNextExpireTime <- $r7
	.loc	1 547 18                        @ ../../../../../../kernel/freertos/Source/timers.c:547:18
	ldr	r1, [r4, #32]
	.loc	1 547 9 is_stmt 0               @ ../../../../../../kernel/freertos/Source/timers.c:547:9
	mov	r0, r4
	blx	r1
.Ltmp71:
.LBB1_21:                               @   in Loop: Header=BB1_1 Depth=1
	@DEBUG_VALUE: prvProcessTimerOrBlockTask:xNextExpireTime <- $r7
	@DEBUG_VALUE: prvProcessTimerOrBlockTask:xTimerListsWereSwitched <- [DW_OP_plus_uconst 8, DW_OP_deref] $sp
	@DEBUG_VALUE: prvTimerTask:xNextExpireTime <- $r7
	.loc	1 0 9                           @ ../../../../../../kernel/freertos/Source/timers.c:0:9
	ldr	r7, __arm_cp.1_0
.Ltmp72:
.LBB1_22:                               @   in Loop: Header=BB1_1 Depth=1
	@DEBUG_VALUE: prvProcessReceivedCommands:xMessage <- [DW_OP_plus_uconst 8, DW_OP_deref] $sp
	@DEBUG_VALUE: prvProcessReceivedCommands:xTimerListsWereSwitched <- [DW_OP_plus_uconst 4, DW_OP_deref] $sp
	.loc	1 750 31 is_stmt 1              @ ../../../../../../kernel/freertos/Source/timers.c:750:31
	ldr	r0, [r6]
	add	r1, sp, #8
	movs	r4, #0
	.loc	1 750 16 is_stmt 0              @ ../../../../../../kernel/freertos/Source/timers.c:750:16
	mov	r2, r4
	b	.LBB1_24
.Ltmp73:
.LBB1_23:                               @   in Loop: Header=BB1_24 Depth=2
	@DEBUG_VALUE: prvProcessReceivedCommands:xTimerListsWereSwitched <- [DW_OP_plus_uconst 4, DW_OP_deref] $sp
	@DEBUG_VALUE: prvProcessReceivedCommands:xMessage <- [DW_OP_plus_uconst 8, DW_OP_deref] $sp
	.loc	1 750 31                        @ ../../../../../../kernel/freertos/Source/timers.c:750:31
	ldr	r0, [r6]
	add	r1, sp, #8
	movs	r2, #0
.Ltmp74:
.LBB1_24:                               @   Parent Loop BB1_1 Depth=1
                                        @ =>  This Inner Loop Header: Depth=2
	@DEBUG_VALUE: prvProcessReceivedCommands:xTimerListsWereSwitched <- [DW_OP_plus_uconst 4, DW_OP_deref] $sp
	@DEBUG_VALUE: prvProcessReceivedCommands:xMessage <- [DW_OP_plus_uconst 8, DW_OP_deref] $sp
	.loc	1 750 16                        @ ../../../../../../kernel/freertos/Source/timers.c:750:16
	bl	xQueueReceive
.Ltmp75:
	.loc	1 750 9                         @ ../../../../../../kernel/freertos/Source/timers.c:750:9
	cmp	r0, #0
	beq	.LBB1_1
.Ltmp76:
@ %bb.25:                               @   in Loop: Header=BB1_24 Depth=2
	@DEBUG_VALUE: prvProcessReceivedCommands:xTimerListsWereSwitched <- [DW_OP_plus_uconst 4, DW_OP_deref] $sp
	@DEBUG_VALUE: prvProcessReceivedCommands:xMessage <- [DW_OP_plus_uconst 8, DW_OP_deref] $sp
	.loc	1 776 26 is_stmt 1              @ ../../../../../../kernel/freertos/Source/timers.c:776:26
	ldr	r0, [sp, #8]
.Ltmp77:
	.loc	1 776 17 is_stmt 0              @ ../../../../../../kernel/freertos/Source/timers.c:776:17
	cmp	r0, #0
	bmi	.LBB1_23
.Ltmp78:
@ %bb.26:                               @   in Loop: Header=BB1_24 Depth=2
	@DEBUG_VALUE: prvProcessReceivedCommands:xTimerListsWereSwitched <- [DW_OP_plus_uconst 4, DW_OP_deref] $sp
	@DEBUG_VALUE: prvProcessReceivedCommands:xMessage <- [DW_OP_plus_uconst 8, DW_OP_deref] $sp
	.loc	1 780 55 is_stmt 1              @ ../../../../../../kernel/freertos/Source/timers.c:780:55
	ldr	r5, [sp, #16]
.Ltmp79:
	@DEBUG_VALUE: prvProcessReceivedCommands:pxTimer <- $r5
	.loc	1 782 21                        @ ../../../../../../kernel/freertos/Source/timers.c:782:21
	ldr	r0, [r5, #20]
.Ltmp80:
	.loc	1 782 21 is_stmt 0              @ ../../../../../../kernel/freertos/Source/timers.c:782:21
	cmp	r0, #0
	beq	.LBB1_28
.Ltmp81:
@ %bb.27:                               @   in Loop: Header=BB1_24 Depth=2
	@DEBUG_VALUE: prvProcessReceivedCommands:pxTimer <- $r5
	@DEBUG_VALUE: prvProcessReceivedCommands:xTimerListsWereSwitched <- [DW_OP_plus_uconst 4, DW_OP_deref] $sp
	@DEBUG_VALUE: prvProcessReceivedCommands:xMessage <- [DW_OP_plus_uconst 8, DW_OP_deref] $sp
	.loc	1 782 21                        @ ../../../../../../kernel/freertos/Source/timers.c:782:21
	adds	r0, r5, #4
.Ltmp82:
	.loc	1 785 30 is_stmt 1              @ ../../../../../../kernel/freertos/Source/timers.c:785:30
	bl	uxListRemove
.Ltmp83:
.LBB1_28:                               @   in Loop: Header=BB1_24 Depth=2
	@DEBUG_VALUE: prvProcessReceivedCommands:pxTimer <- $r5
	@DEBUG_VALUE: prvProcessReceivedCommands:xTimerListsWereSwitched <- [DW_OP_plus_uconst 4, DW_OP_deref] $sp
	@DEBUG_VALUE: prvProcessReceivedCommands:xMessage <- [DW_OP_plus_uconst 8, DW_OP_deref] $sp
	.loc	1 0 30 is_stmt 0                @ ../../../../../../kernel/freertos/Source/timers.c:0:30
	add	r0, sp, #4
	.loc	1 800 28 is_stmt 1              @ ../../../../../../kernel/freertos/Source/timers.c:800:28
	bl	prvSampleTimeNow
.Ltmp84:
	@DEBUG_VALUE: prvProcessReceivedCommands:xTimeNow <- $r0
	.loc	1 802 34                        @ ../../../../../../kernel/freertos/Source/timers.c:802:34
	ldr	r1, [sp, #8]
	.loc	1 802 17 is_stmt 0              @ ../../../../../../kernel/freertos/Source/timers.c:802:17
	cmp	r1, #9
	bhi	.LBB1_23
.Ltmp85:
@ %bb.29:                               @   in Loop: Header=BB1_24 Depth=2
	@DEBUG_VALUE: prvProcessReceivedCommands:xTimeNow <- $r0
	@DEBUG_VALUE: prvProcessReceivedCommands:pxTimer <- $r5
	@DEBUG_VALUE: prvProcessReceivedCommands:xTimerListsWereSwitched <- [DW_OP_plus_uconst 4, DW_OP_deref] $sp
	@DEBUG_VALUE: prvProcessReceivedCommands:xMessage <- [DW_OP_plus_uconst 8, DW_OP_deref] $sp
	.loc	1 0 17                          @ ../../../../../../kernel/freertos/Source/timers.c:0:17
	.p2align	2
	add	r1, pc
	ldrb	r1, [r1, #4]
	lsls	r1, r1, #1
.LCPI1_3:
	add	pc, r1
.Ltmp86:
@ %bb.30:
	.p2align	2
.LJTI1_0:
	.byte	(.LBB1_32-(.LCPI1_3+4))/2
	.byte	(.LBB1_32-(.LCPI1_3+4))/2
	.byte	(.LBB1_32-(.LCPI1_3+4))/2
	.byte	(.LBB1_31-(.LCPI1_3+4))/2
	.byte	(.LBB1_40-(.LCPI1_3+4))/2
	.byte	(.LBB1_45-(.LCPI1_3+4))/2
	.byte	(.LBB1_32-(.LCPI1_3+4))/2
	.byte	(.LBB1_32-(.LCPI1_3+4))/2
	.byte	(.LBB1_31-(.LCPI1_3+4))/2
	.byte	(.LBB1_40-(.LCPI1_3+4))/2
	.p2align	1
.LBB1_31:                               @   in Loop: Header=BB1_24 Depth=2
.Ltmp87:
	@DEBUG_VALUE: prvProcessReceivedCommands:xTimeNow <- $r0
	@DEBUG_VALUE: prvProcessReceivedCommands:pxTimer <- $r5
	@DEBUG_VALUE: prvProcessReceivedCommands:xTimerListsWereSwitched <- [DW_OP_plus_uconst 4, DW_OP_deref] $sp
	@DEBUG_VALUE: prvProcessReceivedCommands:xMessage <- [DW_OP_plus_uconst 8, DW_OP_deref] $sp
	movs	r0, #40
.Ltmp88:
	.loc	1 840 43 is_stmt 1              @ ../../../../../../kernel/freertos/Source/timers.c:840:43
	ldrb	r1, [r5, r0]
	movs	r2, #254
	ands	r2, r1
	strb	r2, [r5, r0]
	b	.LBB1_23
.Ltmp89:
.LBB1_32:                               @   in Loop: Header=BB1_24 Depth=2
	@DEBUG_VALUE: prvProcessReceivedCommands:xTimeNow <- $r0
	@DEBUG_VALUE: prvProcessReceivedCommands:pxTimer <- $r5
	@DEBUG_VALUE: prvProcessReceivedCommands:xTimerListsWereSwitched <- [DW_OP_plus_uconst 4, DW_OP_deref] $sp
	@DEBUG_VALUE: prvProcessReceivedCommands:xMessage <- [DW_OP_plus_uconst 8, DW_OP_deref] $sp
	.loc	1 0 43 is_stmt 0                @ ../../../../../../kernel/freertos/Source/timers.c:0:43
	movs	r1, #40
	.loc	1 810 43 is_stmt 1              @ ../../../../../../kernel/freertos/Source/timers.c:810:43
	ldrb	r2, [r5, r1]
	movs	r3, #1
	orrs	r3, r2
	strb	r3, [r5, r1]
.Ltmp90:
	.loc	1 812 119                       @ ../../../../../../kernel/freertos/Source/timers.c:812:119
	ldr	r3, [r5, #24]
	.loc	1 812 94 is_stmt 0              @ ../../../../../../kernel/freertos/Source/timers.c:812:94
	ldr	r1, [sp, #12]
	.loc	1 812 108                       @ ../../../../../../kernel/freertos/Source/timers.c:812:108
	adds	r2, r3, r1
.Ltmp91:
	@DEBUG_VALUE: prvInsertTimerInActiveList:xNextExpiryTime <- $r2
	.loc	1 706 9 is_stmt 1               @ ../../../../../../kernel/freertos/Source/timers.c:706:9
	str	r2, [r5, #4]
	.loc	1 707 9                         @ ../../../../../../kernel/freertos/Source/timers.c:707:9
	str	r5, [r5, #16]
.Ltmp92:
	@DEBUG_VALUE: prvInsertTimerInActiveList:xCommandTime <- $r1
	@DEBUG_VALUE: prvInsertTimerInActiveList:xProcessTimerNow <- 0
	@DEBUG_VALUE: prvInsertTimerInActiveList:xTimeNow <- $r0
	@DEBUG_VALUE: prvInsertTimerInActiveList:pxTimer <- $r5
	.loc	1 709 13                        @ ../../../../../../kernel/freertos/Source/timers.c:709:13
	cmp	r2, r0
	bls	.LBB1_38
.Ltmp93:
@ %bb.33:                               @   in Loop: Header=BB1_24 Depth=2
	@DEBUG_VALUE: prvInsertTimerInActiveList:pxTimer <- $r5
	@DEBUG_VALUE: prvInsertTimerInActiveList:xTimeNow <- $r0
	@DEBUG_VALUE: prvInsertTimerInActiveList:xProcessTimerNow <- 0
	@DEBUG_VALUE: prvInsertTimerInActiveList:xCommandTime <- $r1
	@DEBUG_VALUE: prvInsertTimerInActiveList:xNextExpiryTime <- $r2
	@DEBUG_VALUE: prvProcessReceivedCommands:xTimeNow <- $r0
	@DEBUG_VALUE: prvProcessReceivedCommands:pxTimer <- $r5
	@DEBUG_VALUE: prvProcessReceivedCommands:xTimerListsWereSwitched <- [DW_OP_plus_uconst 4, DW_OP_deref] $sp
	@DEBUG_VALUE: prvProcessReceivedCommands:xMessage <- [DW_OP_plus_uconst 8, DW_OP_deref] $sp
	.loc	1 726 45                        @ ../../../../../../kernel/freertos/Source/timers.c:726:45
	cmp	r0, r1
	mov	r0, r7
.Ltmp94:
	bhs	.LBB1_39
.Ltmp95:
@ %bb.34:                               @   in Loop: Header=BB1_24 Depth=2
	@DEBUG_VALUE: prvInsertTimerInActiveList:pxTimer <- $r5
	@DEBUG_VALUE: prvInsertTimerInActiveList:xProcessTimerNow <- 0
	@DEBUG_VALUE: prvInsertTimerInActiveList:xCommandTime <- $r1
	@DEBUG_VALUE: prvInsertTimerInActiveList:xNextExpiryTime <- $r2
	@DEBUG_VALUE: prvProcessReceivedCommands:pxTimer <- $r5
	@DEBUG_VALUE: prvProcessReceivedCommands:xTimerListsWereSwitched <- [DW_OP_plus_uconst 4, DW_OP_deref] $sp
	@DEBUG_VALUE: prvProcessReceivedCommands:xMessage <- [DW_OP_plus_uconst 8, DW_OP_deref] $sp
	cmp	r2, r1
	mov	r0, r7
	blo	.LBB1_39
.Ltmp96:
.LBB1_35:                               @   in Loop: Header=BB1_24 Depth=2
	@DEBUG_VALUE: prvProcessReceivedCommands:pxTimer <- $r5
	@DEBUG_VALUE: prvProcessReceivedCommands:xTimerListsWereSwitched <- [DW_OP_plus_uconst 4, DW_OP_deref] $sp
	@DEBUG_VALUE: prvProcessReceivedCommands:xMessage <- [DW_OP_plus_uconst 8, DW_OP_deref] $sp
	.loc	1 0 0 is_stmt 0                 @ ../../../../../../kernel/freertos/Source/timers.c:0:0
	mov	r7, r5
	adds	r7, #40
	@DEBUG_VALUE: prvInsertTimerInActiveList:xProcessTimerNow <- 1
.Ltmp97:
	.loc	1 816 38 is_stmt 1              @ ../../../../../../kernel/freertos/Source/timers.c:816:38
	ldr	r1, [r5, #32]
	.loc	1 816 29 is_stmt 0              @ ../../../../../../kernel/freertos/Source/timers.c:816:29
	mov	r0, r5
	blx	r1
.Ltmp98:
	.loc	1 819 44 is_stmt 1              @ ../../../../../../kernel/freertos/Source/timers.c:819:44
	ldrb	r0, [r7]
	ldr	r7, __arm_cp.1_0
.Ltmp99:
	.loc	1 819 33 is_stmt 0              @ ../../../../../../kernel/freertos/Source/timers.c:819:33
	lsls	r0, r0, #29
	bpl	.LBB1_23
.Ltmp100:
@ %bb.36:                               @   in Loop: Header=BB1_24 Depth=2
	@DEBUG_VALUE: prvProcessReceivedCommands:pxTimer <- $r5
	@DEBUG_VALUE: prvProcessReceivedCommands:xTimerListsWereSwitched <- [DW_OP_plus_uconst 4, DW_OP_deref] $sp
	@DEBUG_VALUE: prvProcessReceivedCommands:xMessage <- [DW_OP_plus_uconst 8, DW_OP_deref] $sp
	@DEBUG_VALUE: xTimerGenericCommand:xMessage <- undef
	@DEBUG_VALUE: xTimerGenericCommand:xTimer <- $r5
	@DEBUG_VALUE: xTimerGenericCommand:xCommandID <- 0
	@DEBUG_VALUE: xTimerGenericCommand:xOptionalValue <- [DW_OP_LLVM_arg 0, DW_OP_LLVM_arg 0, DW_OP_plus, DW_OP_stack_value] undef
	@DEBUG_VALUE: xTimerGenericCommand:pxHigherPriorityTaskWoken <- 0
	@DEBUG_VALUE: xTimerGenericCommand:xTicksToWait <- 0
	@DEBUG_VALUE: xTimerGenericCommand:xReturn <- 0
	.loc	1 390 13 is_stmt 1              @ ../../../../../../kernel/freertos/Source/timers.c:390:13
	ldr	r0, [r6]
.Ltmp101:
	.loc	1 390 13 is_stmt 0              @ ../../../../../../kernel/freertos/Source/timers.c:390:13
	cmp	r0, #0
	beq	.LBB1_48
.Ltmp102:
@ %bb.37:                               @   in Loop: Header=BB1_24 Depth=2
	@DEBUG_VALUE: xTimerGenericCommand:xReturn <- 0
	@DEBUG_VALUE: xTimerGenericCommand:xTicksToWait <- 0
	@DEBUG_VALUE: xTimerGenericCommand:pxHigherPriorityTaskWoken <- 0
	@DEBUG_VALUE: xTimerGenericCommand:xCommandID <- 0
	@DEBUG_VALUE: xTimerGenericCommand:xTimer <- $r5
	@DEBUG_VALUE: prvProcessReceivedCommands:pxTimer <- $r5
	@DEBUG_VALUE: prvProcessReceivedCommands:xTimerListsWereSwitched <- [DW_OP_plus_uconst 4, DW_OP_deref] $sp
	@DEBUG_VALUE: prvProcessReceivedCommands:xMessage <- [DW_OP_plus_uconst 8, DW_OP_deref] $sp
	.loc	1 821 0 is_stmt 1               @ ../../../../../../kernel/freertos/Source/timers.c:821:0
	ldr	r0, [r5, #24]
	@DEBUG_VALUE: xTimerGenericCommand:xOptionalValue <- [DW_OP_LLVM_arg 0, DW_OP_LLVM_arg 0, DW_OP_plus, DW_OP_stack_value] undef
	ldr	r1, [sp, #12]
.Ltmp103:
	@DEBUG_VALUE: xTimerGenericCommand:xMessage <- [DW_OP_plus_uconst 20, DW_OP_plus_uconst 4, DW_OP_deref, DW_OP_LLVM_fragment 32 32] $sp
	@DEBUG_VALUE: xTimerGenericCommand:xOptionalValue <- [DW_OP_LLVM_arg 0, DW_OP_LLVM_arg 1, DW_OP_plus, DW_OP_stack_value] $r1, $r0
	.loc	1 395 49                        @ ../../../../../../kernel/freertos/Source/timers.c:395:49
	str	r5, [sp, #28]
.Ltmp104:
	.loc	1 821 145                       @ ../../../../../../kernel/freertos/Source/timers.c:821:145
	adds	r0, r0, r1
.Ltmp105:
	@DEBUG_VALUE: xTimerGenericCommand:xMessage <- [DW_OP_plus_uconst 20, DW_OP_deref, DW_OP_LLVM_fragment 0 32] $sp
	@DEBUG_VALUE: xTimerGenericCommand:xOptionalValue <- $r0
	.loc	1 394 55                        @ ../../../../../../kernel/freertos/Source/timers.c:394:55
	str	r0, [sp, #24]
.Ltmp106:
	@DEBUG_VALUE: xTimerGenericCommand:xMessage <- [DW_OP_plus_uconst 20, DW_OP_plus_uconst 4, DW_OP_deref, DW_OP_LLVM_fragment 32 32] $sp
	.loc	1 393 33                        @ ../../../../../../kernel/freertos/Source/timers.c:393:33
	str	r4, [sp, #20]
.Ltmp107:
	@DEBUG_VALUE: xTimerGenericCommand:xMessage <- [DW_OP_plus_uconst 20, DW_OP_plus_uconst 8, DW_OP_deref, DW_OP_LLVM_fragment 64 32] $sp
	.loc	1 399 21                        @ ../../../../../../kernel/freertos/Source/timers.c:399:21
	bl	xTaskGetSchedulerState
.Ltmp108:
	.loc	1 0 0 is_stmt 0                 @ ../../../../../../kernel/freertos/Source/timers.c:0:0
	ldr	r0, [r6]
	add	r1, sp, #20
	mov	r2, r4
	mov	r3, r4
	bl	xQueueGenericSend
.Ltmp109:
	@DEBUG_VALUE: prvProcessReceivedCommands:xResult <- $r0
	@DEBUG_VALUE: xTimerGenericCommand:xReturn <- $r0
	.loc	1 822 33 is_stmt 1              @ ../../../../../../kernel/freertos/Source/timers.c:822:33
	cmp	r0, #0
	bne	.LBB1_23
	b	.LBB1_48
.Ltmp110:
.LBB1_38:                               @   in Loop: Header=BB1_24 Depth=2
	@DEBUG_VALUE: prvInsertTimerInActiveList:pxTimer <- $r5
	@DEBUG_VALUE: prvInsertTimerInActiveList:xTimeNow <- $r0
	@DEBUG_VALUE: prvInsertTimerInActiveList:xProcessTimerNow <- 0
	@DEBUG_VALUE: prvInsertTimerInActiveList:xCommandTime <- $r1
	@DEBUG_VALUE: prvInsertTimerInActiveList:xNextExpiryTime <- $r2
	@DEBUG_VALUE: prvProcessReceivedCommands:xTimeNow <- $r0
	@DEBUG_VALUE: prvProcessReceivedCommands:pxTimer <- $r5
	@DEBUG_VALUE: prvProcessReceivedCommands:xTimerListsWereSwitched <- [DW_OP_plus_uconst 4, DW_OP_deref] $sp
	@DEBUG_VALUE: prvProcessReceivedCommands:xMessage <- [DW_OP_plus_uconst 8, DW_OP_deref] $sp
	.loc	1 713 45                        @ ../../../../../../kernel/freertos/Source/timers.c:713:45
	subs	r0, r0, r1
.Ltmp111:
	.loc	1 713 17 is_stmt 0              @ ../../../../../../kernel/freertos/Source/timers.c:713:17
	cmp	r0, r3
	ldr	r0, __arm_cp.1_1
	bhs	.LBB1_35
.Ltmp112:
.LBB1_39:                               @   in Loop: Header=BB1_24 Depth=2
	@DEBUG_VALUE: prvInsertTimerInActiveList:pxTimer <- $r5
	@DEBUG_VALUE: prvInsertTimerInActiveList:xProcessTimerNow <- 0
	@DEBUG_VALUE: prvInsertTimerInActiveList:xCommandTime <- $r1
	@DEBUG_VALUE: prvInsertTimerInActiveList:xNextExpiryTime <- $r2
	@DEBUG_VALUE: prvProcessReceivedCommands:pxTimer <- $r5
	@DEBUG_VALUE: prvProcessReceivedCommands:xTimerListsWereSwitched <- [DW_OP_plus_uconst 4, DW_OP_deref] $sp
	@DEBUG_VALUE: prvProcessReceivedCommands:xMessage <- [DW_OP_plus_uconst 8, DW_OP_deref] $sp
	.loc	1 0 0                           @ ../../../../../../kernel/freertos/Source/timers.c:0:0
	adds	r1, r5, #4
.Ltmp113:
	ldr	r0, [r0]
	b	.LBB1_44
.Ltmp114:
.LBB1_40:                               @   in Loop: Header=BB1_24 Depth=2
	@DEBUG_VALUE: prvProcessReceivedCommands:xTimeNow <- $r0
	@DEBUG_VALUE: prvProcessReceivedCommands:pxTimer <- $r5
	@DEBUG_VALUE: prvProcessReceivedCommands:xTimerListsWereSwitched <- [DW_OP_plus_uconst 4, DW_OP_deref] $sp
	@DEBUG_VALUE: prvProcessReceivedCommands:xMessage <- [DW_OP_plus_uconst 8, DW_OP_deref] $sp
	movs	r1, #40
	.loc	1 845 43 is_stmt 1              @ ../../../../../../kernel/freertos/Source/timers.c:845:43
	ldrb	r2, [r5, r1]
	movs	r3, #1
	orrs	r3, r2
	strb	r3, [r5, r1]
	.loc	1 846 84                        @ ../../../../../../kernel/freertos/Source/timers.c:846:84
	ldr	r1, [sp, #12]
	.loc	1 846 54 is_stmt 0              @ ../../../../../../kernel/freertos/Source/timers.c:846:54
	str	r1, [r5, #24]
	.loc	1 847 25 is_stmt 1              @ ../../../../../../kernel/freertos/Source/timers.c:847:25
	cmp	r1, #0
	beq	.LBB1_50
.Ltmp115:
@ %bb.41:                               @   in Loop: Header=BB1_24 Depth=2
	@DEBUG_VALUE: prvProcessReceivedCommands:xTimeNow <- $r0
	@DEBUG_VALUE: prvProcessReceivedCommands:pxTimer <- $r5
	@DEBUG_VALUE: prvProcessReceivedCommands:xTimerListsWereSwitched <- [DW_OP_plus_uconst 4, DW_OP_deref] $sp
	@DEBUG_VALUE: prvProcessReceivedCommands:xMessage <- [DW_OP_plus_uconst 8, DW_OP_deref] $sp
	.loc	1 855 82                        @ ../../../../../../kernel/freertos/Source/timers.c:855:82
	adds	r1, r1, r0
.Ltmp116:
	@DEBUG_VALUE: prvInsertTimerInActiveList:xNextExpiryTime <- $r1
	.loc	1 706 9                         @ ../../../../../../kernel/freertos/Source/timers.c:706:9
	str	r1, [r5, #4]
	.loc	1 707 9                         @ ../../../../../../kernel/freertos/Source/timers.c:707:9
	str	r5, [r5, #16]
.Ltmp117:
	.loc	1 0 0 is_stmt 0                 @ ../../../../../../kernel/freertos/Source/timers.c:0:0
	cmp	r1, r0
	mov	r0, r7
.Ltmp118:
	bhi	.LBB1_43
.Ltmp119:
@ %bb.42:                               @   in Loop: Header=BB1_24 Depth=2
	@DEBUG_VALUE: prvInsertTimerInActiveList:xNextExpiryTime <- $r1
	@DEBUG_VALUE: prvProcessReceivedCommands:pxTimer <- $r5
	@DEBUG_VALUE: prvProcessReceivedCommands:xTimerListsWereSwitched <- [DW_OP_plus_uconst 4, DW_OP_deref] $sp
	@DEBUG_VALUE: prvProcessReceivedCommands:xMessage <- [DW_OP_plus_uconst 8, DW_OP_deref] $sp
	ldr	r0, __arm_cp.1_1
.Ltmp120:
.LBB1_43:                               @   in Loop: Header=BB1_24 Depth=2
	@DEBUG_VALUE: prvInsertTimerInActiveList:xNextExpiryTime <- $r1
	@DEBUG_VALUE: prvProcessReceivedCommands:pxTimer <- $r5
	@DEBUG_VALUE: prvProcessReceivedCommands:xTimerListsWereSwitched <- [DW_OP_plus_uconst 4, DW_OP_deref] $sp
	@DEBUG_VALUE: prvProcessReceivedCommands:xMessage <- [DW_OP_plus_uconst 8, DW_OP_deref] $sp
	ldr	r0, [r0]
.Ltmp121:
	@DEBUG_VALUE: prvInsertTimerInActiveList:xProcessTimerNow <- 0
	@DEBUG_VALUE: prvInsertTimerInActiveList:xCommandTime <- undef
	@DEBUG_VALUE: prvInsertTimerInActiveList:xTimeNow <- undef
	@DEBUG_VALUE: prvInsertTimerInActiveList:pxTimer <- $r5
	.loc	1 706 9 is_stmt 1               @ ../../../../../../kernel/freertos/Source/timers.c:706:9
	adds	r1, r5, #4
.Ltmp122:
.LBB1_44:                               @   in Loop: Header=BB1_24 Depth=2
	@DEBUG_VALUE: prvProcessReceivedCommands:pxTimer <- $r5
	@DEBUG_VALUE: prvProcessReceivedCommands:xTimerListsWereSwitched <- [DW_OP_plus_uconst 4, DW_OP_deref] $sp
	@DEBUG_VALUE: prvProcessReceivedCommands:xMessage <- [DW_OP_plus_uconst 8, DW_OP_deref] $sp
	.loc	1 0 0 is_stmt 0                 @ ../../../../../../kernel/freertos/Source/timers.c:0:0
	bl	vListInsert
.Ltmp123:
	@DEBUG_VALUE: prvInsertTimerInActiveList:xProcessTimerNow <- 0
	b	.LBB1_23
.Ltmp124:
.LBB1_45:                               @   in Loop: Header=BB1_24 Depth=2
	@DEBUG_VALUE: prvProcessReceivedCommands:xTimeNow <- $r0
	@DEBUG_VALUE: prvProcessReceivedCommands:pxTimer <- $r5
	@DEBUG_VALUE: prvProcessReceivedCommands:xTimerListsWereSwitched <- [DW_OP_plus_uconst 4, DW_OP_deref] $sp
	@DEBUG_VALUE: prvProcessReceivedCommands:xMessage <- [DW_OP_plus_uconst 8, DW_OP_deref] $sp
	movs	r0, #40
.Ltmp125:
	.loc	1 864 48 is_stmt 1              @ ../../../../../../kernel/freertos/Source/timers.c:864:48
	ldrb	r0, [r5, r0]
.Ltmp126:
	.loc	1 864 37 is_stmt 0              @ ../../../../../../kernel/freertos/Source/timers.c:864:37
	lsls	r1, r0, #30
	bmi	.LBB1_47
.Ltmp127:
@ %bb.46:                               @   in Loop: Header=BB1_24 Depth=2
	@DEBUG_VALUE: prvProcessReceivedCommands:pxTimer <- $r5
	@DEBUG_VALUE: prvProcessReceivedCommands:xTimerListsWereSwitched <- [DW_OP_plus_uconst 4, DW_OP_deref] $sp
	@DEBUG_VALUE: prvProcessReceivedCommands:xMessage <- [DW_OP_plus_uconst 8, DW_OP_deref] $sp
	.loc	1 866 37 is_stmt 1              @ ../../../../../../kernel/freertos/Source/timers.c:866:37
	mov	r0, r5
	bl	vPortFree
.Ltmp128:
	.loc	1 0 37 is_stmt 0                @ ../../../../../../kernel/freertos/Source/timers.c:0:37
	b	.LBB1_23
.Ltmp129:
.LBB1_47:                               @   in Loop: Header=BB1_24 Depth=2
	@DEBUG_VALUE: prvProcessReceivedCommands:pxTimer <- $r5
	@DEBUG_VALUE: prvProcessReceivedCommands:xTimerListsWereSwitched <- [DW_OP_plus_uconst 4, DW_OP_deref] $sp
	@DEBUG_VALUE: prvProcessReceivedCommands:xMessage <- [DW_OP_plus_uconst 8, DW_OP_deref] $sp
	adds	r5, #40
.Ltmp130:
	movs	r1, #254
.Ltmp131:
	.loc	1 870 55 is_stmt 1              @ ../../../../../../kernel/freertos/Source/timers.c:870:55
	ands	r0, r1
	strb	r0, [r5]
	b	.LBB1_23
.Ltmp132:
.LBB1_48:
	@DEBUG_VALUE: prvProcessReceivedCommands:pxTimer <- $r5
	@DEBUG_VALUE: prvProcessReceivedCommands:xTimerListsWereSwitched <- [DW_OP_plus_uconst 4, DW_OP_deref] $sp
	@DEBUG_VALUE: prvProcessReceivedCommands:xMessage <- [DW_OP_plus_uconst 8, DW_OP_deref] $sp
	.loc	1 822 33                        @ ../../../../../../kernel/freertos/Source/timers.c:822:33
	@APP
	cpsid i
	@NO_APP
.Ltmp133:
.LBB1_49:                               @ =>This Inner Loop Header: Depth=1
	@DEBUG_VALUE: prvProcessReceivedCommands:pxTimer <- $r5
	@DEBUG_VALUE: prvProcessReceivedCommands:xTimerListsWereSwitched <- [DW_OP_plus_uconst 4, DW_OP_deref] $sp
	@DEBUG_VALUE: prvProcessReceivedCommands:xMessage <- [DW_OP_plus_uconst 8, DW_OP_deref] $sp
	.loc	1 822 33 is_stmt 0              @ ../../../../../../kernel/freertos/Source/timers.c:822:33
	b	.LBB1_49
.Ltmp134:
.LBB1_50:
	@DEBUG_VALUE: prvProcessReceivedCommands:xTimeNow <- $r0
	@DEBUG_VALUE: prvProcessReceivedCommands:pxTimer <- $r5
	@DEBUG_VALUE: prvProcessReceivedCommands:xTimerListsWereSwitched <- [DW_OP_plus_uconst 4, DW_OP_deref] $sp
	@DEBUG_VALUE: prvProcessReceivedCommands:xMessage <- [DW_OP_plus_uconst 8, DW_OP_deref] $sp
	.loc	1 847 25 is_stmt 1              @ ../../../../../../kernel/freertos/Source/timers.c:847:25
	@APP
	cpsid i
	@NO_APP
.Ltmp135:
.LBB1_51:                               @ =>This Inner Loop Header: Depth=1
	@DEBUG_VALUE: prvProcessReceivedCommands:xTimeNow <- $r0
	@DEBUG_VALUE: prvProcessReceivedCommands:pxTimer <- $r5
	@DEBUG_VALUE: prvProcessReceivedCommands:xTimerListsWereSwitched <- [DW_OP_plus_uconst 4, DW_OP_deref] $sp
	@DEBUG_VALUE: prvProcessReceivedCommands:xMessage <- [DW_OP_plus_uconst 8, DW_OP_deref] $sp
	.loc	1 847 25 is_stmt 0              @ ../../../../../../kernel/freertos/Source/timers.c:847:25
	b	.LBB1_51
.Ltmp136:
.LBB1_52:
	@DEBUG_VALUE: prvProcessExpiredTimer:pxTimer <- $r4
	@DEBUG_VALUE: prvProcessExpiredTimer:xNextExpireTime <- $r7
	@DEBUG_VALUE: prvProcessTimerOrBlockTask:xNextExpireTime <- $r7
	@DEBUG_VALUE: prvProcessTimerOrBlockTask:xTimerListsWereSwitched <- [DW_OP_plus_uconst 8, DW_OP_deref] $sp
	@DEBUG_VALUE: prvTimerTask:xNextExpireTime <- $r7
	.loc	1 532 17 is_stmt 1              @ ../../../../../../kernel/freertos/Source/timers.c:532:17
	@APP
	cpsid i
	@NO_APP
.Ltmp137:
.LBB1_53:                               @ =>This Inner Loop Header: Depth=1
	@DEBUG_VALUE: prvProcessExpiredTimer:pxTimer <- $r4
	@DEBUG_VALUE: prvProcessExpiredTimer:xNextExpireTime <- $r7
	@DEBUG_VALUE: prvProcessTimerOrBlockTask:xNextExpireTime <- $r7
	@DEBUG_VALUE: prvProcessTimerOrBlockTask:xTimerListsWereSwitched <- [DW_OP_plus_uconst 8, DW_OP_deref] $sp
	@DEBUG_VALUE: prvTimerTask:xNextExpireTime <- $r7
	.loc	1 532 17 is_stmt 0              @ ../../../../../../kernel/freertos/Source/timers.c:532:17
	b	.LBB1_53
.Ltmp138:
	.p2align	2
@ %bb.54:
	.loc	1 0 17                          @ ../../../../../../kernel/freertos/Source/timers.c:0:17
__arm_cp.1_0:
	.long	pxCurrentTimerList
.Lcpi_end9:
	.size	__arm_cp.1_0, .Lcpi_end9-__arm_cp.1_0
__arm_cp.1_1:
	.long	pxOverflowTimerList
.Lcpi_end10:
	.size	__arm_cp.1_1, .Lcpi_end10-__arm_cp.1_1
__arm_cp.1_2:
	.long	xTimerQueue
.Lcpi_end11:
	.size	__arm_cp.1_2, .Lcpi_end11-__arm_cp.1_2
.Lfunc_end1:
	.size	prvTimerTask, .Lfunc_end1-prvTimerTask
	.cfi_endproc
	.cantunwind
	.fnend
                                        @ -- End function
	.section	.text.xTimerCreate,"ax",%progbits
	.hidden	xTimerCreate                    @ -- Begin function xTimerCreate
	.globl	xTimerCreate
	.p2align	1
	.type	xTimerCreate,%function
	.code	16                              @ @xTimerCreate
	.thumb_func
xTimerCreate:
.Lfunc_begin2:
	.loc	1 281 0 is_stmt 1               @ ../../../../../../kernel/freertos/Source/timers.c:281:0
	.fnstart
	.cfi_startproc
@ %bb.0:
	@DEBUG_VALUE: xTimerCreate:pcTimerName <- $r0
	@DEBUG_VALUE: xTimerCreate:xTimerPeriodInTicks <- $r1
	@DEBUG_VALUE: xTimerCreate:uxAutoReload <- $r2
	@DEBUG_VALUE: xTimerCreate:pvTimerID <- $r3
	.save	{r4, r5, r6, r7, lr}
	push	{r4, r5, r6, r7, lr}
	.cfi_def_cfa_offset 20
	.cfi_offset lr, -4
	.cfi_offset r7, -8
	.cfi_offset r6, -12
	.cfi_offset r5, -16
	.cfi_offset r4, -20
	.pad	#12
	sub	sp, #12
	.cfi_def_cfa_offset 32
.Ltmp139:
	@DEBUG_VALUE: xTimerCreate:pxCallbackFunction <- [DW_OP_plus_uconst 32] [$sp+0]
	str	r3, [sp, #8]                    @ 4-byte Spill
.Ltmp140:
	@DEBUG_VALUE: xTimerCreate:pvTimerID <- [DW_OP_plus_uconst 8] [$sp+0]
	mov	r5, r2
.Ltmp141:
	@DEBUG_VALUE: xTimerCreate:uxAutoReload <- $r5
	mov	r6, r1
.Ltmp142:
	@DEBUG_VALUE: xTimerCreate:xTimerPeriodInTicks <- $r6
	mov	r4, r0
.Ltmp143:
	@DEBUG_VALUE: xTimerCreate:pcTimerName <- $r4
	movs	r0, #44
.Ltmp144:
	.loc	1 284 40 prologue_end           @ ../../../../../../kernel/freertos/Source/timers.c:284:40
	bl	pvPortMalloc
.Ltmp145:
	mov	r7, r0
.Ltmp146:
	@DEBUG_VALUE: xTimerCreate:pxNewTimer <- $r7
	.loc	1 286 17                        @ ../../../../../../kernel/freertos/Source/timers.c:286:17
	cmp	r0, #0
	beq	.LBB2_2
.Ltmp147:
@ %bb.1:
	@DEBUG_VALUE: xTimerCreate:pxNewTimer <- $r7
	@DEBUG_VALUE: xTimerCreate:pcTimerName <- $r4
	@DEBUG_VALUE: xTimerCreate:xTimerPeriodInTicks <- $r6
	@DEBUG_VALUE: xTimerCreate:uxAutoReload <- $r5
	@DEBUG_VALUE: xTimerCreate:pvTimerID <- [DW_OP_plus_uconst 8] [$sp+0]
	@DEBUG_VALUE: xTimerCreate:pxCallbackFunction <- [DW_OP_plus_uconst 32] [$sp+0]
	.loc	1 0 17 is_stmt 0                @ ../../../../../../kernel/freertos/Source/timers.c:0:17
	ldr	r0, [sp, #32]
	movs	r1, #40
	movs	r2, #0
.Ltmp148:
	.loc	1 291 38 is_stmt 1              @ ../../../../../../kernel/freertos/Source/timers.c:291:38
	strb	r2, [r7, r1]
	.loc	1 292 17                        @ ../../../../../../kernel/freertos/Source/timers.c:292:17
	str	r0, [sp]
	str	r7, [sp, #4]
	mov	r0, r4
	mov	r1, r6
	mov	r2, r5
	ldr	r3, [sp, #8]                    @ 4-byte Reload
	bl	prvInitialiseNewTimer
.Ltmp149:
.LBB2_2:
	@DEBUG_VALUE: xTimerCreate:pxNewTimer <- $r7
	@DEBUG_VALUE: xTimerCreate:pcTimerName <- $r4
	@DEBUG_VALUE: xTimerCreate:xTimerPeriodInTicks <- $r6
	@DEBUG_VALUE: xTimerCreate:uxAutoReload <- $r5
	@DEBUG_VALUE: xTimerCreate:pvTimerID <- [DW_OP_plus_uconst 8] [$sp+0]
	@DEBUG_VALUE: xTimerCreate:pxCallbackFunction <- [DW_OP_plus_uconst 32] [$sp+0]
	.loc	1 295 13                        @ ../../../../../../kernel/freertos/Source/timers.c:295:13
	mov	r0, r7
	.loc	1 295 13 epilogue_begin is_stmt 0 @ ../../../../../../kernel/freertos/Source/timers.c:295:13
	add	sp, #12
	pop	{r4, r5, r6, r7, pc}
.Ltmp150:
.Lfunc_end2:
	.size	xTimerCreate, .Lfunc_end2-xTimerCreate
	.cfi_endproc
	.cantunwind
	.fnend
                                        @ -- End function
	.section	.text.prvInitialiseNewTimer,"ax",%progbits
	.p2align	2                               @ -- Begin function prvInitialiseNewTimer
	.type	prvInitialiseNewTimer,%function
	.code	16                              @ @prvInitialiseNewTimer
	.thumb_func
prvInitialiseNewTimer:
.Lfunc_begin3:
	.loc	1 349 0 is_stmt 1               @ ../../../../../../kernel/freertos/Source/timers.c:349:0
	.fnstart
	.cfi_startproc
@ %bb.0:
	@DEBUG_VALUE: prvInitialiseNewTimer:pcTimerName <- $r0
	@DEBUG_VALUE: prvInitialiseNewTimer:xTimerPeriodInTicks <- $r1
	@DEBUG_VALUE: prvInitialiseNewTimer:uxAutoReload <- $r2
	@DEBUG_VALUE: prvInitialiseNewTimer:pvTimerID <- $r3
	@DEBUG_VALUE: prvInitialiseNewTimer:pvTimerID <- $r3
	@DEBUG_VALUE: prvInitialiseNewTimer:xTimerPeriodInTicks <- $r1
	@DEBUG_VALUE: prvInitialiseNewTimer:pcTimerName <- $r0
	.save	{r4, r5, r6, r7, lr}
	push	{r4, r5, r6, r7, lr}
	.cfi_def_cfa_offset 20
	.cfi_offset lr, -4
	.cfi_offset r7, -8
	.cfi_offset r6, -12
	.cfi_offset r5, -16
	.cfi_offset r4, -20
	.pad	#12
	sub	sp, #12
	.cfi_def_cfa_offset 32
.Ltmp151:
	@DEBUG_VALUE: prvInitialiseNewTimer:pxCallbackFunction <- [DW_OP_plus_uconst 32] [$sp+0]
	@DEBUG_VALUE: prvInitialiseNewTimer:pxNewTimer <- [DW_OP_plus_uconst 36] [$sp+0]
	.loc	1 351 9 prologue_end            @ ../../../../../../kernel/freertos/Source/timers.c:351:9
	cmp	r1, #0
	beq	.LBB3_6
.Ltmp152:
@ %bb.1:
	@DEBUG_VALUE: prvInitialiseNewTimer:pxNewTimer <- [DW_OP_plus_uconst 36] [$sp+0]
	@DEBUG_VALUE: prvInitialiseNewTimer:pxCallbackFunction <- [DW_OP_plus_uconst 32] [$sp+0]
	@DEBUG_VALUE: prvInitialiseNewTimer:pvTimerID <- $r3
	@DEBUG_VALUE: prvInitialiseNewTimer:uxAutoReload <- $r2
	@DEBUG_VALUE: prvInitialiseNewTimer:xTimerPeriodInTicks <- $r1
	@DEBUG_VALUE: prvInitialiseNewTimer:pcTimerName <- $r0
	.loc	1 0 9 is_stmt 0                 @ ../../../../../../kernel/freertos/Source/timers.c:0:9
	mov	r5, r3
.Ltmp153:
	@DEBUG_VALUE: prvInitialiseNewTimer:pvTimerID <- $r5
	mov	r7, r1
.Ltmp154:
	@DEBUG_VALUE: prvInitialiseNewTimer:xTimerPeriodInTicks <- $r7
	mov	r6, r0
.Ltmp155:
	@DEBUG_VALUE: prvInitialiseNewTimer:pcTimerName <- $r6
	str	r2, [sp, #8]                    @ 4-byte Spill
.Ltmp156:
	@DEBUG_VALUE: prvInitialiseNewTimer:uxAutoReload <- [DW_OP_plus_uconst 8] [$sp+0]
	ldr	r4, [sp, #36]
	ldr	r0, [sp, #32]
.Ltmp157:
	.loc	1 958 9 is_stmt 1               @ ../../../../../../kernel/freertos/Source/timers.c:958:9
	str	r0, [sp, #4]                    @ 4-byte Spill
	bl	vPortEnterCritical
.Ltmp158:
	.loc	1 960 17                        @ ../../../../../../kernel/freertos/Source/timers.c:960:17
	ldr	r0, __arm_cp.3_0
	ldr	r0, [r0]
.Ltmp159:
	.loc	1 960 17 is_stmt 0              @ ../../../../../../kernel/freertos/Source/timers.c:960:17
	cmp	r0, #0
	bne	.LBB3_3
.Ltmp160:
@ %bb.2:
	@DEBUG_VALUE: prvInitialiseNewTimer:uxAutoReload <- [DW_OP_plus_uconst 8] [$sp+0]
	@DEBUG_VALUE: prvInitialiseNewTimer:pcTimerName <- $r6
	@DEBUG_VALUE: prvInitialiseNewTimer:xTimerPeriodInTicks <- $r7
	@DEBUG_VALUE: prvInitialiseNewTimer:pvTimerID <- $r5
	@DEBUG_VALUE: prvInitialiseNewTimer:pxNewTimer <- [DW_OP_plus_uconst 36] [$sp+0]
	@DEBUG_VALUE: prvInitialiseNewTimer:pxCallbackFunction <- [DW_OP_plus_uconst 32] [$sp+0]
	.loc	1 962 17 is_stmt 1              @ ../../../../../../kernel/freertos/Source/timers.c:962:17
	ldr	r0, __arm_cp.3_1
	bl	vListInitialise
.Ltmp161:
	.loc	1 963 17                        @ ../../../../../../kernel/freertos/Source/timers.c:963:17
	ldr	r0, __arm_cp.3_2
	bl	vListInitialise
.Ltmp162:
	.loc	1 965 37                        @ ../../../../../../kernel/freertos/Source/timers.c:965:37
	ldr	r0, __arm_cp.3_3
	ldr	r1, __arm_cp.3_2
	str	r1, [r0]
	.loc	1 964 36                        @ ../../../../../../kernel/freertos/Source/timers.c:964:36
	ldr	r0, __arm_cp.3_4
	ldr	r1, __arm_cp.3_1
	str	r1, [r0]
	movs	r0, #0
.Ltmp163:
	.loc	1 974 39                        @ ../../../../../../kernel/freertos/Source/timers.c:974:39
	str	r0, [sp]
	movs	r0, #20
	movs	r1, #12
	ldr	r2, __arm_cp.3_5
	ldr	r3, __arm_cp.3_6
	bl	xQueueGenericCreateStatic
.Ltmp164:
	.loc	1 974 37 is_stmt 0              @ ../../../../../../kernel/freertos/Source/timers.c:974:37
	ldr	r1, __arm_cp.3_0
	str	r0, [r1]
.Ltmp165:
.LBB3_3:
	@DEBUG_VALUE: prvInitialiseNewTimer:uxAutoReload <- [DW_OP_plus_uconst 8] [$sp+0]
	@DEBUG_VALUE: prvInitialiseNewTimer:pcTimerName <- $r6
	@DEBUG_VALUE: prvInitialiseNewTimer:xTimerPeriodInTicks <- $r7
	@DEBUG_VALUE: prvInitialiseNewTimer:pvTimerID <- $r5
	@DEBUG_VALUE: prvInitialiseNewTimer:pxNewTimer <- [DW_OP_plus_uconst 36] [$sp+0]
	@DEBUG_VALUE: prvInitialiseNewTimer:pxCallbackFunction <- [DW_OP_plus_uconst 32] [$sp+0]
	.loc	1 1000 9 is_stmt 1              @ ../../../../../../kernel/freertos/Source/timers.c:1000:9
	bl	vPortExitCritical
.Ltmp166:
	.loc	1 362 45                        @ ../../../../../../kernel/freertos/Source/timers.c:362:45
	str	r7, [r4, #24]
	.loc	1 363 35                        @ ../../../../../../kernel/freertos/Source/timers.c:363:35
	str	r5, [r4, #28]
	.loc	1 364 44                        @ ../../../../../../kernel/freertos/Source/timers.c:364:44
	ldr	r0, [sp, #4]                    @ 4-byte Reload
	str	r0, [r4, #32]
	.loc	1 361 37                        @ ../../../../../../kernel/freertos/Source/timers.c:361:37
	str	r6, [r4]
	.loc	1 365 49                        @ ../../../../../../kernel/freertos/Source/timers.c:365:49
	adds	r0, r4, #4
	.loc	1 365 13 is_stmt 0              @ ../../../../../../kernel/freertos/Source/timers.c:365:13
	bl	vListInitialiseItem
.Ltmp167:
	.loc	1 367 17 is_stmt 1              @ ../../../../../../kernel/freertos/Source/timers.c:367:17
	ldr	r0, [sp, #8]                    @ 4-byte Reload
.Ltmp168:
	@DEBUG_VALUE: prvInitialiseNewTimer:uxAutoReload <- $r0
	cmp	r0, #0
	beq	.LBB3_5
.Ltmp169:
@ %bb.4:
	@DEBUG_VALUE: prvInitialiseNewTimer:uxAutoReload <- $r0
	@DEBUG_VALUE: prvInitialiseNewTimer:pcTimerName <- $r6
	@DEBUG_VALUE: prvInitialiseNewTimer:xTimerPeriodInTicks <- $r7
	@DEBUG_VALUE: prvInitialiseNewTimer:pvTimerID <- $r5
	@DEBUG_VALUE: prvInitialiseNewTimer:pxNewTimer <- [DW_OP_plus_uconst 36] [$sp+0]
	@DEBUG_VALUE: prvInitialiseNewTimer:pxCallbackFunction <- [DW_OP_plus_uconst 32] [$sp+0]
	.loc	1 0 17 is_stmt 0                @ ../../../../../../kernel/freertos/Source/timers.c:0:17
	movs	r0, #40
.Ltmp170:
	@DEBUG_VALUE: prvInitialiseNewTimer:uxAutoReload <- [DW_OP_LLVM_entry_value 1] $r2
	.loc	1 369 38 is_stmt 1              @ ../../../../../../kernel/freertos/Source/timers.c:369:38
	ldrb	r1, [r4, r0]
	movs	r2, #4
	orrs	r2, r1
	strb	r2, [r4, r0]
.Ltmp171:
.LBB3_5:
	@DEBUG_VALUE: prvInitialiseNewTimer:pcTimerName <- $r6
	@DEBUG_VALUE: prvInitialiseNewTimer:xTimerPeriodInTicks <- $r7
	@DEBUG_VALUE: prvInitialiseNewTimer:pvTimerID <- $r5
	@DEBUG_VALUE: prvInitialiseNewTimer:pxNewTimer <- [DW_OP_plus_uconst 36] [$sp+0]
	@DEBUG_VALUE: prvInitialiseNewTimer:pxCallbackFunction <- [DW_OP_plus_uconst 32] [$sp+0]
	.loc	1 374 5 epilogue_begin          @ ../../../../../../kernel/freertos/Source/timers.c:374:5
	add	sp, #12
	pop	{r4, r5, r6, r7, pc}
.Ltmp172:
.LBB3_6:
	@DEBUG_VALUE: prvInitialiseNewTimer:pxNewTimer <- [DW_OP_plus_uconst 36] [$sp+0]
	@DEBUG_VALUE: prvInitialiseNewTimer:pxCallbackFunction <- [DW_OP_plus_uconst 32] [$sp+0]
	@DEBUG_VALUE: prvInitialiseNewTimer:pvTimerID <- $r3
	@DEBUG_VALUE: prvInitialiseNewTimer:uxAutoReload <- $r2
	@DEBUG_VALUE: prvInitialiseNewTimer:xTimerPeriodInTicks <- $r1
	@DEBUG_VALUE: prvInitialiseNewTimer:pcTimerName <- $r0
	.loc	1 351 9                         @ ../../../../../../kernel/freertos/Source/timers.c:351:9
	@APP
	cpsid i
	@NO_APP
.Ltmp173:
.LBB3_7:                                @ =>This Inner Loop Header: Depth=1
	@DEBUG_VALUE: prvInitialiseNewTimer:pxNewTimer <- [DW_OP_plus_uconst 36] [$sp+0]
	@DEBUG_VALUE: prvInitialiseNewTimer:pxCallbackFunction <- [DW_OP_plus_uconst 32] [$sp+0]
	@DEBUG_VALUE: prvInitialiseNewTimer:pvTimerID <- $r3
	@DEBUG_VALUE: prvInitialiseNewTimer:uxAutoReload <- $r2
	@DEBUG_VALUE: prvInitialiseNewTimer:xTimerPeriodInTicks <- $r1
	@DEBUG_VALUE: prvInitialiseNewTimer:pcTimerName <- $r0
	.loc	1 351 9 is_stmt 0               @ ../../../../../../kernel/freertos/Source/timers.c:351:9
	b	.LBB3_7
.Ltmp174:
	.p2align	2
@ %bb.8:
	.loc	1 0 9                           @ ../../../../../../kernel/freertos/Source/timers.c:0:9
__arm_cp.3_0:
	.long	xTimerQueue
.Lcpi_end12:
	.size	__arm_cp.3_0, .Lcpi_end12-__arm_cp.3_0
__arm_cp.3_1:
	.long	xActiveTimerList1
.Lcpi_end13:
	.size	__arm_cp.3_1, .Lcpi_end13-__arm_cp.3_1
__arm_cp.3_2:
	.long	xActiveTimerList2
.Lcpi_end14:
	.size	__arm_cp.3_2, .Lcpi_end14-__arm_cp.3_2
__arm_cp.3_3:
	.long	pxOverflowTimerList
.Lcpi_end15:
	.size	__arm_cp.3_3, .Lcpi_end15-__arm_cp.3_3
__arm_cp.3_4:
	.long	pxCurrentTimerList
.Lcpi_end16:
	.size	__arm_cp.3_4, .Lcpi_end16-__arm_cp.3_4
__arm_cp.3_5:
	.long	prvCheckForValidListAndQueue.ucStaticTimerQueueStorage
.Lcpi_end17:
	.size	__arm_cp.3_5, .Lcpi_end17-__arm_cp.3_5
__arm_cp.3_6:
	.long	prvCheckForValidListAndQueue.xStaticTimerQueue
.Lcpi_end18:
	.size	__arm_cp.3_6, .Lcpi_end18-__arm_cp.3_6
.Lfunc_end3:
	.size	prvInitialiseNewTimer, .Lfunc_end3-prvInitialiseNewTimer
	.cfi_endproc
	.cantunwind
	.fnend
                                        @ -- End function
	.section	.text.xTimerCreateStatic,"ax",%progbits
	.hidden	xTimerCreateStatic              @ -- Begin function xTimerCreateStatic
	.globl	xTimerCreateStatic
	.p2align	1
	.type	xTimerCreateStatic,%function
	.code	16                              @ @xTimerCreateStatic
	.thumb_func
xTimerCreateStatic:
.Lfunc_begin4:
	.loc	1 309 0 is_stmt 1               @ ../../../../../../kernel/freertos/Source/timers.c:309:0
	.fnstart
	.cfi_startproc
@ %bb.0:
	@DEBUG_VALUE: xTimerCreateStatic:pcTimerName <- $r0
	@DEBUG_VALUE: xTimerCreateStatic:xTimerPeriodInTicks <- $r1
	@DEBUG_VALUE: xTimerCreateStatic:uxAutoReload <- $r2
	@DEBUG_VALUE: xTimerCreateStatic:pvTimerID <- $r3
	.save	{r4, r5, r6, r7, lr}
	push	{r4, r5, r6, r7, lr}
	.cfi_def_cfa_offset 20
	.cfi_offset lr, -4
	.cfi_offset r7, -8
	.cfi_offset r6, -12
	.cfi_offset r5, -16
	.cfi_offset r4, -20
	.pad	#12
	sub	sp, #12
	.cfi_def_cfa_offset 32
.Ltmp175:
	@DEBUG_VALUE: xTimerCreateStatic:pxCallbackFunction <- [DW_OP_plus_uconst 32] [$sp+0]
	@DEBUG_VALUE: xTimerCreateStatic:pxTimerBuffer <- [DW_OP_plus_uconst 36] [$sp+0]
	movs	r4, #44
.Ltmp176:
	.loc	1 317 37 prologue_end           @ ../../../../../../kernel/freertos/Source/timers.c:317:37
	str	r4, [sp, #8]
.Ltmp177:
	.loc	1 318 21                        @ ../../../../../../kernel/freertos/Source/timers.c:318:21
	ldr	r4, [sp, #8]
.Ltmp178:
	.loc	1 318 21 is_stmt 0              @ ../../../../../../kernel/freertos/Source/timers.c:318:21
	cmp	r4, #44
	bne	.LBB4_3
.Ltmp179:
@ %bb.1:
	@DEBUG_VALUE: xTimerCreateStatic:pxTimerBuffer <- [DW_OP_plus_uconst 36] [$sp+0]
	@DEBUG_VALUE: xTimerCreateStatic:pxCallbackFunction <- [DW_OP_plus_uconst 32] [$sp+0]
	@DEBUG_VALUE: xTimerCreateStatic:pvTimerID <- $r3
	@DEBUG_VALUE: xTimerCreateStatic:uxAutoReload <- $r2
	@DEBUG_VALUE: xTimerCreateStatic:xTimerPeriodInTicks <- $r1
	@DEBUG_VALUE: xTimerCreateStatic:pcTimerName <- $r0
	.loc	1 0 21                          @ ../../../../../../kernel/freertos/Source/timers.c:0:21
	ldr	r4, [sp, #36]
	.loc	1 319 30 is_stmt 1              @ ../../../../../../kernel/freertos/Source/timers.c:319:30
	ldr	r5, [sp, #8]
.Ltmp180:
	.loc	1 324 13                        @ ../../../../../../kernel/freertos/Source/timers.c:324:13
	cmp	r4, #0
	beq	.LBB4_5
.Ltmp181:
@ %bb.2:
	@DEBUG_VALUE: xTimerCreateStatic:pxTimerBuffer <- [DW_OP_plus_uconst 36] [$sp+0]
	@DEBUG_VALUE: xTimerCreateStatic:pxCallbackFunction <- [DW_OP_plus_uconst 32] [$sp+0]
	@DEBUG_VALUE: xTimerCreateStatic:pvTimerID <- $r3
	@DEBUG_VALUE: xTimerCreateStatic:uxAutoReload <- $r2
	@DEBUG_VALUE: xTimerCreateStatic:xTimerPeriodInTicks <- $r1
	@DEBUG_VALUE: xTimerCreateStatic:pcTimerName <- $r0
	.loc	1 0 13 is_stmt 0                @ ../../../../../../kernel/freertos/Source/timers.c:0:13
	ldr	r5, [sp, #32]
.Ltmp182:
	@DEBUG_VALUE: xTimerCreateStatic:pxNewTimer <- $r4
	movs	r6, #40
	movs	r7, #2
.Ltmp183:
	.loc	1 332 38 is_stmt 1              @ ../../../../../../kernel/freertos/Source/timers.c:332:38
	strb	r7, [r4, r6]
	.loc	1 334 17                        @ ../../../../../../kernel/freertos/Source/timers.c:334:17
	str	r5, [sp]
	str	r4, [sp, #4]
	bl	prvInitialiseNewTimer
.Ltmp184:
	@DEBUG_VALUE: xTimerCreateStatic:pvTimerID <- [DW_OP_LLVM_entry_value 1] $r3
	@DEBUG_VALUE: xTimerCreateStatic:uxAutoReload <- [DW_OP_LLVM_entry_value 1] $r2
	@DEBUG_VALUE: xTimerCreateStatic:xTimerPeriodInTicks <- [DW_OP_LLVM_entry_value 1] $r1
	@DEBUG_VALUE: xTimerCreateStatic:pcTimerName <- [DW_OP_LLVM_entry_value 1] $r0
	.loc	1 337 13                        @ ../../../../../../kernel/freertos/Source/timers.c:337:13
	mov	r0, r4
	.loc	1 337 13 epilogue_begin is_stmt 0 @ ../../../../../../kernel/freertos/Source/timers.c:337:13
	add	sp, #12
	pop	{r4, r5, r6, r7, pc}
.Ltmp185:
.LBB4_3:
	@DEBUG_VALUE: xTimerCreateStatic:pxTimerBuffer <- [DW_OP_plus_uconst 36] [$sp+0]
	@DEBUG_VALUE: xTimerCreateStatic:pxCallbackFunction <- [DW_OP_plus_uconst 32] [$sp+0]
	@DEBUG_VALUE: xTimerCreateStatic:pvTimerID <- $r3
	@DEBUG_VALUE: xTimerCreateStatic:uxAutoReload <- $r2
	@DEBUG_VALUE: xTimerCreateStatic:xTimerPeriodInTicks <- $r1
	@DEBUG_VALUE: xTimerCreateStatic:pcTimerName <- $r0
	.loc	1 318 21 is_stmt 1              @ ../../../../../../kernel/freertos/Source/timers.c:318:21
	@APP
	cpsid i
	@NO_APP
.Ltmp186:
.LBB4_4:                                @ =>This Inner Loop Header: Depth=1
	@DEBUG_VALUE: xTimerCreateStatic:pxTimerBuffer <- [DW_OP_plus_uconst 36] [$sp+0]
	@DEBUG_VALUE: xTimerCreateStatic:pxCallbackFunction <- [DW_OP_plus_uconst 32] [$sp+0]
	@DEBUG_VALUE: xTimerCreateStatic:pvTimerID <- $r3
	@DEBUG_VALUE: xTimerCreateStatic:uxAutoReload <- $r2
	@DEBUG_VALUE: xTimerCreateStatic:xTimerPeriodInTicks <- $r1
	@DEBUG_VALUE: xTimerCreateStatic:pcTimerName <- $r0
	.loc	1 318 21 is_stmt 0              @ ../../../../../../kernel/freertos/Source/timers.c:318:21
	b	.LBB4_4
.Ltmp187:
.LBB4_5:
	@DEBUG_VALUE: xTimerCreateStatic:pxTimerBuffer <- [DW_OP_plus_uconst 36] [$sp+0]
	@DEBUG_VALUE: xTimerCreateStatic:pxCallbackFunction <- [DW_OP_plus_uconst 32] [$sp+0]
	@DEBUG_VALUE: xTimerCreateStatic:pvTimerID <- $r3
	@DEBUG_VALUE: xTimerCreateStatic:uxAutoReload <- $r2
	@DEBUG_VALUE: xTimerCreateStatic:xTimerPeriodInTicks <- $r1
	@DEBUG_VALUE: xTimerCreateStatic:pcTimerName <- $r0
	.loc	1 324 13 is_stmt 1              @ ../../../../../../kernel/freertos/Source/timers.c:324:13
	@APP
	cpsid i
	@NO_APP
.Ltmp188:
.LBB4_6:                                @ =>This Inner Loop Header: Depth=1
	@DEBUG_VALUE: xTimerCreateStatic:pxTimerBuffer <- [DW_OP_plus_uconst 36] [$sp+0]
	@DEBUG_VALUE: xTimerCreateStatic:pxCallbackFunction <- [DW_OP_plus_uconst 32] [$sp+0]
	@DEBUG_VALUE: xTimerCreateStatic:pvTimerID <- $r3
	@DEBUG_VALUE: xTimerCreateStatic:uxAutoReload <- $r2
	@DEBUG_VALUE: xTimerCreateStatic:xTimerPeriodInTicks <- $r1
	@DEBUG_VALUE: xTimerCreateStatic:pcTimerName <- $r0
	.loc	1 324 13 is_stmt 0              @ ../../../../../../kernel/freertos/Source/timers.c:324:13
	b	.LBB4_6
.Ltmp189:
.Lfunc_end4:
	.size	xTimerCreateStatic, .Lfunc_end4-xTimerCreateStatic
	.cfi_endproc
	.cantunwind
	.fnend
                                        @ -- End function
	.section	.text.xTimerGenericCommand,"ax",%progbits
	.hidden	xTimerGenericCommand            @ -- Begin function xTimerGenericCommand
	.globl	xTimerGenericCommand
	.p2align	2
	.type	xTimerGenericCommand,%function
	.code	16                              @ @xTimerGenericCommand
	.thumb_func
xTimerGenericCommand:
.Lfunc_begin5:
	.loc	1 382 0 is_stmt 1               @ ../../../../../../kernel/freertos/Source/timers.c:382:0
	.fnstart
	.cfi_startproc
@ %bb.0:
	@DEBUG_VALUE: xTimerGenericCommand:xTimer <- $r0
	@DEBUG_VALUE: xTimerGenericCommand:xCommandID <- $r1
	@DEBUG_VALUE: xTimerGenericCommand:xOptionalValue <- $r2
	@DEBUG_VALUE: xTimerGenericCommand:pxHigherPriorityTaskWoken <- $r3
	@DEBUG_VALUE: xTimerGenericCommand:xTimer <- $r0
	.save	{r4, r5, r7, lr}
	push	{r4, r5, r7, lr}
	.cfi_def_cfa_offset 16
	.cfi_offset lr, -4
	.cfi_offset r7, -8
	.cfi_offset r5, -12
	.cfi_offset r4, -16
	.pad	#16
	sub	sp, #16
	.cfi_def_cfa_offset 32
.Ltmp190:
	@DEBUG_VALUE: xTimerGenericCommand:xTicksToWait <- [DW_OP_plus_uconst 32] [$sp+0]
	@DEBUG_VALUE: xTimerGenericCommand:xReturn <- 0
	.loc	1 386 9 prologue_end            @ ../../../../../../kernel/freertos/Source/timers.c:386:9
	cmp	r0, #0
	beq	.LBB5_5
.Ltmp191:
@ %bb.1:
	@DEBUG_VALUE: xTimerGenericCommand:xReturn <- 0
	@DEBUG_VALUE: xTimerGenericCommand:xTicksToWait <- [DW_OP_plus_uconst 32] [$sp+0]
	@DEBUG_VALUE: xTimerGenericCommand:pxHigherPriorityTaskWoken <- $r3
	@DEBUG_VALUE: xTimerGenericCommand:xOptionalValue <- $r2
	@DEBUG_VALUE: xTimerGenericCommand:xCommandID <- $r1
	@DEBUG_VALUE: xTimerGenericCommand:xTimer <- $r0
	.loc	1 0 9 is_stmt 0                 @ ../../../../../../kernel/freertos/Source/timers.c:0:9
	mov	r4, r0
.Ltmp192:
	@DEBUG_VALUE: xTimerGenericCommand:xTimer <- $r4
	.loc	1 390 13 is_stmt 1              @ ../../../../../../kernel/freertos/Source/timers.c:390:13
	ldr	r5, __arm_cp.5_0
	ldr	r0, [r5]
.Ltmp193:
	.loc	1 390 13 is_stmt 0              @ ../../../../../../kernel/freertos/Source/timers.c:390:13
	cmp	r0, #0
	beq	.LBB5_7
.Ltmp194:
@ %bb.2:
	@DEBUG_VALUE: xTimerGenericCommand:xTimer <- $r4
	@DEBUG_VALUE: xTimerGenericCommand:xReturn <- 0
	@DEBUG_VALUE: xTimerGenericCommand:xTicksToWait <- [DW_OP_plus_uconst 32] [$sp+0]
	@DEBUG_VALUE: xTimerGenericCommand:pxHigherPriorityTaskWoken <- $r3
	@DEBUG_VALUE: xTimerGenericCommand:xOptionalValue <- $r2
	@DEBUG_VALUE: xTimerGenericCommand:xCommandID <- $r1
	.loc	1 393 33 is_stmt 1              @ ../../../../../../kernel/freertos/Source/timers.c:393:33
	add	r7, sp, #4
	stm	r7!, {r1, r2, r4}
	.loc	1 397 17                        @ ../../../../../../kernel/freertos/Source/timers.c:397:17
	cmp	r1, #5
	bgt	.LBB5_8
.Ltmp195:
@ %bb.3:
	@DEBUG_VALUE: xTimerGenericCommand:xTimer <- $r4
	@DEBUG_VALUE: xTimerGenericCommand:xReturn <- 0
	@DEBUG_VALUE: xTimerGenericCommand:xTicksToWait <- [DW_OP_plus_uconst 32] [$sp+0]
	@DEBUG_VALUE: xTimerGenericCommand:pxHigherPriorityTaskWoken <- $r3
	@DEBUG_VALUE: xTimerGenericCommand:xOptionalValue <- $r2
	@DEBUG_VALUE: xTimerGenericCommand:xCommandID <- $r1
	.loc	1 399 21                        @ ../../../../../../kernel/freertos/Source/timers.c:399:21
	bl	xTaskGetSchedulerState
.Ltmp196:
	@DEBUG_VALUE: xTimerGenericCommand:pxHigherPriorityTaskWoken <- [DW_OP_LLVM_entry_value 1] $r3
	@DEBUG_VALUE: xTimerGenericCommand:xOptionalValue <- [DW_OP_LLVM_entry_value 1] $r2
	@DEBUG_VALUE: xTimerGenericCommand:xCommandID <- [DW_OP_LLVM_entry_value 1] $r1
	mov	r1, r0
	.loc	1 0 0 is_stmt 0                 @ ../../../../../../kernel/freertos/Source/timers.c:0:0
	ldr	r0, [r5]
.Ltmp197:
	.loc	1 399 21                        @ ../../../../../../kernel/freertos/Source/timers.c:399:21
	cmp	r1, #2
	bne	.LBB5_9
.Ltmp198:
@ %bb.4:
	@DEBUG_VALUE: xTimerGenericCommand:pxHigherPriorityTaskWoken <- [DW_OP_LLVM_entry_value 1] $r3
	@DEBUG_VALUE: xTimerGenericCommand:xOptionalValue <- [DW_OP_LLVM_entry_value 1] $r2
	@DEBUG_VALUE: xTimerGenericCommand:xCommandID <- [DW_OP_LLVM_entry_value 1] $r1
	@DEBUG_VALUE: xTimerGenericCommand:xTimer <- $r4
	@DEBUG_VALUE: xTimerGenericCommand:xReturn <- 0
	@DEBUG_VALUE: xTimerGenericCommand:xTicksToWait <- [DW_OP_plus_uconst 32] [$sp+0]
	.loc	1 0 21                          @ ../../../../../../kernel/freertos/Source/timers.c:0:21
	ldr	r2, [sp, #32]
	add	r1, sp, #4
	movs	r3, #0
	b	.LBB5_10
.Ltmp199:
.LBB5_5:
	@DEBUG_VALUE: xTimerGenericCommand:xReturn <- 0
	@DEBUG_VALUE: xTimerGenericCommand:xTicksToWait <- [DW_OP_plus_uconst 32] [$sp+0]
	@DEBUG_VALUE: xTimerGenericCommand:pxHigherPriorityTaskWoken <- $r3
	@DEBUG_VALUE: xTimerGenericCommand:xOptionalValue <- $r2
	@DEBUG_VALUE: xTimerGenericCommand:xCommandID <- $r1
	@DEBUG_VALUE: xTimerGenericCommand:xTimer <- $r0
	.loc	1 386 9 is_stmt 1               @ ../../../../../../kernel/freertos/Source/timers.c:386:9
	@APP
	cpsid i
	@NO_APP
.Ltmp200:
.LBB5_6:                                @ =>This Inner Loop Header: Depth=1
	@DEBUG_VALUE: xTimerGenericCommand:xReturn <- 0
	@DEBUG_VALUE: xTimerGenericCommand:xTicksToWait <- [DW_OP_plus_uconst 32] [$sp+0]
	@DEBUG_VALUE: xTimerGenericCommand:pxHigherPriorityTaskWoken <- $r3
	@DEBUG_VALUE: xTimerGenericCommand:xOptionalValue <- $r2
	@DEBUG_VALUE: xTimerGenericCommand:xCommandID <- $r1
	@DEBUG_VALUE: xTimerGenericCommand:xTimer <- $r0
	.loc	1 386 9 is_stmt 0               @ ../../../../../../kernel/freertos/Source/timers.c:386:9
	b	.LBB5_6
.Ltmp201:
.LBB5_7:
	@DEBUG_VALUE: xTimerGenericCommand:xTimer <- $r4
	@DEBUG_VALUE: xTimerGenericCommand:xReturn <- 0
	@DEBUG_VALUE: xTimerGenericCommand:xTicksToWait <- [DW_OP_plus_uconst 32] [$sp+0]
	@DEBUG_VALUE: xTimerGenericCommand:pxHigherPriorityTaskWoken <- $r3
	@DEBUG_VALUE: xTimerGenericCommand:xOptionalValue <- $r2
	@DEBUG_VALUE: xTimerGenericCommand:xCommandID <- $r1
	.loc	1 0 9                           @ ../../../../../../kernel/freertos/Source/timers.c:0:9
	movs	r0, #0
.Ltmp202:
	@DEBUG_VALUE: xTimerGenericCommand:xReturn <- $r0
	.loc	1 420 9 epilogue_begin is_stmt 1 @ ../../../../../../kernel/freertos/Source/timers.c:420:9
	add	sp, #16
	pop	{r4, r5, r7, pc}
.Ltmp203:
.LBB5_8:
	@DEBUG_VALUE: xTimerGenericCommand:xTimer <- $r4
	@DEBUG_VALUE: xTimerGenericCommand:xReturn <- 0
	@DEBUG_VALUE: xTimerGenericCommand:xTicksToWait <- [DW_OP_plus_uconst 32] [$sp+0]
	@DEBUG_VALUE: xTimerGenericCommand:pxHigherPriorityTaskWoken <- $r3
	@DEBUG_VALUE: xTimerGenericCommand:xOptionalValue <- $r2
	@DEBUG_VALUE: xTimerGenericCommand:xCommandID <- $r1
	.loc	1 0 9 is_stmt 0                 @ ../../../../../../kernel/freertos/Source/timers.c:0:9
	add	r1, sp, #4
.Ltmp204:
	@DEBUG_VALUE: xTimerGenericCommand:xCommandID <- [DW_OP_LLVM_entry_value 1] $r1
	movs	r4, #0
.Ltmp205:
	@DEBUG_VALUE: xTimerGenericCommand:xTimer <- [DW_OP_LLVM_entry_value 1] $r0
	.loc	1 410 27 is_stmt 1              @ ../../../../../../kernel/freertos/Source/timers.c:410:27
	mov	r2, r3
.Ltmp206:
	@DEBUG_VALUE: xTimerGenericCommand:xOptionalValue <- [DW_OP_LLVM_entry_value 1] $r2
	mov	r3, r4
.Ltmp207:
	@DEBUG_VALUE: xTimerGenericCommand:pxHigherPriorityTaskWoken <- [DW_OP_LLVM_entry_value 1] $r3
	bl	xQueueGenericSendFromISR
.Ltmp208:
	@DEBUG_VALUE: xTimerGenericCommand:xReturn <- $r0
	@DEBUG_VALUE: xTimerGenericCommand:xReturn <- $r0
	.loc	1 420 9 epilogue_begin          @ ../../../../../../kernel/freertos/Source/timers.c:420:9
	add	sp, #16
	pop	{r4, r5, r7, pc}
.Ltmp209:
.LBB5_9:
	@DEBUG_VALUE: xTimerGenericCommand:pxHigherPriorityTaskWoken <- [DW_OP_LLVM_entry_value 1] $r3
	@DEBUG_VALUE: xTimerGenericCommand:xOptionalValue <- [DW_OP_LLVM_entry_value 1] $r2
	@DEBUG_VALUE: xTimerGenericCommand:xCommandID <- [DW_OP_LLVM_entry_value 1] $r1
	@DEBUG_VALUE: xTimerGenericCommand:xTimer <- $r4
	@DEBUG_VALUE: xTimerGenericCommand:xReturn <- 0
	@DEBUG_VALUE: xTimerGenericCommand:xTicksToWait <- [DW_OP_plus_uconst 32] [$sp+0]
	.loc	1 0 9 is_stmt 0                 @ ../../../../../../kernel/freertos/Source/timers.c:0:9
	add	r1, sp, #4
	movs	r2, #0
.Ltmp210:
	.loc	1 405 31 is_stmt 1              @ ../../../../../../kernel/freertos/Source/timers.c:405:31
	mov	r3, r2
.Ltmp211:
.LBB5_10:
	@DEBUG_VALUE: xTimerGenericCommand:pxHigherPriorityTaskWoken <- [DW_OP_LLVM_entry_value 1] $r3
	@DEBUG_VALUE: xTimerGenericCommand:xOptionalValue <- [DW_OP_LLVM_entry_value 1] $r2
	@DEBUG_VALUE: xTimerGenericCommand:xCommandID <- [DW_OP_LLVM_entry_value 1] $r1
	@DEBUG_VALUE: xTimerGenericCommand:xTimer <- $r4
	@DEBUG_VALUE: xTimerGenericCommand:xReturn <- 0
	@DEBUG_VALUE: xTimerGenericCommand:xTicksToWait <- [DW_OP_plus_uconst 32] [$sp+0]
	.loc	1 0 0 is_stmt 0                 @ ../../../../../../kernel/freertos/Source/timers.c:0:0
	bl	xQueueGenericSend
.Ltmp212:
	@DEBUG_VALUE: xTimerGenericCommand:xReturn <- $r0
	@DEBUG_VALUE: xTimerGenericCommand:xReturn <- $r0
	.loc	1 420 9 epilogue_begin is_stmt 1 @ ../../../../../../kernel/freertos/Source/timers.c:420:9
	add	sp, #16
	pop	{r4, r5, r7, pc}
.Ltmp213:
	.p2align	2
@ %bb.11:
	.loc	1 0 9 is_stmt 0                 @ ../../../../../../kernel/freertos/Source/timers.c:0:9
__arm_cp.5_0:
	.long	xTimerQueue
.Lcpi_end19:
	.size	__arm_cp.5_0, .Lcpi_end19-__arm_cp.5_0
.Lfunc_end5:
	.size	xTimerGenericCommand, .Lfunc_end5-xTimerGenericCommand
	.cfi_endproc
	.cantunwind
	.fnend
                                        @ -- End function
	.section	.text.xTimerGetTimerDaemonTaskHandle,"ax",%progbits
	.hidden	xTimerGetTimerDaemonTaskHandle  @ -- Begin function xTimerGetTimerDaemonTaskHandle
	.globl	xTimerGetTimerDaemonTaskHandle
	.p2align	2
	.type	xTimerGetTimerDaemonTaskHandle,%function
	.code	16                              @ @xTimerGetTimerDaemonTaskHandle
	.thumb_func
xTimerGetTimerDaemonTaskHandle:
.Lfunc_begin6:
	.fnstart
	.cfi_startproc
@ %bb.0:
	.loc	1 428 9 prologue_end is_stmt 1  @ ../../../../../../kernel/freertos/Source/timers.c:428:9
	ldr	r0, __arm_cp.6_0
	ldr	r0, [r0]
.Ltmp214:
	.loc	1 428 9 is_stmt 0               @ ../../../../../../kernel/freertos/Source/timers.c:428:9
	cmp	r0, #0
	beq	.LBB6_2
@ %bb.1:
	.loc	1 429 9 is_stmt 1               @ ../../../../../../kernel/freertos/Source/timers.c:429:9
	bx	lr
.LBB6_2:
.Ltmp215:
	.loc	1 428 9                         @ ../../../../../../kernel/freertos/Source/timers.c:428:9
	@APP
	cpsid i
	@NO_APP
.LBB6_3:                                @ =>This Inner Loop Header: Depth=1
.Ltmp216:
	.loc	1 428 9 is_stmt 0               @ ../../../../../../kernel/freertos/Source/timers.c:428:9
	b	.LBB6_3
.Ltmp217:
	.p2align	2
@ %bb.4:
	.loc	1 0 9                           @ ../../../../../../kernel/freertos/Source/timers.c:0:9
__arm_cp.6_0:
	.long	xTimerTaskHandle
.Lcpi_end20:
	.size	__arm_cp.6_0, .Lcpi_end20-__arm_cp.6_0
.Lfunc_end6:
	.size	xTimerGetTimerDaemonTaskHandle, .Lfunc_end6-xTimerGetTimerDaemonTaskHandle
	.cfi_endproc
	.cantunwind
	.fnend
                                        @ -- End function
	.section	.text.xTimerGetPeriod,"ax",%progbits
	.hidden	xTimerGetPeriod                 @ -- Begin function xTimerGetPeriod
	.globl	xTimerGetPeriod
	.p2align	1
	.type	xTimerGetPeriod,%function
	.code	16                              @ @xTimerGetPeriod
	.thumb_func
xTimerGetPeriod:
.Lfunc_begin7:
	.fnstart
	.cfi_startproc
@ %bb.0:
	@DEBUG_VALUE: xTimerGetPeriod:xTimer <- $r0
	@DEBUG_VALUE: xTimerGetPeriod:pxTimer <- $r0
	.loc	1 437 9 prologue_end is_stmt 1  @ ../../../../../../kernel/freertos/Source/timers.c:437:9
	cmp	r0, #0
	beq	.LBB7_2
.Ltmp218:
@ %bb.1:
	@DEBUG_VALUE: xTimerGetPeriod:pxTimer <- $r0
	@DEBUG_VALUE: xTimerGetPeriod:xTimer <- $r0
	.loc	1 438 25                        @ ../../../../../../kernel/freertos/Source/timers.c:438:25
	ldr	r0, [r0, #24]
.Ltmp219:
	@DEBUG_VALUE: xTimerGetPeriod:xTimer <- [DW_OP_LLVM_entry_value 1] $r0
	.loc	1 438 9 is_stmt 0               @ ../../../../../../kernel/freertos/Source/timers.c:438:9
	bx	lr
.Ltmp220:
.LBB7_2:
	@DEBUG_VALUE: xTimerGetPeriod:pxTimer <- $r0
	@DEBUG_VALUE: xTimerGetPeriod:xTimer <- $r0
	.loc	1 437 9 is_stmt 1               @ ../../../../../../kernel/freertos/Source/timers.c:437:9
	@APP
	cpsid i
	@NO_APP
.Ltmp221:
.LBB7_3:                                @ =>This Inner Loop Header: Depth=1
	@DEBUG_VALUE: xTimerGetPeriod:pxTimer <- $r0
	@DEBUG_VALUE: xTimerGetPeriod:xTimer <- $r0
	.loc	1 437 9 is_stmt 0               @ ../../../../../../kernel/freertos/Source/timers.c:437:9
	b	.LBB7_3
.Ltmp222:
.Lfunc_end7:
	.size	xTimerGetPeriod, .Lfunc_end7-xTimerGetPeriod
	.cfi_endproc
	.cantunwind
	.fnend
                                        @ -- End function
	.section	.text.vTimerSetReloadMode,"ax",%progbits
	.hidden	vTimerSetReloadMode             @ -- Begin function vTimerSetReloadMode
	.globl	vTimerSetReloadMode
	.p2align	1
	.type	vTimerSetReloadMode,%function
	.code	16                              @ @vTimerSetReloadMode
	.thumb_func
vTimerSetReloadMode:
.Lfunc_begin8:
	.loc	1 444 0 is_stmt 1               @ ../../../../../../kernel/freertos/Source/timers.c:444:0
	.fnstart
	.cfi_startproc
@ %bb.0:
	@DEBUG_VALUE: vTimerSetReloadMode:xTimer <- $r0
	@DEBUG_VALUE: vTimerSetReloadMode:uxAutoReload <- $r1
	@DEBUG_VALUE: vTimerSetReloadMode:xTimer <- $r0
	.save	{r4, r5, r7, lr}
	push	{r4, r5, r7, lr}
	.cfi_def_cfa_offset 16
	.cfi_offset lr, -4
	.cfi_offset r7, -8
	.cfi_offset r5, -12
	.cfi_offset r4, -16
.Ltmp223:
	@DEBUG_VALUE: vTimerSetReloadMode:pxTimer <- $r0
	@DEBUG_VALUE: vTimerSetReloadMode:pxTimer <- $r0
	.loc	1 447 9 prologue_end            @ ../../../../../../kernel/freertos/Source/timers.c:447:9
	cmp	r0, #0
	beq	.LBB8_2
.Ltmp224:
@ %bb.1:
	@DEBUG_VALUE: vTimerSetReloadMode:pxTimer <- $r0
	@DEBUG_VALUE: vTimerSetReloadMode:uxAutoReload <- $r1
	@DEBUG_VALUE: vTimerSetReloadMode:xTimer <- $r0
	.loc	1 0 9 is_stmt 0                 @ ../../../../../../kernel/freertos/Source/timers.c:0:9
	mov	r4, r0
.Ltmp225:
	@DEBUG_VALUE: vTimerSetReloadMode:xTimer <- $r4
	@DEBUG_VALUE: vTimerSetReloadMode:pxTimer <- $r4
	.loc	1 450 30 is_stmt 1              @ ../../../../../../kernel/freertos/Source/timers.c:450:30
	subs	r0, r1, #1
	sbcs	r1, r0
.Ltmp226:
	@DEBUG_VALUE: vTimerSetReloadMode:uxAutoReload <- [DW_OP_LLVM_entry_value 1] $r1
	.loc	1 450 17 is_stmt 0              @ ../../../../../../kernel/freertos/Source/timers.c:450:17
	lsls	r5, r1, #2
.Ltmp227:
	.loc	1 448 9 is_stmt 1               @ ../../../../../../kernel/freertos/Source/timers.c:448:9
	bl	vPortEnterCritical
.Ltmp228:
	.loc	1 0 9 is_stmt 0                 @ ../../../../../../kernel/freertos/Source/timers.c:0:9
	movs	r0, #40
.Ltmp229:
	ldrb	r1, [r4, r0]
	movs	r2, #251
.Ltmp230:
	.loc	1 450 17 is_stmt 1              @ ../../../../../../kernel/freertos/Source/timers.c:450:17
	ands	r2, r1
	adds	r1, r2, r5
.Ltmp231:
	.loc	1 0 0 is_stmt 0                 @ ../../../../../../kernel/freertos/Source/timers.c:0:0
	strb	r1, [r4, r0]
.Ltmp232:
	.loc	1 459 9 is_stmt 1               @ ../../../../../../kernel/freertos/Source/timers.c:459:9
	bl	vPortExitCritical
.Ltmp233:
	.loc	1 460 5 epilogue_begin          @ ../../../../../../kernel/freertos/Source/timers.c:460:5
	pop	{r4, r5, r7, pc}
.Ltmp234:
.LBB8_2:
	@DEBUG_VALUE: vTimerSetReloadMode:pxTimer <- $r0
	@DEBUG_VALUE: vTimerSetReloadMode:uxAutoReload <- $r1
	@DEBUG_VALUE: vTimerSetReloadMode:xTimer <- $r0
	.loc	1 447 9                         @ ../../../../../../kernel/freertos/Source/timers.c:447:9
	@APP
	cpsid i
	@NO_APP
.Ltmp235:
.LBB8_3:                                @ =>This Inner Loop Header: Depth=1
	@DEBUG_VALUE: vTimerSetReloadMode:pxTimer <- $r0
	@DEBUG_VALUE: vTimerSetReloadMode:uxAutoReload <- $r1
	@DEBUG_VALUE: vTimerSetReloadMode:xTimer <- $r0
	.loc	1 447 9 is_stmt 0               @ ../../../../../../kernel/freertos/Source/timers.c:447:9
	b	.LBB8_3
.Ltmp236:
.Lfunc_end8:
	.size	vTimerSetReloadMode, .Lfunc_end8-vTimerSetReloadMode
	.cfi_endproc
	.cantunwind
	.fnend
                                        @ -- End function
	.section	.text.uxTimerGetReloadMode,"ax",%progbits
	.hidden	uxTimerGetReloadMode            @ -- Begin function uxTimerGetReloadMode
	.globl	uxTimerGetReloadMode
	.p2align	1
	.type	uxTimerGetReloadMode,%function
	.code	16                              @ @uxTimerGetReloadMode
	.thumb_func
uxTimerGetReloadMode:
.Lfunc_begin9:
	.loc	1 464 0 is_stmt 1               @ ../../../../../../kernel/freertos/Source/timers.c:464:0
	.fnstart
	.cfi_startproc
@ %bb.0:
	@DEBUG_VALUE: uxTimerGetReloadMode:xTimer <- $r0
	@DEBUG_VALUE: uxTimerGetReloadMode:xTimer <- $r0
	.save	{r4, lr}
	push	{r4, lr}
	.cfi_def_cfa_offset 8
	.cfi_offset lr, -4
	.cfi_offset r4, -8
.Ltmp237:
	@DEBUG_VALUE: uxTimerGetReloadMode:pxTimer <- $r0
	@DEBUG_VALUE: uxTimerGetReloadMode:pxTimer <- $r0
	.loc	1 468 9 prologue_end            @ ../../../../../../kernel/freertos/Source/timers.c:468:9
	cmp	r0, #0
	beq	.LBB9_2
.Ltmp238:
@ %bb.1:
	@DEBUG_VALUE: uxTimerGetReloadMode:pxTimer <- $r0
	@DEBUG_VALUE: uxTimerGetReloadMode:xTimer <- $r0
	.loc	1 0 9 is_stmt 0                 @ ../../../../../../kernel/freertos/Source/timers.c:0:9
	mov	r4, r0
.Ltmp239:
	@DEBUG_VALUE: uxTimerGetReloadMode:xTimer <- $r4
	@DEBUG_VALUE: uxTimerGetReloadMode:pxTimer <- $r4
	.loc	1 469 9 is_stmt 1               @ ../../../../../../kernel/freertos/Source/timers.c:469:9
	bl	vPortEnterCritical
.Ltmp240:
	.loc	1 0 9 is_stmt 0                 @ ../../../../../../kernel/freertos/Source/timers.c:0:9
	movs	r0, #40
.Ltmp241:
	.loc	1 471 28 is_stmt 1              @ ../../../../../../kernel/freertos/Source/timers.c:471:28
	ldrb	r0, [r4, r0]
	lsls	r0, r0, #29
	lsrs	r4, r0, #31
.Ltmp242:
	@DEBUG_VALUE: uxTimerGetReloadMode:xTimer <- [DW_OP_LLVM_entry_value 1] $r0
	@DEBUG_VALUE: uxTimerGetReloadMode:uxReturn <- $r4
	.loc	1 482 9                         @ ../../../../../../kernel/freertos/Source/timers.c:482:9
	bl	vPortExitCritical
.Ltmp243:
	.loc	1 484 9                         @ ../../../../../../kernel/freertos/Source/timers.c:484:9
	mov	r0, r4
	.loc	1 484 9 epilogue_begin is_stmt 0 @ ../../../../../../kernel/freertos/Source/timers.c:484:9
	pop	{r4, pc}
.Ltmp244:
.LBB9_2:
	@DEBUG_VALUE: uxTimerGetReloadMode:pxTimer <- $r0
	@DEBUG_VALUE: uxTimerGetReloadMode:xTimer <- $r0
	.loc	1 468 9 is_stmt 1               @ ../../../../../../kernel/freertos/Source/timers.c:468:9
	@APP
	cpsid i
	@NO_APP
.Ltmp245:
.LBB9_3:                                @ =>This Inner Loop Header: Depth=1
	@DEBUG_VALUE: uxTimerGetReloadMode:pxTimer <- $r0
	@DEBUG_VALUE: uxTimerGetReloadMode:xTimer <- $r0
	.loc	1 468 9 is_stmt 0               @ ../../../../../../kernel/freertos/Source/timers.c:468:9
	b	.LBB9_3
.Ltmp246:
.Lfunc_end9:
	.size	uxTimerGetReloadMode, .Lfunc_end9-uxTimerGetReloadMode
	.cfi_endproc
	.cantunwind
	.fnend
                                        @ -- End function
	.section	.text.xTimerGetExpiryTime,"ax",%progbits
	.hidden	xTimerGetExpiryTime             @ -- Begin function xTimerGetExpiryTime
	.globl	xTimerGetExpiryTime
	.p2align	1
	.type	xTimerGetExpiryTime,%function
	.code	16                              @ @xTimerGetExpiryTime
	.thumb_func
xTimerGetExpiryTime:
.Lfunc_begin10:
	.fnstart
	.cfi_startproc
@ %bb.0:
	@DEBUG_VALUE: xTimerGetExpiryTime:xTimer <- $r0
	@DEBUG_VALUE: xTimerGetExpiryTime:pxTimer <- $r0
	.loc	1 493 9 prologue_end is_stmt 1  @ ../../../../../../kernel/freertos/Source/timers.c:493:9
	cmp	r0, #0
	beq	.LBB10_2
.Ltmp247:
@ %bb.1:
	@DEBUG_VALUE: xTimerGetExpiryTime:pxTimer <- $r0
	@DEBUG_VALUE: xTimerGetExpiryTime:xTimer <- $r0
	.loc	1 494 19                        @ ../../../../../../kernel/freertos/Source/timers.c:494:19
	ldr	r0, [r0, #4]
.Ltmp248:
	@DEBUG_VALUE: xTimerGetExpiryTime:xTimer <- [DW_OP_LLVM_entry_value 1] $r0
	@DEBUG_VALUE: xTimerGetExpiryTime:xReturn <- $r0
	.loc	1 495 9                         @ ../../../../../../kernel/freertos/Source/timers.c:495:9
	bx	lr
.Ltmp249:
.LBB10_2:
	@DEBUG_VALUE: xTimerGetExpiryTime:pxTimer <- $r0
	@DEBUG_VALUE: xTimerGetExpiryTime:xTimer <- $r0
	.loc	1 493 9                         @ ../../../../../../kernel/freertos/Source/timers.c:493:9
	@APP
	cpsid i
	@NO_APP
.Ltmp250:
.LBB10_3:                               @ =>This Inner Loop Header: Depth=1
	@DEBUG_VALUE: xTimerGetExpiryTime:pxTimer <- $r0
	@DEBUG_VALUE: xTimerGetExpiryTime:xTimer <- $r0
	.loc	1 493 9 is_stmt 0               @ ../../../../../../kernel/freertos/Source/timers.c:493:9
	b	.LBB10_3
.Ltmp251:
.Lfunc_end10:
	.size	xTimerGetExpiryTime, .Lfunc_end10-xTimerGetExpiryTime
	.cfi_endproc
	.cantunwind
	.fnend
                                        @ -- End function
	.section	.text.pcTimerGetName,"ax",%progbits
	.hidden	pcTimerGetName                  @ -- Begin function pcTimerGetName
	.globl	pcTimerGetName
	.p2align	1
	.type	pcTimerGetName,%function
	.code	16                              @ @pcTimerGetName
	.thumb_func
pcTimerGetName:
.Lfunc_begin11:
	.fnstart
	.cfi_startproc
@ %bb.0:
	@DEBUG_VALUE: pcTimerGetName:xTimer <- $r0
	@DEBUG_VALUE: pcTimerGetName:pxTimer <- $r0
	.loc	1 503 9 prologue_end is_stmt 1  @ ../../../../../../kernel/freertos/Source/timers.c:503:9
	cmp	r0, #0
	beq	.LBB11_2
.Ltmp252:
@ %bb.1:
	@DEBUG_VALUE: pcTimerGetName:pxTimer <- $r0
	@DEBUG_VALUE: pcTimerGetName:xTimer <- $r0
	.loc	1 504 25                        @ ../../../../../../kernel/freertos/Source/timers.c:504:25
	ldr	r0, [r0]
.Ltmp253:
	@DEBUG_VALUE: pcTimerGetName:xTimer <- [DW_OP_LLVM_entry_value 1] $r0
	.loc	1 504 9 is_stmt 0               @ ../../../../../../kernel/freertos/Source/timers.c:504:9
	bx	lr
.Ltmp254:
.LBB11_2:
	@DEBUG_VALUE: pcTimerGetName:pxTimer <- $r0
	@DEBUG_VALUE: pcTimerGetName:xTimer <- $r0
	.loc	1 503 9 is_stmt 1               @ ../../../../../../kernel/freertos/Source/timers.c:503:9
	@APP
	cpsid i
	@NO_APP
.Ltmp255:
.LBB11_3:                               @ =>This Inner Loop Header: Depth=1
	@DEBUG_VALUE: pcTimerGetName:pxTimer <- $r0
	@DEBUG_VALUE: pcTimerGetName:xTimer <- $r0
	.loc	1 503 9 is_stmt 0               @ ../../../../../../kernel/freertos/Source/timers.c:503:9
	b	.LBB11_3
.Ltmp256:
.Lfunc_end11:
	.size	pcTimerGetName, .Lfunc_end11-pcTimerGetName
	.cfi_endproc
	.cantunwind
	.fnend
                                        @ -- End function
	.section	.text.xTimerIsTimerActive,"ax",%progbits
	.hidden	xTimerIsTimerActive             @ -- Begin function xTimerIsTimerActive
	.globl	xTimerIsTimerActive
	.p2align	1
	.type	xTimerIsTimerActive,%function
	.code	16                              @ @xTimerIsTimerActive
	.thumb_func
xTimerIsTimerActive:
.Lfunc_begin12:
	.loc	1 1005 0 is_stmt 1              @ ../../../../../../kernel/freertos/Source/timers.c:1005:0
	.fnstart
	.cfi_startproc
@ %bb.0:
	@DEBUG_VALUE: xTimerIsTimerActive:xTimer <- $r0
	@DEBUG_VALUE: xTimerIsTimerActive:xTimer <- $r0
	.save	{r4, lr}
	push	{r4, lr}
	.cfi_def_cfa_offset 8
	.cfi_offset lr, -4
	.cfi_offset r4, -8
.Ltmp257:
	@DEBUG_VALUE: xTimerIsTimerActive:pxTimer <- $r0
	@DEBUG_VALUE: xTimerIsTimerActive:pxTimer <- $r0
	.loc	1 1009 9 prologue_end           @ ../../../../../../kernel/freertos/Source/timers.c:1009:9
	cmp	r0, #0
	beq	.LBB12_2
.Ltmp258:
@ %bb.1:
	@DEBUG_VALUE: xTimerIsTimerActive:pxTimer <- $r0
	@DEBUG_VALUE: xTimerIsTimerActive:xTimer <- $r0
	.loc	1 0 9 is_stmt 0                 @ ../../../../../../kernel/freertos/Source/timers.c:0:9
	mov	r4, r0
.Ltmp259:
	@DEBUG_VALUE: xTimerIsTimerActive:xTimer <- $r4
	@DEBUG_VALUE: xTimerIsTimerActive:pxTimer <- $r4
	.loc	1 1012 9 is_stmt 1              @ ../../../../../../kernel/freertos/Source/timers.c:1012:9
	bl	vPortEnterCritical
.Ltmp260:
	.loc	1 0 9 is_stmt 0                 @ ../../../../../../kernel/freertos/Source/timers.c:0:9
	movs	r0, #40
.Ltmp261:
	.loc	1 1014 28 is_stmt 1             @ ../../../../../../kernel/freertos/Source/timers.c:1014:28
	ldrb	r0, [r4, r0]
	movs	r4, #1
.Ltmp262:
	@DEBUG_VALUE: xTimerIsTimerActive:xTimer <- [DW_OP_LLVM_entry_value 1] $r0
	.loc	1 0 28 is_stmt 0                @ ../../../../../../kernel/freertos/Source/timers.c:0:28
	ands	r4, r0
.Ltmp263:
	@DEBUG_VALUE: xTimerIsTimerActive:xReturn <- $r4
	.loc	1 1023 9 is_stmt 1              @ ../../../../../../kernel/freertos/Source/timers.c:1023:9
	bl	vPortExitCritical
.Ltmp264:
	.loc	1 1025 9                        @ ../../../../../../kernel/freertos/Source/timers.c:1025:9
	mov	r0, r4
	.loc	1 1025 9 epilogue_begin is_stmt 0 @ ../../../../../../kernel/freertos/Source/timers.c:1025:9
	pop	{r4, pc}
.Ltmp265:
.LBB12_2:
	@DEBUG_VALUE: xTimerIsTimerActive:pxTimer <- $r0
	@DEBUG_VALUE: xTimerIsTimerActive:xTimer <- $r0
	.loc	1 1009 9 is_stmt 1              @ ../../../../../../kernel/freertos/Source/timers.c:1009:9
	@APP
	cpsid i
	@NO_APP
.Ltmp266:
.LBB12_3:                               @ =>This Inner Loop Header: Depth=1
	@DEBUG_VALUE: xTimerIsTimerActive:pxTimer <- $r0
	@DEBUG_VALUE: xTimerIsTimerActive:xTimer <- $r0
	.loc	1 1009 9 is_stmt 0              @ ../../../../../../kernel/freertos/Source/timers.c:1009:9
	b	.LBB12_3
.Ltmp267:
.Lfunc_end12:
	.size	xTimerIsTimerActive, .Lfunc_end12-xTimerIsTimerActive
	.cfi_endproc
	.cantunwind
	.fnend
                                        @ -- End function
	.section	.text.pvTimerGetTimerID,"ax",%progbits
	.hidden	pvTimerGetTimerID               @ -- Begin function pvTimerGetTimerID
	.globl	pvTimerGetTimerID
	.p2align	1
	.type	pvTimerGetTimerID,%function
	.code	16                              @ @pvTimerGetTimerID
	.thumb_func
pvTimerGetTimerID:
.Lfunc_begin13:
	.loc	1 1030 0 is_stmt 1              @ ../../../../../../kernel/freertos/Source/timers.c:1030:0
	.fnstart
	.cfi_startproc
@ %bb.0:
	@DEBUG_VALUE: pvTimerGetTimerID:xTimer <- $r0
	@DEBUG_VALUE: pvTimerGetTimerID:xTimer <- $r0
	.save	{r4, lr}
	push	{r4, lr}
	.cfi_def_cfa_offset 8
	.cfi_offset lr, -4
	.cfi_offset r4, -8
.Ltmp268:
	@DEBUG_VALUE: pvTimerGetTimerID:pxTimer <- $r0
	@DEBUG_VALUE: pvTimerGetTimerID:pxTimer <- $r0
	.loc	1 1034 9 prologue_end           @ ../../../../../../kernel/freertos/Source/timers.c:1034:9
	cmp	r0, #0
	beq	.LBB13_2
.Ltmp269:
@ %bb.1:
	@DEBUG_VALUE: pvTimerGetTimerID:pxTimer <- $r0
	@DEBUG_VALUE: pvTimerGetTimerID:xTimer <- $r0
	.loc	1 0 9 is_stmt 0                 @ ../../../../../../kernel/freertos/Source/timers.c:0:9
	mov	r4, r0
.Ltmp270:
	@DEBUG_VALUE: pvTimerGetTimerID:xTimer <- $r4
	@DEBUG_VALUE: pvTimerGetTimerID:pxTimer <- $r4
	.loc	1 1036 9 is_stmt 1              @ ../../../../../../kernel/freertos/Source/timers.c:1036:9
	bl	vPortEnterCritical
.Ltmp271:
	.loc	1 1038 33                       @ ../../../../../../kernel/freertos/Source/timers.c:1038:33
	ldr	r4, [r4, #28]
.Ltmp272:
	@DEBUG_VALUE: pvTimerGetTimerID:xTimer <- [DW_OP_LLVM_entry_value 1] $r0
	@DEBUG_VALUE: pvTimerGetTimerID:pvReturn <- $r4
	.loc	1 1040 9                        @ ../../../../../../kernel/freertos/Source/timers.c:1040:9
	bl	vPortExitCritical
.Ltmp273:
	.loc	1 1042 9                        @ ../../../../../../kernel/freertos/Source/timers.c:1042:9
	mov	r0, r4
	.loc	1 1042 9 epilogue_begin is_stmt 0 @ ../../../../../../kernel/freertos/Source/timers.c:1042:9
	pop	{r4, pc}
.Ltmp274:
.LBB13_2:
	@DEBUG_VALUE: pvTimerGetTimerID:pxTimer <- $r0
	@DEBUG_VALUE: pvTimerGetTimerID:xTimer <- $r0
	.loc	1 1034 9 is_stmt 1              @ ../../../../../../kernel/freertos/Source/timers.c:1034:9
	@APP
	cpsid i
	@NO_APP
.Ltmp275:
.LBB13_3:                               @ =>This Inner Loop Header: Depth=1
	@DEBUG_VALUE: pvTimerGetTimerID:pxTimer <- $r0
	@DEBUG_VALUE: pvTimerGetTimerID:xTimer <- $r0
	.loc	1 1034 9 is_stmt 0              @ ../../../../../../kernel/freertos/Source/timers.c:1034:9
	b	.LBB13_3
.Ltmp276:
.Lfunc_end13:
	.size	pvTimerGetTimerID, .Lfunc_end13-pvTimerGetTimerID
	.cfi_endproc
	.cantunwind
	.fnend
                                        @ -- End function
	.section	.text.vTimerSetTimerID,"ax",%progbits
	.hidden	vTimerSetTimerID                @ -- Begin function vTimerSetTimerID
	.globl	vTimerSetTimerID
	.p2align	1
	.type	vTimerSetTimerID,%function
	.code	16                              @ @vTimerSetTimerID
	.thumb_func
vTimerSetTimerID:
.Lfunc_begin14:
	.loc	1 1048 0 is_stmt 1              @ ../../../../../../kernel/freertos/Source/timers.c:1048:0
	.fnstart
	.cfi_startproc
@ %bb.0:
	@DEBUG_VALUE: vTimerSetTimerID:xTimer <- $r0
	@DEBUG_VALUE: vTimerSetTimerID:pvNewID <- $r1
	@DEBUG_VALUE: vTimerSetTimerID:pvNewID <- $r1
	@DEBUG_VALUE: vTimerSetTimerID:xTimer <- $r0
	.save	{r4, r5, r7, lr}
	push	{r4, r5, r7, lr}
	.cfi_def_cfa_offset 16
	.cfi_offset lr, -4
	.cfi_offset r7, -8
	.cfi_offset r5, -12
	.cfi_offset r4, -16
.Ltmp277:
	@DEBUG_VALUE: vTimerSetTimerID:pxTimer <- $r0
	@DEBUG_VALUE: vTimerSetTimerID:pxTimer <- $r0
	.loc	1 1051 9 prologue_end           @ ../../../../../../kernel/freertos/Source/timers.c:1051:9
	cmp	r0, #0
	beq	.LBB14_2
.Ltmp278:
@ %bb.1:
	@DEBUG_VALUE: vTimerSetTimerID:pxTimer <- $r0
	@DEBUG_VALUE: vTimerSetTimerID:pvNewID <- $r1
	@DEBUG_VALUE: vTimerSetTimerID:xTimer <- $r0
	.loc	1 0 9 is_stmt 0                 @ ../../../../../../kernel/freertos/Source/timers.c:0:9
	mov	r4, r1
.Ltmp279:
	@DEBUG_VALUE: vTimerSetTimerID:pvNewID <- $r4
	mov	r5, r0
.Ltmp280:
	@DEBUG_VALUE: vTimerSetTimerID:xTimer <- $r5
	@DEBUG_VALUE: vTimerSetTimerID:pxTimer <- $r5
	.loc	1 1053 9 is_stmt 1              @ ../../../../../../kernel/freertos/Source/timers.c:1053:9
	bl	vPortEnterCritical
.Ltmp281:
	.loc	1 1055 32                       @ ../../../../../../kernel/freertos/Source/timers.c:1055:32
	str	r4, [r5, #28]
.Ltmp282:
	.loc	1 1057 9                        @ ../../../../../../kernel/freertos/Source/timers.c:1057:9
	bl	vPortExitCritical
.Ltmp283:
	.loc	1 1058 5 epilogue_begin         @ ../../../../../../kernel/freertos/Source/timers.c:1058:5
	pop	{r4, r5, r7, pc}
.Ltmp284:
.LBB14_2:
	@DEBUG_VALUE: vTimerSetTimerID:pxTimer <- $r0
	@DEBUG_VALUE: vTimerSetTimerID:pvNewID <- $r1
	@DEBUG_VALUE: vTimerSetTimerID:xTimer <- $r0
	.loc	1 1051 9                        @ ../../../../../../kernel/freertos/Source/timers.c:1051:9
	@APP
	cpsid i
	@NO_APP
.Ltmp285:
.LBB14_3:                               @ =>This Inner Loop Header: Depth=1
	@DEBUG_VALUE: vTimerSetTimerID:pxTimer <- $r0
	@DEBUG_VALUE: vTimerSetTimerID:pvNewID <- $r1
	@DEBUG_VALUE: vTimerSetTimerID:xTimer <- $r0
	.loc	1 1051 9 is_stmt 0              @ ../../../../../../kernel/freertos/Source/timers.c:1051:9
	b	.LBB14_3
.Ltmp286:
.Lfunc_end14:
	.size	vTimerSetTimerID, .Lfunc_end14-vTimerSetTimerID
	.cfi_endproc
	.cantunwind
	.fnend
                                        @ -- End function
	.section	.text.uxTimerGetTimerNumber,"ax",%progbits
	.hidden	uxTimerGetTimerNumber           @ -- Begin function uxTimerGetTimerNumber
	.globl	uxTimerGetTimerNumber
	.p2align	1
	.type	uxTimerGetTimerNumber,%function
	.code	16                              @ @uxTimerGetTimerNumber
	.thumb_func
uxTimerGetTimerNumber:
.Lfunc_begin15:
	.fnstart
	.cfi_startproc
@ %bb.0:
	@DEBUG_VALUE: uxTimerGetTimerNumber:xTimer <- $r0
	.loc	1 1124 46 prologue_end is_stmt 1 @ ../../../../../../kernel/freertos/Source/timers.c:1124:46
	ldr	r0, [r0, #36]
.Ltmp287:
	@DEBUG_VALUE: uxTimerGetTimerNumber:xTimer <- [DW_OP_LLVM_entry_value 1] $r0
	.loc	1 1124 13 is_stmt 0             @ ../../../../../../kernel/freertos/Source/timers.c:1124:13
	bx	lr
.Ltmp288:
.Lfunc_end15:
	.size	uxTimerGetTimerNumber, .Lfunc_end15-uxTimerGetTimerNumber
	.cfi_endproc
	.cantunwind
	.fnend
                                        @ -- End function
	.section	.text.vTimerSetTimerNumber,"ax",%progbits
	.hidden	vTimerSetTimerNumber            @ -- Begin function vTimerSetTimerNumber
	.globl	vTimerSetTimerNumber
	.p2align	1
	.type	vTimerSetTimerNumber,%function
	.code	16                              @ @vTimerSetTimerNumber
	.thumb_func
vTimerSetTimerNumber:
.Lfunc_begin16:
	.fnstart
	.cfi_startproc
@ %bb.0:
	@DEBUG_VALUE: vTimerSetTimerNumber:xTimer <- $r0
	@DEBUG_VALUE: vTimerSetTimerNumber:uxTimerNumber <- $r1
	.loc	1 1135 53 prologue_end is_stmt 1 @ ../../../../../../kernel/freertos/Source/timers.c:1135:53
	str	r1, [r0, #36]
	.loc	1 1136 9                        @ ../../../../../../kernel/freertos/Source/timers.c:1136:9
	bx	lr
.Ltmp289:
.Lfunc_end16:
	.size	vTimerSetTimerNumber, .Lfunc_end16-vTimerSetTimerNumber
	.cfi_endproc
	.cantunwind
	.fnend
                                        @ -- End function
	.section	.text.prvSampleTimeNow,"ax",%progbits
	.p2align	2                               @ -- Begin function prvSampleTimeNow
	.type	prvSampleTimeNow,%function
	.code	16                              @ @prvSampleTimeNow
	.thumb_func
prvSampleTimeNow:
.Lfunc_begin17:
	.loc	1 677 0                         @ ../../../../../../kernel/freertos/Source/timers.c:677:0
	.fnstart
	.cfi_startproc
@ %bb.0:
	@DEBUG_VALUE: prvSampleTimeNow:pxTimerListsWereSwitched <- $r0
	.save	{r4, r5, r6, r7, lr}
	push	{r4, r5, r6, r7, lr}
	.cfi_def_cfa_offset 20
	.cfi_offset lr, -4
	.cfi_offset r7, -8
	.cfi_offset r6, -12
	.cfi_offset r5, -16
	.cfi_offset r4, -20
	.pad	#20
	sub	sp, #20
	.cfi_def_cfa_offset 40
	mov	r4, r0
.Ltmp290:
	@DEBUG_VALUE: prvSampleTimeNow:pxTimerListsWereSwitched <- $r4
	.loc	1 681 20 prologue_end           @ ../../../../../../kernel/freertos/Source/timers.c:681:20
	bl	xTaskGetTickCount
.Ltmp291:
	@DEBUG_VALUE: prvSampleTimeNow:xTimeNow <- $r0
	.loc	1 683 24                        @ ../../../../../../kernel/freertos/Source/timers.c:683:24
	ldr	r2, __arm_cp.17_0
	ldr	r1, [r2]
.Ltmp292:
	.loc	1 683 13 is_stmt 0              @ ../../../../../../kernel/freertos/Source/timers.c:683:13
	cmp	r0, r1
	bhs	.LBB17_10
.Ltmp293:
@ %bb.1:
	@DEBUG_VALUE: prvSampleTimeNow:xTimeNow <- $r0
	@DEBUG_VALUE: prvSampleTimeNow:pxTimerListsWereSwitched <- $r4
	.loc	1 0 13                          @ ../../../../../../kernel/freertos/Source/timers.c:0:13
	str	r0, [sp]                        @ 4-byte Spill
.Ltmp294:
	@DEBUG_VALUE: prvSampleTimeNow:xTimeNow <- [$sp+0]
	str	r4, [sp, #4]                    @ 4-byte Spill
.Ltmp295:
	@DEBUG_VALUE: prvSampleTimeNow:pxTimerListsWereSwitched <- [DW_OP_plus_uconst 4] [$sp+0]
	.loc	1 904 16 is_stmt 1              @ ../../../../../../kernel/freertos/Source/timers.c:904:16
	ldr	r4, __arm_cp.17_1
	b	.LBB17_3
.Ltmp296:
.LBB17_2:                               @   in Loop: Header=BB17_3 Depth=1
	@DEBUG_VALUE: prvSwitchTimerLists:xReloadTime <- $r0
	@DEBUG_VALUE: prvSwitchTimerLists:pxTimer <- $r6
	@DEBUG_VALUE: prvSwitchTimerLists:xNextExpireTime <- $r5
	@DEBUG_VALUE: prvSampleTimeNow:pxTimerListsWereSwitched <- [DW_OP_plus_uconst 4] [$sp+0]
	@DEBUG_VALUE: prvSampleTimeNow:xTimeNow <- [$sp+0]
	.loc	1 930 21                        @ ../../../../../../kernel/freertos/Source/timers.c:930:21
	str	r0, [r6, #4]
	.loc	1 931 21                        @ ../../../../../../kernel/freertos/Source/timers.c:931:21
	str	r6, [r6, #16]
	.loc	1 932 34                        @ ../../../../../../kernel/freertos/Source/timers.c:932:34
	ldr	r0, [r4]
.Ltmp297:
	.loc	1 932 21 is_stmt 0              @ ../../../../../../kernel/freertos/Source/timers.c:932:21
	mov	r1, r7
	bl	vListInsert
.Ltmp298:
.LBB17_3:                               @ =>This Inner Loop Header: Depth=1
	@DEBUG_VALUE: prvSampleTimeNow:pxTimerListsWereSwitched <- [DW_OP_plus_uconst 4] [$sp+0]
	@DEBUG_VALUE: prvSampleTimeNow:xTimeNow <- [$sp+0]
	.loc	1 904 16 is_stmt 1              @ ../../../../../../kernel/freertos/Source/timers.c:904:16
	ldr	r0, [r4]
	ldr	r1, [r0]
	.loc	1 904 9 is_stmt 0               @ ../../../../../../kernel/freertos/Source/timers.c:904:9
	cmp	r1, #0
	beq	.LBB17_11
.Ltmp299:
@ %bb.4:                                @   in Loop: Header=BB17_3 Depth=1
	@DEBUG_VALUE: prvSampleTimeNow:pxTimerListsWereSwitched <- [DW_OP_plus_uconst 4] [$sp+0]
	@DEBUG_VALUE: prvSampleTimeNow:xTimeNow <- [$sp+0]
	.loc	1 906 31 is_stmt 1              @ ../../../../../../kernel/freertos/Source/timers.c:906:31
	ldr	r0, [r0, #12]
	ldr	r5, [r0]
.Ltmp300:
	@DEBUG_VALUE: prvSwitchTimerLists:xNextExpireTime <- $r5
	.loc	1 909 37                        @ ../../../../../../kernel/freertos/Source/timers.c:909:37
	ldr	r6, [r0, #12]
.Ltmp301:
	@DEBUG_VALUE: prvSwitchTimerLists:pxTimer <- $r6
	.loc	1 910 48                        @ ../../../../../../kernel/freertos/Source/timers.c:910:48
	adds	r7, r6, #4
	.loc	1 910 22 is_stmt 0              @ ../../../../../../kernel/freertos/Source/timers.c:910:22
	mov	r0, r7
	bl	uxListRemove
.Ltmp302:
	.loc	1 916 22 is_stmt 1              @ ../../../../../../kernel/freertos/Source/timers.c:916:22
	ldr	r1, [r6, #32]
	.loc	1 916 13 is_stmt 0              @ ../../../../../../kernel/freertos/Source/timers.c:916:13
	mov	r0, r6
	blx	r1
.Ltmp303:
	.loc	1 0 13                          @ ../../../../../../kernel/freertos/Source/timers.c:0:13
	movs	r0, #40
.Ltmp304:
	.loc	1 918 28 is_stmt 1              @ ../../../../../../kernel/freertos/Source/timers.c:918:28
	ldrb	r0, [r6, r0]
.Ltmp305:
	.loc	1 918 17 is_stmt 0              @ ../../../../../../kernel/freertos/Source/timers.c:918:17
	lsls	r0, r0, #29
	bpl	.LBB17_3
.Ltmp306:
@ %bb.5:                                @   in Loop: Header=BB17_3 Depth=1
	@DEBUG_VALUE: prvSwitchTimerLists:pxTimer <- $r6
	@DEBUG_VALUE: prvSwitchTimerLists:xNextExpireTime <- $r5
	@DEBUG_VALUE: prvSampleTimeNow:pxTimerListsWereSwitched <- [DW_OP_plus_uconst 4] [$sp+0]
	@DEBUG_VALUE: prvSampleTimeNow:xTimeNow <- [$sp+0]
	.loc	1 926 60 is_stmt 1              @ ../../../../../../kernel/freertos/Source/timers.c:926:60
	ldr	r0, [r6, #24]
	.loc	1 926 49 is_stmt 0              @ ../../../../../../kernel/freertos/Source/timers.c:926:49
	adds	r0, r0, r5
.Ltmp307:
	@DEBUG_VALUE: prvSwitchTimerLists:xReloadTime <- $r0
	.loc	1 928 21 is_stmt 1              @ ../../../../../../kernel/freertos/Source/timers.c:928:21
	cmp	r0, r5
	bhi	.LBB17_2
.Ltmp308:
@ %bb.6:                                @   in Loop: Header=BB17_3 Depth=1
	@DEBUG_VALUE: prvSwitchTimerLists:xReloadTime <- $r0
	@DEBUG_VALUE: prvSwitchTimerLists:pxTimer <- $r6
	@DEBUG_VALUE: prvSwitchTimerLists:xNextExpireTime <- $r5
	@DEBUG_VALUE: prvSampleTimeNow:pxTimerListsWereSwitched <- [DW_OP_plus_uconst 4] [$sp+0]
	@DEBUG_VALUE: prvSampleTimeNow:xTimeNow <- [$sp+0]
	@DEBUG_VALUE: xTimerGenericCommand:xMessage <- undef
	@DEBUG_VALUE: xTimerGenericCommand:xTimer <- $r6
	@DEBUG_VALUE: xTimerGenericCommand:xCommandID <- 0
	@DEBUG_VALUE: xTimerGenericCommand:xOptionalValue <- $r5
	@DEBUG_VALUE: xTimerGenericCommand:pxHigherPriorityTaskWoken <- 0
	@DEBUG_VALUE: xTimerGenericCommand:xTicksToWait <- 0
	@DEBUG_VALUE: xTimerGenericCommand:xReturn <- 0
	.loc	1 0 21 is_stmt 0                @ ../../../../../../kernel/freertos/Source/timers.c:0:21
	ldr	r7, __arm_cp.17_2
.Ltmp309:
	.loc	1 390 13 is_stmt 1              @ ../../../../../../kernel/freertos/Source/timers.c:390:13
	ldr	r0, [r7]
.Ltmp310:
	.loc	1 390 13 is_stmt 0              @ ../../../../../../kernel/freertos/Source/timers.c:390:13
	cmp	r0, #0
	beq	.LBB17_8
.Ltmp311:
@ %bb.7:                                @   in Loop: Header=BB17_3 Depth=1
	@DEBUG_VALUE: xTimerGenericCommand:xReturn <- 0
	@DEBUG_VALUE: xTimerGenericCommand:xTicksToWait <- 0
	@DEBUG_VALUE: xTimerGenericCommand:pxHigherPriorityTaskWoken <- 0
	@DEBUG_VALUE: xTimerGenericCommand:xOptionalValue <- $r5
	@DEBUG_VALUE: xTimerGenericCommand:xCommandID <- 0
	@DEBUG_VALUE: xTimerGenericCommand:xTimer <- $r6
	@DEBUG_VALUE: prvSwitchTimerLists:pxTimer <- $r6
	@DEBUG_VALUE: prvSwitchTimerLists:xNextExpireTime <- $r5
	@DEBUG_VALUE: prvSampleTimeNow:pxTimerListsWereSwitched <- [DW_OP_plus_uconst 4] [$sp+0]
	@DEBUG_VALUE: prvSampleTimeNow:xTimeNow <- [$sp+0]
	@DEBUG_VALUE: xTimerGenericCommand:xMessage <- [DW_OP_plus_uconst 8, DW_OP_plus_uconst 4, DW_OP_deref, DW_OP_LLVM_fragment 32 32] $sp
	.loc	1 395 49 is_stmt 1              @ ../../../../../../kernel/freertos/Source/timers.c:395:49
	str	r6, [sp, #16]
.Ltmp312:
	@DEBUG_VALUE: xTimerGenericCommand:xMessage <- [DW_OP_plus_uconst 8, DW_OP_deref, DW_OP_LLVM_fragment 0 32] $sp
	.loc	1 394 55                        @ ../../../../../../kernel/freertos/Source/timers.c:394:55
	str	r5, [sp, #12]
	movs	r6, #0
.Ltmp313:
	.loc	1 393 33                        @ ../../../../../../kernel/freertos/Source/timers.c:393:33
	str	r6, [sp, #8]
.Ltmp314:
	@DEBUG_VALUE: xTimerGenericCommand:xMessage <- [DW_OP_plus_uconst 8, DW_OP_plus_uconst 8, DW_OP_deref, DW_OP_LLVM_fragment 64 32] $sp
	.loc	1 399 21                        @ ../../../../../../kernel/freertos/Source/timers.c:399:21
	bl	xTaskGetSchedulerState
.Ltmp315:
	.loc	1 0 0 is_stmt 0                 @ ../../../../../../kernel/freertos/Source/timers.c:0:0
	ldr	r0, [r7]
	add	r1, sp, #8
	mov	r2, r6
	mov	r3, r6
	bl	xQueueGenericSend
.Ltmp316:
	@DEBUG_VALUE: prvSwitchTimerLists:xResult <- $r0
	@DEBUG_VALUE: xTimerGenericCommand:xReturn <- $r0
	.loc	1 937 21 is_stmt 1              @ ../../../../../../kernel/freertos/Source/timers.c:937:21
	cmp	r0, #0
	bne	.LBB17_3
.Ltmp317:
.LBB17_8:
	@DEBUG_VALUE: prvSwitchTimerLists:xNextExpireTime <- $r5
	@DEBUG_VALUE: prvSampleTimeNow:pxTimerListsWereSwitched <- [DW_OP_plus_uconst 4] [$sp+0]
	@DEBUG_VALUE: prvSampleTimeNow:xTimeNow <- [$sp+0]
	.loc	1 937 21 is_stmt 0              @ ../../../../../../kernel/freertos/Source/timers.c:937:21
	@APP
	cpsid i
	@NO_APP
.Ltmp318:
.LBB17_9:                               @ =>This Inner Loop Header: Depth=1
	@DEBUG_VALUE: prvSwitchTimerLists:xNextExpireTime <- $r5
	@DEBUG_VALUE: prvSampleTimeNow:pxTimerListsWereSwitched <- [DW_OP_plus_uconst 4] [$sp+0]
	@DEBUG_VALUE: prvSampleTimeNow:xTimeNow <- [$sp+0]
	.loc	1 937 21                        @ ../../../../../../kernel/freertos/Source/timers.c:937:21
	b	.LBB17_9
.Ltmp319:
.LBB17_10:
	@DEBUG_VALUE: prvSampleTimeNow:xTimeNow <- $r0
	@DEBUG_VALUE: prvSampleTimeNow:pxTimerListsWereSwitched <- $r4
	.loc	1 0 21                          @ ../../../../../../kernel/freertos/Source/timers.c:0:21
	movs	r1, #0
	b	.LBB17_12
.Ltmp320:
.LBB17_11:
	@DEBUG_VALUE: prvSampleTimeNow:pxTimerListsWereSwitched <- [DW_OP_plus_uconst 4] [$sp+0]
	@DEBUG_VALUE: prvSampleTimeNow:xTimeNow <- [$sp+0]
	@DEBUG_VALUE: prvSwitchTimerLists:pxTemp <- $r0
	.loc	1 948 30 is_stmt 1              @ ../../../../../../kernel/freertos/Source/timers.c:948:30
	ldr	r1, __arm_cp.17_3
	ldr	r2, [r1]
	.loc	1 948 28 is_stmt 0              @ ../../../../../../kernel/freertos/Source/timers.c:948:28
	str	r2, [r4]
	.loc	1 949 29 is_stmt 1              @ ../../../../../../kernel/freertos/Source/timers.c:949:29
	str	r0, [r1]
	movs	r1, #1
	ldr	r4, [sp, #4]                    @ 4-byte Reload
.Ltmp321:
	@DEBUG_VALUE: prvSampleTimeNow:pxTimerListsWereSwitched <- $r4
	.loc	1 0 29 is_stmt 0                @ ../../../../../../kernel/freertos/Source/timers.c:0:29
	ldr	r0, [sp]                        @ 4-byte Reload
.Ltmp322:
	@DEBUG_VALUE: prvSampleTimeNow:xTimeNow <- $r0
	ldr	r2, __arm_cp.17_0
.Ltmp323:
.LBB17_12:
	@DEBUG_VALUE: prvSampleTimeNow:xTimeNow <- $r0
	@DEBUG_VALUE: prvSampleTimeNow:pxTimerListsWereSwitched <- $r4
	.loc	1 693 19 is_stmt 1              @ ../../../../../../kernel/freertos/Source/timers.c:693:19
	str	r0, [r2]
.Ltmp324:
	.loc	1 0 0 is_stmt 0                 @ ../../../../../../kernel/freertos/Source/timers.c:0:0
	str	r1, [r4]
.Ltmp325:
	.loc	1 695 9 epilogue_begin is_stmt 1 @ ../../../../../../kernel/freertos/Source/timers.c:695:9
	add	sp, #20
	pop	{r4, r5, r6, r7, pc}
.Ltmp326:
	.p2align	2
@ %bb.13:
	.loc	1 0 9 is_stmt 0                 @ ../../../../../../kernel/freertos/Source/timers.c:0:9
__arm_cp.17_0:
	.long	prvSampleTimeNow.xLastTime
.Lcpi_end21:
	.size	__arm_cp.17_0, .Lcpi_end21-__arm_cp.17_0
__arm_cp.17_1:
	.long	pxCurrentTimerList
.Lcpi_end22:
	.size	__arm_cp.17_1, .Lcpi_end22-__arm_cp.17_1
__arm_cp.17_2:
	.long	xTimerQueue
.Lcpi_end23:
	.size	__arm_cp.17_2, .Lcpi_end23-__arm_cp.17_2
__arm_cp.17_3:
	.long	pxOverflowTimerList
.Lcpi_end24:
	.size	__arm_cp.17_3, .Lcpi_end24-__arm_cp.17_3
.Lfunc_end17:
	.size	prvSampleTimeNow, .Lfunc_end17-prvSampleTimeNow
	.cfi_endproc
	.cantunwind
	.fnend
                                        @ -- End function
	.type	xTimerQueue,%object             @ @xTimerQueue
	.section	.bss.xTimerQueue,"aw",%nobits
	.p2align	2, 0x0
xTimerQueue:
	.long	0
	.size	xTimerQueue, 4

	.type	xTimerTaskHandle,%object        @ @xTimerTaskHandle
	.section	.bss.xTimerTaskHandle,"aw",%nobits
	.p2align	2, 0x0
xTimerTaskHandle:
	.long	0
	.size	xTimerTaskHandle, 4

	.type	pxCurrentTimerList,%object      @ @pxCurrentTimerList
	.section	.bss.pxCurrentTimerList,"aw",%nobits
	.p2align	2, 0x0
pxCurrentTimerList:
	.long	0
	.size	pxCurrentTimerList, 4

	.type	pxOverflowTimerList,%object     @ @pxOverflowTimerList
	.section	.bss.pxOverflowTimerList,"aw",%nobits
	.p2align	2, 0x0
pxOverflowTimerList:
	.long	0
	.size	pxOverflowTimerList, 4

	.type	prvSampleTimeNow.xLastTime,%object @ @prvSampleTimeNow.xLastTime
	.section	.bss.prvSampleTimeNow.xLastTime,"aw",%nobits
	.p2align	2, 0x0
prvSampleTimeNow.xLastTime:
	.long	0                               @ 0x0
	.size	prvSampleTimeNow.xLastTime, 4

	.type	xActiveTimerList1,%object       @ @xActiveTimerList1
	.section	.bss.xActiveTimerList1,"aw",%nobits
	.p2align	2, 0x0
xActiveTimerList1:
	.zero	20
	.size	xActiveTimerList1, 20

	.type	xActiveTimerList2,%object       @ @xActiveTimerList2
	.section	.bss.xActiveTimerList2,"aw",%nobits
	.p2align	2, 0x0
xActiveTimerList2:
	.zero	20
	.size	xActiveTimerList2, 20

	.type	prvCheckForValidListAndQueue.xStaticTimerQueue,%object @ @prvCheckForValidListAndQueue.xStaticTimerQueue
	.section	.bss.prvCheckForValidListAndQueue.xStaticTimerQueue,"aw",%nobits
	.p2align	2, 0x0
prvCheckForValidListAndQueue.xStaticTimerQueue:
	.zero	80
	.size	prvCheckForValidListAndQueue.xStaticTimerQueue, 80

	.type	prvCheckForValidListAndQueue.ucStaticTimerQueueStorage,%object @ @prvCheckForValidListAndQueue.ucStaticTimerQueueStorage
	.section	.bss.prvCheckForValidListAndQueue.ucStaticTimerQueueStorage,"aw",%nobits
prvCheckForValidListAndQueue.ucStaticTimerQueueStorage:
	.zero	240
	.size	prvCheckForValidListAndQueue.ucStaticTimerQueueStorage, 240

	.file	9 "I:\\Keil5\\keil5_mdk\\ARM\\ARMCLANG\\Bin\\..\\include" "stdlib.h"
	.file	10 "D:\\TI_M0G3507\\mspm0_sdk_2_05_00_05\\kernel\\freertos\\builds\\LP_MSPM0G3507\\release\\keil" "../../../../../../kernel/freertos/Source/include/projdefs.h"
	.section	".note.GNU-stack","",%progbits
	.eabi_attribute	30, 1	@ Tag_ABI_optimization_goals
	.ARM_attribute	16, 1	@ Tag_AV_eba